---
triple:          'arm64-apple-darwin'
binary-path:     '/Users/rchallis/projects/genomehubs/cli-generator/target/debug/deps/libcli_generator.dylib'
relocations:
  - { offset: 0x1E, size: 0x8, addend: 0x0, symName: __ZN4core4iter6traits8iterator8Iterator10filter_map17hb593482749fd56f2E, symObjAddr: 0x0, symBinAddr: 0x9C0, symSize: 0x1C }
  - { offset: 0x1F7, size: 0x8, addend: 0x0, symName: __ZN4core4iter6traits8iterator8Iterator10filter_map17hb593482749fd56f2E, symObjAddr: 0x0, symBinAddr: 0x9C0, symSize: 0x1C }
  - { offset: 0x24F, size: 0x8, addend: 0x0, symName: __ZN4core4iter6traits8iterator8Iterator3map17h56b3e4e21104f778E, symObjAddr: 0x1C, symBinAddr: 0x9DC, symSize: 0x1C }
  - { offset: 0x2A7, size: 0x8, addend: 0x0, symName: __ZN4core4iter6traits8iterator8Iterator6by_ref17h313ee4b10f466485E, symObjAddr: 0x38, symBinAddr: 0x9F8, symSize: 0x14 }
  - { offset: 0x2DE, size: 0x8, addend: 0x0, symName: __ZN4core4iter6traits8iterator8Iterator6filter17h3b10c3a704830c43E, symObjAddr: 0x4C, symBinAddr: 0xA0C, symSize: 0x1C }
  - { offset: 0x32D, size: 0x8, addend: 0x0, symName: __ZN4core4iter6traits8iterator8Iterator6filter17hc30a5494c4da6e0aE, symObjAddr: 0x68, symBinAddr: 0xA28, symSize: 0x1C }
  - { offset: 0x3A1, size: 0x8, addend: 0x0, symName: '__ZN72_$LT$$RF$mut$u20$I$u20$as$u20$core..iter..traits..iterator..Iterator$GT$4next17h23b3e6744b57f677E', symObjAddr: 0x1E8, symBinAddr: 0xBA8, symSize: 0x28 }
  - { offset: 0x3E4, size: 0x8, addend: 0x0, symName: '__ZN63_$LT$I$u20$as$u20$core..iter..traits..collect..IntoIterator$GT$9into_iter17h87c769724aabafbbE', symObjAddr: 0x1D4, symBinAddr: 0xB94, symSize: 0x14 }
  - { offset: 0xE16, size: 0x8, addend: 0x0, symName: '__ZN91_$LT$core..slice..iter..Iter$LT$T$GT$$u20$as$u20$core..iter..traits..iterator..Iterator$GT$4find17h4374f2b3d484a210E', symObjAddr: 0x210, symBinAddr: 0xBD0, symSize: 0xE0 }
  - { offset: 0xF3F, size: 0x8, addend: 0x0, symName: '__ZN91_$LT$core..slice..iter..Iter$LT$T$GT$$u20$as$u20$core..iter..traits..iterator..Iterator$GT$4find17h826a445df7248a43E', symObjAddr: 0x2F0, symBinAddr: 0xCB0, symSize: 0xE4 }
  - { offset: 0x1068, size: 0x8, addend: 0x0, symName: '__ZN91_$LT$core..slice..iter..Iter$LT$T$GT$$u20$as$u20$core..iter..traits..iterator..Iterator$GT$4find17h8e439ae1169905d6E', symObjAddr: 0x3D4, symBinAddr: 0xD94, symSize: 0xE4 }
  - { offset: 0x1142, size: 0x8, addend: 0x0, symName: '__ZN91_$LT$core..slice..iter..Iter$LT$T$GT$$u20$as$u20$core..iter..traits..iterator..Iterator$GT$4fold17he12c15a3e9b644a9E', symObjAddr: 0x4B8, symBinAddr: 0xE78, symSize: 0x1A8 }
  - { offset: 0x1270, size: 0x8, addend: 0x0, symName: '__ZN91_$LT$core..slice..iter..Iter$LT$T$GT$$u20$as$u20$core..iter..traits..iterator..Iterator$GT$4next17h90fd92d90b8bf450E', symObjAddr: 0x660, symBinAddr: 0x1020, symSize: 0x84 }
  - { offset: 0x1326, size: 0x8, addend: 0x0, symName: '__ZN91_$LT$core..slice..iter..Iter$LT$T$GT$$u20$as$u20$core..iter..traits..iterator..Iterator$GT$4next17hb7329f095dc70a1cE', symObjAddr: 0x6E4, symBinAddr: 0x10A4, symSize: 0x84 }
  - { offset: 0x13DC, size: 0x8, addend: 0x0, symName: '__ZN91_$LT$core..slice..iter..Iter$LT$T$GT$$u20$as$u20$core..iter..traits..iterator..Iterator$GT$4next17hd3fbcd143f956d75E', symObjAddr: 0x768, symBinAddr: 0x1128, symSize: 0x84 }
  - { offset: 0x1492, size: 0x8, addend: 0x0, symName: '__ZN91_$LT$core..slice..iter..Iter$LT$T$GT$$u20$as$u20$core..iter..traits..iterator..Iterator$GT$4next17hd5a33474fa9605a6E', symObjAddr: 0x7EC, symBinAddr: 0x11AC, symSize: 0x84 }
  - { offset: 0x1548, size: 0x8, addend: 0x0, symName: '__ZN91_$LT$core..slice..iter..Iter$LT$T$GT$$u20$as$u20$core..iter..traits..iterator..Iterator$GT$5count17h6b16457a458e557dE', symObjAddr: 0x870, symBinAddr: 0x1230, symSize: 0x4C }
  - { offset: 0x15E9, size: 0x8, addend: 0x0, symName: '__ZN91_$LT$core..slice..iter..Iter$LT$T$GT$$u20$as$u20$core..iter..traits..iterator..Iterator$GT$8find_map17hbd6bab3efc7ee6beE', symObjAddr: 0x8BC, symBinAddr: 0x127C, symSize: 0x104 }
  - { offset: 0x1730, size: 0x8, addend: 0x0, symName: '__ZN91_$LT$core..slice..iter..Iter$LT$T$GT$$u20$as$u20$core..iter..traits..iterator..Iterator$GT$8position17h6528ba3c49976857E', symObjAddr: 0x9C0, symBinAddr: 0x1380, symSize: 0x1BC }
  - { offset: 0x18B5, size: 0x8, addend: 0x0, symName: '__ZN91_$LT$core..slice..iter..Iter$LT$T$GT$$u20$as$u20$core..iter..traits..iterator..Iterator$GT$8position17hb950e5bc614b87eeE', symObjAddr: 0xB7C, symBinAddr: 0x153C, symSize: 0x1BC }
  - { offset: 0x19EB, size: 0x8, addend: 0x0, symName: '__ZN91_$LT$core..slice..iter..Iter$LT$T$GT$$u20$as$u20$core..iter..traits..iterator..Iterator$GT$9size_hint17hcf376c0e5649e566E', symObjAddr: 0xD38, symBinAddr: 0x16F8, symSize: 0x60 }
  - { offset: 0x1A5A, size: 0x8, addend: 0x0, symName: '__ZN91_$LT$core..slice..iter..Iter$LT$T$GT$$u20$as$u20$core..iter..traits..iterator..Iterator$GT$9size_hint17hfb9deefdd6b15d71E', symObjAddr: 0xD98, symBinAddr: 0x1758, symSize: 0x60 }
  - { offset: 0x1B3B, size: 0x8, addend: 0x0, symName: '__ZN94_$LT$core..slice..iter..IterMut$LT$T$GT$$u20$as$u20$core..iter..traits..iterator..Iterator$GT$4next17h2e1920278875017fE', symObjAddr: 0xDF8, symBinAddr: 0x17B8, symSize: 0x84 }
  - { offset: 0x2644, size: 0x8, addend: 0x0, symName: '__ZN4core5slice4iter13Iter$LT$T$GT$3new17h25429f73c7cc6d9dE', symObjAddr: 0x84, symBinAddr: 0xA44, symSize: 0x58 }
  - { offset: 0x2AE2, size: 0x8, addend: 0x0, symName: '__ZN4core5slice4iter13Iter$LT$T$GT$3new17ha04b49bab5855660E', symObjAddr: 0xDC, symBinAddr: 0xA9C, symSize: 0x58 }
  - { offset: 0x2CAC, size: 0x8, addend: 0x0, symName: '__ZN4core5slice4iter13Iter$LT$T$GT$3new17hfde6dacd8a661011E', symObjAddr: 0x134, symBinAddr: 0xAF4, symSize: 0x50 }
  - { offset: 0x3233, size: 0x8, addend: 0x0, symName: '__ZN4core5slice4iter16IterMut$LT$T$GT$3new17h7ce48b394fbe325fE', symObjAddr: 0x184, symBinAddr: 0xB44, symSize: 0x50 }
  - { offset: 0x36F1, size: 0x8, addend: 0x0, symName: __ZN10serde_core2de7Visitor18visit_borrowed_str17h2aebe52a502fa564E, symObjAddr: 0x0, symBinAddr: 0x183C, symSize: 0x28 }
  - { offset: 0x3793, size: 0x8, addend: 0x0, symName: '__ZN193_$LT$cli_generator..core..query.._..$LT$impl$u20$serde_core..de..Deserialize$u20$for$u20$cli_generator..core..query..SortOrder$GT$..deserialize..__Visitor$u20$as$u20$serde_core..de..Visitor$GT$10visit_enum17h5b2dd1977c42913eE', symObjAddr: 0x2F8, symBinAddr: 0x1B34, symSize: 0x16C }
  - { offset: 0x386D, size: 0x8, addend: 0x0, symName: '__ZN193_$LT$cli_generator..core..query.._..$LT$impl$u20$serde_core..de..Deserialize$u20$for$u20$cli_generator..core..query..SortOrder$GT$..deserialize..__Visitor$u20$as$u20$serde_core..de..Visitor$GT$10visit_enum17h7b13aba42c5ba665E', symObjAddr: 0x464, symBinAddr: 0x1CA0, symSize: 0x148 }
  - { offset: 0x3946, size: 0x8, addend: 0x0, symName: '__ZN195_$LT$cli_generator..core..query.._..$LT$impl$u20$serde_core..de..Deserialize$u20$for$u20$cli_generator..core..query..QueryParams$GT$..deserialize..__Visitor$u20$as$u20$serde_core..de..Visitor$GT$9visit_map17h49c0444c302f9481E', symObjAddr: 0x5AC, symBinAddr: 0x1DE8, symSize: 0xB2C }
  - { offset: 0x3CBD, size: 0x8, addend: 0x0, symName: '__ZN195_$LT$cli_generator..core..query.._..$LT$impl$u20$serde_core..de..Deserialize$u20$for$u20$cli_generator..core..query..QueryParams$GT$..deserialize..__Visitor$u20$as$u20$serde_core..de..Visitor$GT$9visit_map17hf0b93fe382a2f0a7E', symObjAddr: 0x10D8, symBinAddr: 0x2914, symSize: 0xB58 }
  - { offset: 0x4034, size: 0x8, addend: 0x0, symName: '__ZN195_$LT$cli_generator..core..query.._..$LT$impl$u20$serde_core..de..Deserialize$u20$for$u20$cli_generator..core..query..SearchIndex$GT$..deserialize..__Visitor$u20$as$u20$serde_core..de..Visitor$GT$10visit_enum17h7592d9d969f0d997E', symObjAddr: 0x1C30, symBinAddr: 0x346C, symSize: 0x1F4 }
  - { offset: 0x4139, size: 0x8, addend: 0x0, symName: '__ZN195_$LT$cli_generator..core..query.._..$LT$impl$u20$serde_core..de..Deserialize$u20$for$u20$cli_generator..core..query..SearchIndex$GT$..deserialize..__Visitor$u20$as$u20$serde_core..de..Visitor$GT$10visit_enum17hcfa57e5e348fe8fbE', symObjAddr: 0x1E24, symBinAddr: 0x3660, symSize: 0x1AC }
  - { offset: 0x423D, size: 0x8, addend: 0x0, symName: '__ZN195_$LT$cli_generator..core..query.._..$LT$impl$u20$serde_core..de..Deserialize$u20$for$u20$cli_generator..core..query..SearchQuery$GT$..deserialize..__Visitor$u20$as$u20$serde_core..de..Visitor$GT$9visit_map17h0308e37a408993ceE', symObjAddr: 0x1FD0, symBinAddr: 0x380C, symSize: 0x590 }
  - { offset: 0x4418, size: 0x8, addend: 0x0, symName: '__ZN195_$LT$cli_generator..core..query.._..$LT$impl$u20$serde_core..de..Deserialize$u20$for$u20$cli_generator..core..query..SearchQuery$GT$..deserialize..__Visitor$u20$as$u20$serde_core..de..Visitor$GT$9visit_map17hdc9854c735d9e944E', symObjAddr: 0x2560, symBinAddr: 0x3D9C, symSize: 0x558 }
  - { offset: 0x45F9, size: 0x8, addend: 0x0, symName: '__ZN195_$LT$cli_generator..core..query.._..$LT$impl$u20$serde_core..de..Deserialize$u20$for$u20$cli_generator..core..query..SortOrder$GT$..deserialize..__Field$u20$as$u20$serde_core..de..Deserialize$GT$11deserialize17hbc5bcb4aa547aaf2E', symObjAddr: 0x2AB8, symBinAddr: 0x42F4, symSize: 0x24 }
  - { offset: 0x462E, size: 0x8, addend: 0x0, symName: '__ZN195_$LT$cli_generator..core..query.._..$LT$impl$u20$serde_core..de..Deserialize$u20$for$u20$cli_generator..core..query..SortOrder$GT$..deserialize..__Field$u20$as$u20$serde_core..de..Deserialize$GT$11deserialize17hc62c27dca2bea3f3E', symObjAddr: 0x2ADC, symBinAddr: 0x4318, symSize: 0x28 }
  - { offset: 0x4663, size: 0x8, addend: 0x0, symName: '__ZN197_$LT$cli_generator..core..query.._..$LT$impl$u20$serde_core..de..Deserialize$u20$for$u20$cli_generator..core..query..QueryParams$GT$..deserialize..__Field$u20$as$u20$serde_core..de..Deserialize$GT$11deserialize17hfbb28cca23833416E', symObjAddr: 0x2B04, symBinAddr: 0x4340, symSize: 0x24 }
  - { offset: 0x4698, size: 0x8, addend: 0x0, symName: '__ZN197_$LT$cli_generator..core..query.._..$LT$impl$u20$serde_core..de..Deserialize$u20$for$u20$cli_generator..core..query..SearchIndex$GT$..deserialize..__Field$u20$as$u20$serde_core..de..Deserialize$GT$11deserialize17h42835e1f68b5df0eE', symObjAddr: 0x2B28, symBinAddr: 0x4364, symSize: 0x28 }
  - { offset: 0x46CD, size: 0x8, addend: 0x0, symName: '__ZN197_$LT$cli_generator..core..query.._..$LT$impl$u20$serde_core..de..Deserialize$u20$for$u20$cli_generator..core..query..SearchIndex$GT$..deserialize..__Field$u20$as$u20$serde_core..de..Deserialize$GT$11deserialize17hfe9d418143fb0903E', symObjAddr: 0x2B50, symBinAddr: 0x438C, symSize: 0x24 }
  - { offset: 0x4702, size: 0x8, addend: 0x0, symName: '__ZN197_$LT$cli_generator..core..query.._..$LT$impl$u20$serde_core..de..Deserialize$u20$for$u20$cli_generator..core..query..SearchQuery$GT$..deserialize..__Field$u20$as$u20$serde_core..de..Deserialize$GT$11deserialize17hef835c25f8d3bb26E', symObjAddr: 0x2B74, symBinAddr: 0x43B0, symSize: 0x24 }
  - { offset: 0x473D, size: 0x8, addend: 0x0, symName: '__ZN198_$LT$cli_generator..core..query.._..$LT$impl$u20$serde_core..de..Deserialize$u20$for$u20$cli_generator..core..query..SortOrder$GT$..deserialize..__FieldVisitor$u20$as$u20$serde_core..de..Visitor$GT$9visit_str17hfabcf31ecfcaae4eE', symObjAddr: 0x2B98, symBinAddr: 0x43D4, symSize: 0xC4 }
  - { offset: 0x478B, size: 0x8, addend: 0x0, symName: '__ZN200_$LT$cli_generator..core..query.._..$LT$impl$u20$serde_core..de..Deserialize$u20$for$u20$cli_generator..core..query..QueryParams$GT$..deserialize..__FieldVisitor$u20$as$u20$serde_core..de..Visitor$GT$9visit_str17hb5e51585f11f1398E', symObjAddr: 0x2C5C, symBinAddr: 0x4498, symSize: 0x1C0 }
  - { offset: 0x47D9, size: 0x8, addend: 0x0, symName: '__ZN200_$LT$cli_generator..core..query.._..$LT$impl$u20$serde_core..de..Deserialize$u20$for$u20$cli_generator..core..query..SearchIndex$GT$..deserialize..__FieldVisitor$u20$as$u20$serde_core..de..Visitor$GT$9visit_str17h4384a7bb32de49caE', symObjAddr: 0x2E1C, symBinAddr: 0x4658, symSize: 0xFC }
  - { offset: 0x4827, size: 0x8, addend: 0x0, symName: '__ZN200_$LT$cli_generator..core..query.._..$LT$impl$u20$serde_core..de..Deserialize$u20$for$u20$cli_generator..core..query..SearchQuery$GT$..deserialize..__FieldVisitor$u20$as$u20$serde_core..de..Visitor$GT$18visit_borrowed_str17h3358dac9becc3195E', symObjAddr: 0x2F18, symBinAddr: 0x4754, symSize: 0xAC }
  - { offset: 0x4893, size: 0x8, addend: 0x0, symName: '__ZN200_$LT$cli_generator..core..query.._..$LT$impl$u20$serde_core..de..Deserialize$u20$for$u20$cli_generator..core..query..SearchQuery$GT$..deserialize..__FieldVisitor$u20$as$u20$serde_core..de..Visitor$GT$9visit_str17h9f1c2443a94230c9E', symObjAddr: 0x2FC4, symBinAddr: 0x4800, symSize: 0xC0 }
  - { offset: 0x49F2, size: 0x8, addend: 0x0, symName: '__ZN13cli_generator4core5query1_95_$LT$impl$u20$serde_core..de..Deserialize$u20$for$u20$cli_generator..core..query..SortOrder$GT$11deserialize17hf16558337cb94c6aE', symObjAddr: 0x1E0, symBinAddr: 0x1A1C, symSize: 0x44 }
  - { offset: 0x4A27, size: 0x8, addend: 0x0, symName: '__ZN13cli_generator4core5query1_97_$LT$impl$u20$serde_core..de..Deserialize$u20$for$u20$cli_generator..core..query..QueryParams$GT$11deserialize17hc11f556255ed7328E', symObjAddr: 0x224, symBinAddr: 0x1A60, symSize: 0x34 }
  - { offset: 0x4A5D, size: 0x8, addend: 0x0, symName: '__ZN13cli_generator4core5query1_97_$LT$impl$u20$serde_core..de..Deserialize$u20$for$u20$cli_generator..core..query..SearchIndex$GT$11deserialize17hb03e71bdc506905bE', symObjAddr: 0x258, symBinAddr: 0x1A94, symSize: 0x48 }
  - { offset: 0x4A92, size: 0x8, addend: 0x0, symName: '__ZN13cli_generator4core5query1_97_$LT$impl$u20$serde_core..de..Deserialize$u20$for$u20$cli_generator..core..query..SearchIndex$GT$11deserialize17hed2b3feb487c9d78E', symObjAddr: 0x2A0, symBinAddr: 0x1ADC, symSize: 0x44 }
  - { offset: 0x4AC7, size: 0x8, addend: 0x0, symName: '__ZN13cli_generator4core5query1_97_$LT$impl$u20$serde_core..de..Deserialize$u20$for$u20$cli_generator..core..query..SearchQuery$GT$11deserialize17h891fc009f38b5832E', symObjAddr: 0x2E4, symBinAddr: 0x1B20, symSize: 0x14 }
  - { offset: 0x4D2D, size: 0x8, addend: 0x0, symName: '__ZN13cli_generator4core5query11QueryParams9from_yaml28_$u7b$$u7b$closure$u7d$$u7d$17h7aab36a2e6c58b76E', symObjAddr: 0x78, symBinAddr: 0x18B4, symSize: 0xB4 }
  - { offset: 0x4DA9, size: 0x8, addend: 0x0, symName: '__ZN13cli_generator4core5query11SearchQuery9from_yaml28_$u7b$$u7b$closure$u7d$$u7d$17h60174cf64240478aE', symObjAddr: 0x12C, symBinAddr: 0x1968, symSize: 0xB4 }
  - { offset: 0x7CC3, size: 0x8, addend: 0x0, symName: __ZN10serde_core2de7Visitor18visit_borrowed_str17h2aebe52a502fa564E, symObjAddr: 0x0, symBinAddr: 0x183C, symSize: 0x28 }
  - { offset: 0x7D12, size: 0x8, addend: 0x0, symName: __ZN10serde_core2de7Visitor18visit_borrowed_str17h6adf839ed1d3e93dE, symObjAddr: 0x28, symBinAddr: 0x1864, symSize: 0x28 }
  - { offset: 0x7D61, size: 0x8, addend: 0x0, symName: __ZN10serde_core2de7Visitor18visit_borrowed_str17hfc7d66507760404bE, symObjAddr: 0x50, symBinAddr: 0x188C, symSize: 0x28 }
  - { offset: 0x7DB6, size: 0x8, addend: 0x0, symName: '__ZN46_$LT$T$u20$as$u20$serde_core..de..Expected$GT$3fmt17h0153b6e419e3e42aE', symObjAddr: 0x3084, symBinAddr: 0x48C0, symSize: 0x2C }
  - { offset: 0x7DFC, size: 0x8, addend: 0x0, symName: '__ZN46_$LT$T$u20$as$u20$serde_core..de..Expected$GT$3fmt17h650a64cdfba90411E', symObjAddr: 0x30B0, symBinAddr: 0x48EC, symSize: 0x2C }
  - { offset: 0x7E42, size: 0x8, addend: 0x0, symName: '__ZN46_$LT$T$u20$as$u20$serde_core..de..Expected$GT$3fmt17h7f555fa68118d8feE', symObjAddr: 0x30DC, symBinAddr: 0x4918, symSize: 0x2C }
  - { offset: 0x7E88, size: 0x8, addend: 0x0, symName: '__ZN46_$LT$T$u20$as$u20$serde_core..de..Expected$GT$3fmt17hd310fcd301a1481eE', symObjAddr: 0x3108, symBinAddr: 0x4944, symSize: 0x2C }
  - { offset: 0x7ECE, size: 0x8, addend: 0x0, symName: '__ZN46_$LT$T$u20$as$u20$serde_core..de..Expected$GT$3fmt17he520d1cb3ec4f746E', symObjAddr: 0x3134, symBinAddr: 0x4970, symSize: 0x2C }
  - { offset: 0x7F14, size: 0x8, addend: 0x0, symName: '__ZN46_$LT$T$u20$as$u20$serde_core..de..Expected$GT$3fmt17he89398bb514bd6bcE', symObjAddr: 0x3160, symBinAddr: 0x499C, symSize: 0x2C }
  - { offset: 0x91BB, size: 0x8, addend: 0x0, symName: '__ZN81_$LT$serde_yaml..libyaml..parser..ScalarStyle$u20$as$u20$core..cmp..PartialEq$GT$2eq17h1b76009d8c38e657E', symObjAddr: 0x0, symBinAddr: 0x49C8, symSize: 0x34 }
  - { offset: 0x9206, size: 0x8, addend: 0x0, symName: '__ZN81_$LT$serde_yaml..libyaml..parser..ScalarStyle$u20$as$u20$core..cmp..PartialEq$GT$2eq17h1b76009d8c38e657E', symObjAddr: 0x0, symBinAddr: 0x49C8, symSize: 0x34 }
  - { offset: 0x92BE, size: 0x8, addend: 0x0, symName: __ZN4core9core_arch10arm_shared4neon9generated18vreinterpret_s8_u817hef64817b64779c63E, symObjAddr: 0x0, symBinAddr: 0x49FC, symSize: 0xC }
  - { offset: 0x92E4, size: 0x8, addend: 0x0, symName: __ZN4core9core_arch10arm_shared4neon9generated18vreinterpret_s8_u817hef64817b64779c63E, symObjAddr: 0x0, symBinAddr: 0x49FC, symSize: 0xC }
  - { offset: 0x9312, size: 0x8, addend: 0x0, symName: __ZN4core9core_arch10arm_shared4neon9generated19vreinterpret_u64_u817h4be9c59696f24827E, symObjAddr: 0xC, symBinAddr: 0x4A08, symSize: 0xC }
  - { offset: 0x9340, size: 0x8, addend: 0x0, symName: __ZN4core9core_arch10arm_shared4neon9generated7vceq_u817h891251ff6b94c049E, symObjAddr: 0x18, symBinAddr: 0x4A14, symSize: 0x14 }
  - { offset: 0x937D, size: 0x8, addend: 0x0, symName: __ZN4core9core_arch10arm_shared4neon9generated7vorr_u817hd1e61cac79bf87acE, symObjAddr: 0x2C, symBinAddr: 0x4A28, symSize: 0x14 }
  - { offset: 0x93BA, size: 0x8, addend: 0x0, symName: __ZN4core9core_arch10arm_shared4neon9generated9vdup_n_u817h3c43e71b2965bd68E, symObjAddr: 0x40, symBinAddr: 0x4A3C, symSize: 0x2C }
  - { offset: 0x9528, size: 0x8, addend: 0x0, symName: __ZN10serde_core2de10EnumAccess7variant17h6c5e09ec7cb488caE, symObjAddr: 0x0, symBinAddr: 0x4A68, symSize: 0x24 }
  - { offset: 0xB505, size: 0x8, addend: 0x0, symName: __ZN10serde_core2de10EnumAccess7variant17h6c5e09ec7cb488caE, symObjAddr: 0x0, symBinAddr: 0x4A68, symSize: 0x24 }
  - { offset: 0xB545, size: 0x8, addend: 0x0, symName: __ZN10serde_core2de10EnumAccess7variant17h807e67295de7ac13E, symObjAddr: 0x24, symBinAddr: 0x4A8C, symSize: 0x14 }
  - { offset: 0xB586, size: 0x8, addend: 0x0, symName: __ZN10serde_core2de10EnumAccess7variant17h8a9ed35aa84a1444E, symObjAddr: 0x38, symBinAddr: 0x4AA0, symSize: 0x24 }
  - { offset: 0xB5C6, size: 0x8, addend: 0x0, symName: __ZN10serde_core2de10EnumAccess7variant17h8e6dc0acc351baa8E, symObjAddr: 0x5C, symBinAddr: 0x4AC4, symSize: 0x14 }
  - { offset: 0xB60D, size: 0x8, addend: 0x0, symName: __ZN10serde_core2de12Deserializer24__deserialize_content_v117hb60f8aa1964b22f7E, symObjAddr: 0x70, symBinAddr: 0x4AD8, symSize: 0x24 }
  - { offset: 0xB662, size: 0x8, addend: 0x0, symName: __ZN10serde_core2de9MapAccess10next_value17h01f2f3200ba6e0ccE, symObjAddr: 0x94, symBinAddr: 0x4AFC, symSize: 0x24 }
  - { offset: 0xB6A2, size: 0x8, addend: 0x0, symName: __ZN10serde_core2de9MapAccess10next_value17h150ef2a638bc4437E, symObjAddr: 0xB8, symBinAddr: 0x4B20, symSize: 0x24 }
  - { offset: 0xB6E2, size: 0x8, addend: 0x0, symName: __ZN10serde_core2de9MapAccess10next_value17h1e5cd903f509dbc0E, symObjAddr: 0xDC, symBinAddr: 0x4B44, symSize: 0x24 }
  - { offset: 0xB722, size: 0x8, addend: 0x0, symName: __ZN10serde_core2de9MapAccess10next_value17h67846f736a4728b7E, symObjAddr: 0x100, symBinAddr: 0x4B68, symSize: 0x24 }
  - { offset: 0xB762, size: 0x8, addend: 0x0, symName: __ZN10serde_core2de9MapAccess10next_value17h8e27780a372e383bE, symObjAddr: 0x124, symBinAddr: 0x4B8C, symSize: 0x24 }
  - { offset: 0xB7A2, size: 0x8, addend: 0x0, symName: __ZN10serde_core2de9MapAccess10next_value17hb4bcc696f7c14b68E, symObjAddr: 0x148, symBinAddr: 0x4BB0, symSize: 0x24 }
  - { offset: 0xB7E2, size: 0x8, addend: 0x0, symName: __ZN10serde_core2de9MapAccess10next_value17hb593d2439e77a919E, symObjAddr: 0x16C, symBinAddr: 0x4BD4, symSize: 0x24 }
  - { offset: 0xB822, size: 0x8, addend: 0x0, symName: __ZN10serde_core2de9MapAccess15next_entry_seed17hdd318a39bd8dcc17E, symObjAddr: 0x190, symBinAddr: 0x4BF8, symSize: 0x1F8 }
  - { offset: 0xB8F9, size: 0x8, addend: 0x0, symName: __ZN10serde_core2de9MapAccess8next_key17h1c6c4d5bf9713bc1E, symObjAddr: 0x388, symBinAddr: 0x4DF0, symSize: 0x24 }
  - { offset: 0xB939, size: 0x8, addend: 0x0, symName: __ZN10serde_core2de9MapAccess8next_key17h3f07a9a478c063c3E, symObjAddr: 0x3AC, symBinAddr: 0x4E14, symSize: 0x24 }
  - { offset: 0xB979, size: 0x8, addend: 0x0, symName: __ZN10serde_core2de9MapAccess9size_hint17hf6fabd90958d70dfE, symObjAddr: 0x3D0, symBinAddr: 0x4E38, symSize: 0x14 }
  - { offset: 0xB9B6, size: 0x8, addend: 0x0, symName: __ZN10serde_core2de9SeqAccess9size_hint17h1e61406ad26f4a08E, symObjAddr: 0x3E4, symBinAddr: 0x4E4C, symSize: 0x14 }
  - { offset: 0xB9F3, size: 0x8, addend: 0x0, symName: '__ZN59_$LT$$RF$mut$u20$A$u20$as$u20$serde_core..de..MapAccess$GT$10next_value17h1b9453471ccb7897E', symObjAddr: 0x3130, symBinAddr: 0x7B98, symSize: 0x28 }
  - { offset: 0xBA33, size: 0x8, addend: 0x0, symName: '__ZN59_$LT$$RF$mut$u20$A$u20$as$u20$serde_core..de..MapAccess$GT$10next_value17h3de500a4baaf3dd5E', symObjAddr: 0x3158, symBinAddr: 0x7BC0, symSize: 0x28 }
  - { offset: 0xBA73, size: 0x8, addend: 0x0, symName: '__ZN59_$LT$$RF$mut$u20$A$u20$as$u20$serde_core..de..MapAccess$GT$10next_value17h4d438d22f9816faaE', symObjAddr: 0x3180, symBinAddr: 0x7BE8, symSize: 0x28 }
  - { offset: 0xBAB3, size: 0x8, addend: 0x0, symName: '__ZN59_$LT$$RF$mut$u20$A$u20$as$u20$serde_core..de..MapAccess$GT$10next_value17h568f9e5920a28ac2E', symObjAddr: 0x31A8, symBinAddr: 0x7C10, symSize: 0x28 }
  - { offset: 0xBAF3, size: 0x8, addend: 0x0, symName: '__ZN59_$LT$$RF$mut$u20$A$u20$as$u20$serde_core..de..MapAccess$GT$10next_value17h74b1b7c3e4f3b03aE', symObjAddr: 0x31D0, symBinAddr: 0x7C38, symSize: 0x28 }
  - { offset: 0xBB33, size: 0x8, addend: 0x0, symName: '__ZN59_$LT$$RF$mut$u20$A$u20$as$u20$serde_core..de..MapAccess$GT$10next_value17hd3139743eca3b0f8E', symObjAddr: 0x31F8, symBinAddr: 0x7C60, symSize: 0x28 }
  - { offset: 0xBB73, size: 0x8, addend: 0x0, symName: '__ZN59_$LT$$RF$mut$u20$A$u20$as$u20$serde_core..de..MapAccess$GT$10next_value17hfe7284a727c8ecc9E', symObjAddr: 0x3220, symBinAddr: 0x7C88, symSize: 0x28 }
  - { offset: 0xBBB3, size: 0x8, addend: 0x0, symName: '__ZN59_$LT$$RF$mut$u20$A$u20$as$u20$serde_core..de..MapAccess$GT$15next_entry_seed17hf37624a1bb093f40E', symObjAddr: 0x3248, symBinAddr: 0x7CB0, symSize: 0x28 }
  - { offset: 0xBC1A, size: 0x8, addend: 0x0, symName: '__ZN59_$LT$$RF$mut$u20$A$u20$as$u20$serde_core..de..MapAccess$GT$15next_value_seed17h89bb6fe8d2d07d93E', symObjAddr: 0x3270, symBinAddr: 0x7CD8, symSize: 0x28 }
  - { offset: 0xBC69, size: 0x8, addend: 0x0, symName: '__ZN59_$LT$$RF$mut$u20$A$u20$as$u20$serde_core..de..MapAccess$GT$8next_key17h032cb825c90562dcE', symObjAddr: 0x3298, symBinAddr: 0x7D00, symSize: 0x28 }
  - { offset: 0xBCA9, size: 0x8, addend: 0x0, symName: '__ZN59_$LT$$RF$mut$u20$A$u20$as$u20$serde_core..de..MapAccess$GT$8next_key17hfa64b676ba0840e3E', symObjAddr: 0x32C0, symBinAddr: 0x7D28, symSize: 0x28 }
  - { offset: 0xBCE9, size: 0x8, addend: 0x0, symName: '__ZN59_$LT$$RF$mut$u20$A$u20$as$u20$serde_core..de..MapAccess$GT$9size_hint17h13f71f555d7578deE', symObjAddr: 0x32E8, symBinAddr: 0x7D50, symSize: 0x28 }
  - { offset: 0xBD26, size: 0x8, addend: 0x0, symName: '__ZN59_$LT$$RF$mut$u20$A$u20$as$u20$serde_core..de..SeqAccess$GT$17next_element_seed17hefe7b72c49a257faE', symObjAddr: 0x3310, symBinAddr: 0x7D78, symSize: 0x28 }
  - { offset: 0xBD75, size: 0x8, addend: 0x0, symName: '__ZN59_$LT$$RF$mut$u20$A$u20$as$u20$serde_core..de..SeqAccess$GT$9size_hint17h12c1278fc0d69997E', symObjAddr: 0x3338, symBinAddr: 0x7DA0, symSize: 0x28 }
  - { offset: 0xCD5D, size: 0x8, addend: 0x0, symName: '__ZN77_$LT$serde_yaml..de..Deserializer$u20$as$u20$serde_core..de..Deserializer$GT$15deserialize_map28_$u7b$$u7b$closure$u7d$$u7d$17ha587dbcb72124c55E', symObjAddr: 0x4C58, symBinAddr: 0x96C0, symSize: 0x24 }
  - { offset: 0xCDD3, size: 0x8, addend: 0x0, symName: '__ZN77_$LT$serde_yaml..de..Deserializer$u20$as$u20$serde_core..de..Deserializer$GT$18deserialize_struct28_$u7b$$u7b$closure$u7d$$u7d$17h757902664ce2bad2E', symObjAddr: 0x4CB4, symBinAddr: 0x971C, symSize: 0x50 }
  - { offset: 0xCE41, size: 0x8, addend: 0x0, symName: '__ZN77_$LT$serde_yaml..de..Deserializer$u20$as$u20$serde_core..de..Deserializer$GT$15deserialize_map17hd1606a2995017860E', symObjAddr: 0x4C3C, symBinAddr: 0x96A4, symSize: 0x1C }
  - { offset: 0xCE88, size: 0x8, addend: 0x0, symName: '__ZN77_$LT$serde_yaml..de..Deserializer$u20$as$u20$serde_core..de..Deserializer$GT$18deserialize_struct17h16399153cc97af5fE', symObjAddr: 0x4C7C, symBinAddr: 0x96E4, symSize: 0x38 }
  - { offset: 0xCEEE, size: 0x8, addend: 0x0, symName: __ZN10serde_yaml2de12visit_scalar17he1061064c542da5fE, symObjAddr: 0x1670, symBinAddr: 0x60D8, symSize: 0x64C }
  - { offset: 0xCFF3, size: 0x8, addend: 0x0, symName: __ZN10serde_yaml2de21visit_untagged_scalar17hf4b00ad3467e14e8E, symObjAddr: 0x1CBC, symBinAddr: 0x6724, symSize: 0x310 }
  - { offset: 0xD2F8, size: 0x8, addend: 0x0, symName: '__ZN10serde_yaml2de22DeserializerFromEvents13visit_mapping28_$u7b$$u7b$closure$u7d$$u7d$17h8a2fb10475a7f44aE', symObjAddr: 0x2454, symBinAddr: 0x6EBC, symSize: 0xE8 }
  - { offset: 0xD39A, size: 0x8, addend: 0x0, symName: '__ZN10serde_yaml2de22DeserializerFromEvents13visit_mapping28_$u7b$$u7b$closure$u7d$$u7d$17ha3ca87c4b6ab10d8E', symObjAddr: 0x253C, symBinAddr: 0x6FA4, symSize: 0xF8 }
  - { offset: 0xD43C, size: 0x8, addend: 0x0, symName: '__ZN10serde_yaml2de22DeserializerFromEvents13visit_mapping28_$u7b$$u7b$closure$u7d$$u7d$17ha977ca036648bbaaE', symObjAddr: 0x2634, symBinAddr: 0x709C, symSize: 0xF8 }
  - { offset: 0xD51D, size: 0x8, addend: 0x0, symName: '__ZN10serde_yaml2de22DeserializerFromEvents14visit_sequence28_$u7b$$u7b$closure$u7d$$u7d$17hea4c205d12cd8dfeE', symObjAddr: 0x28A0, symBinAddr: 0x7308, symSize: 0xCC }
  - { offset: 0xD5D4, size: 0x8, addend: 0x0, symName: __ZN10serde_yaml2de8from_str17h2cf7e3c656ac2e0fE, symObjAddr: 0x2E7C, symBinAddr: 0x78E4, symSize: 0x40 }
  - { offset: 0xD60B, size: 0x8, addend: 0x0, symName: __ZN10serde_yaml2de8from_str17h3859c791ce829729E, symObjAddr: 0x2EBC, symBinAddr: 0x7924, symSize: 0x40 }
  - { offset: 0xD642, size: 0x8, addend: 0x0, symName: __ZN10serde_yaml2de9visit_int17hc860f5f2ee141792E, symObjAddr: 0x2EFC, symBinAddr: 0x7964, symSize: 0x234 }
  - { offset: 0xD6E7, size: 0x8, addend: 0x0, symName: '__ZN71_$LT$serde_yaml..de..MapAccess$u20$as$u20$serde_core..de..MapAccess$GT$13next_key_seed17h472a050e5624e02eE', symObjAddr: 0x3360, symBinAddr: 0x7DC8, symSize: 0x26C }
  - { offset: 0xD75A, size: 0x8, addend: 0x0, symName: '__ZN71_$LT$serde_yaml..de..MapAccess$u20$as$u20$serde_core..de..MapAccess$GT$13next_key_seed17h57c19545f7ee9780E', symObjAddr: 0x35CC, symBinAddr: 0x8034, symSize: 0x26C }
  - { offset: 0xD7CD, size: 0x8, addend: 0x0, symName: '__ZN71_$LT$serde_yaml..de..MapAccess$u20$as$u20$serde_core..de..MapAccess$GT$13next_key_seed17hda6781a89dec6047E', symObjAddr: 0x3838, symBinAddr: 0x82A0, symSize: 0x24C }
  - { offset: 0xD83F, size: 0x8, addend: 0x0, symName: '__ZN71_$LT$serde_yaml..de..MapAccess$u20$as$u20$serde_core..de..MapAccess$GT$15next_value_seed17h1984ac7cc8da3a83E', symObjAddr: 0x3A84, symBinAddr: 0x84EC, symSize: 0x17C }
  - { offset: 0xD8BA, size: 0x8, addend: 0x0, symName: '__ZN71_$LT$serde_yaml..de..MapAccess$u20$as$u20$serde_core..de..MapAccess$GT$15next_value_seed17h1a68ed38b4c55df6E', symObjAddr: 0x3C00, symBinAddr: 0x8668, symSize: 0x17C }
  - { offset: 0xD935, size: 0x8, addend: 0x0, symName: '__ZN71_$LT$serde_yaml..de..MapAccess$u20$as$u20$serde_core..de..MapAccess$GT$15next_value_seed17h1feaf96e19a1b568E', symObjAddr: 0x3D7C, symBinAddr: 0x87E4, symSize: 0x17C }
  - { offset: 0xD9B0, size: 0x8, addend: 0x0, symName: '__ZN71_$LT$serde_yaml..de..MapAccess$u20$as$u20$serde_core..de..MapAccess$GT$15next_value_seed17h5670418d2b91a977E', symObjAddr: 0x3EF8, symBinAddr: 0x8960, symSize: 0x184 }
  - { offset: 0xDA2B, size: 0x8, addend: 0x0, symName: '__ZN71_$LT$serde_yaml..de..MapAccess$u20$as$u20$serde_core..de..MapAccess$GT$15next_value_seed17hb50a113301154069E', symObjAddr: 0x407C, symBinAddr: 0x8AE4, symSize: 0x17C }
  - { offset: 0xDAA6, size: 0x8, addend: 0x0, symName: '__ZN71_$LT$serde_yaml..de..MapAccess$u20$as$u20$serde_core..de..MapAccess$GT$15next_value_seed17hdaeff4fe045eba87E', symObjAddr: 0x41F8, symBinAddr: 0x8C60, symSize: 0x17C }
  - { offset: 0xDB21, size: 0x8, addend: 0x0, symName: '__ZN71_$LT$serde_yaml..de..MapAccess$u20$as$u20$serde_core..de..MapAccess$GT$15next_value_seed17hee6c3b883cb69949E', symObjAddr: 0x4374, symBinAddr: 0x8DDC, symSize: 0x17C }
  - { offset: 0xDBA1, size: 0x8, addend: 0x0, symName: '__ZN71_$LT$serde_yaml..de..MapAccess$u20$as$u20$serde_core..de..MapAccess$GT$15next_value_seed28_$u7b$$u7b$closure$u7d$$u7d$17h15ad4ca6c97ed6ccE', symObjAddr: 0x44F0, symBinAddr: 0x8F58, symSize: 0x38 }
  - { offset: 0xDBE3, size: 0x8, addend: 0x0, symName: '__ZN71_$LT$serde_yaml..de..MapAccess$u20$as$u20$serde_core..de..MapAccess$GT$15next_value_seed28_$u7b$$u7b$closure$u7d$$u7d$17h3d9c7c5568ea6b33E', symObjAddr: 0x4528, symBinAddr: 0x8F90, symSize: 0x38 }
  - { offset: 0xDC25, size: 0x8, addend: 0x0, symName: '__ZN71_$LT$serde_yaml..de..MapAccess$u20$as$u20$serde_core..de..MapAccess$GT$15next_value_seed28_$u7b$$u7b$closure$u7d$$u7d$17h7f9515f7ab41e662E', symObjAddr: 0x4560, symBinAddr: 0x8FC8, symSize: 0x38 }
  - { offset: 0xDC67, size: 0x8, addend: 0x0, symName: '__ZN71_$LT$serde_yaml..de..MapAccess$u20$as$u20$serde_core..de..MapAccess$GT$15next_value_seed28_$u7b$$u7b$closure$u7d$$u7d$17h84088c0c9a835171E', symObjAddr: 0x4598, symBinAddr: 0x9000, symSize: 0x38 }
  - { offset: 0xDCA9, size: 0x8, addend: 0x0, symName: '__ZN71_$LT$serde_yaml..de..MapAccess$u20$as$u20$serde_core..de..MapAccess$GT$15next_value_seed28_$u7b$$u7b$closure$u7d$$u7d$17h9616c2dea40748e0E', symObjAddr: 0x45D0, symBinAddr: 0x9038, symSize: 0x38 }
  - { offset: 0xDCEB, size: 0x8, addend: 0x0, symName: '__ZN71_$LT$serde_yaml..de..MapAccess$u20$as$u20$serde_core..de..MapAccess$GT$15next_value_seed28_$u7b$$u7b$closure$u7d$$u7d$17h986900d1df8ad176E', symObjAddr: 0x4608, symBinAddr: 0x9070, symSize: 0x38 }
  - { offset: 0xDD2D, size: 0x8, addend: 0x0, symName: '__ZN71_$LT$serde_yaml..de..MapAccess$u20$as$u20$serde_core..de..MapAccess$GT$15next_value_seed28_$u7b$$u7b$closure$u7d$$u7d$17hc0eac96915d9dfd1E', symObjAddr: 0x4640, symBinAddr: 0x90A8, symSize: 0x38 }
  - { offset: 0xDDA7, size: 0x8, addend: 0x0, symName: '__ZN71_$LT$serde_yaml..de..SeqAccess$u20$as$u20$serde_core..de..SeqAccess$GT$17next_element_seed17h796672b05660080cE', symObjAddr: 0x4678, symBinAddr: 0x90E0, symSize: 0x258 }
  - { offset: 0xDE20, size: 0x8, addend: 0x0, symName: '__ZN73_$LT$serde_yaml..de..EnumAccess$u20$as$u20$serde_core..de..EnumAccess$GT$12variant_seed17h5d555eb2e23aae33E', symObjAddr: 0x48D0, symBinAddr: 0x9338, symSize: 0x1B0 }
  - { offset: 0xDED1, size: 0x8, addend: 0x0, symName: '__ZN73_$LT$serde_yaml..de..EnumAccess$u20$as$u20$serde_core..de..EnumAccess$GT$12variant_seed17hae0b75d779496d91E', symObjAddr: 0x4A80, symBinAddr: 0x94E8, symSize: 0x1BC }
  - { offset: 0xDF88, size: 0x8, addend: 0x0, symName: '__ZN80_$LT$serde_yaml..de..UnitVariantAccess$u20$as$u20$serde_core..de..EnumAccess$GT$12variant_seed17h8d5f17adda44f1a0E', symObjAddr: 0x4D04, symBinAddr: 0x976C, symSize: 0x90 }
  - { offset: 0xDFEC, size: 0x8, addend: 0x0, symName: '__ZN80_$LT$serde_yaml..de..UnitVariantAccess$u20$as$u20$serde_core..de..EnumAccess$GT$12variant_seed17h9e55525ac877982cE', symObjAddr: 0x4D94, symBinAddr: 0x97FC, symSize: 0x84 }
  - { offset: 0xE056, size: 0x8, addend: 0x0, symName: '__ZN99_$LT$$RF$mut$u20$serde_yaml..de..DeserializerFromEvents$u20$as$u20$serde_core..de..Deserializer$GT$15deserialize_any17ha42b931a19563461E', symObjAddr: 0x4E18, symBinAddr: 0x9880, symSize: 0x5BC }
  - { offset: 0xE1CE, size: 0x8, addend: 0x0, symName: '__ZN99_$LT$$RF$mut$u20$serde_yaml..de..DeserializerFromEvents$u20$as$u20$serde_core..de..Deserializer$GT$15deserialize_any28_$u7b$$u7b$closure$u7d$$u7d$17h96e0008d5c58271fE', symObjAddr: 0x53D4, symBinAddr: 0x9E3C, symSize: 0x68 }
  - { offset: 0xE22A, size: 0x8, addend: 0x0, symName: '__ZN99_$LT$$RF$mut$u20$serde_yaml..de..DeserializerFromEvents$u20$as$u20$serde_core..de..Deserializer$GT$15deserialize_map17hc52247786354582fE', symObjAddr: 0x543C, symBinAddr: 0x9EA4, symSize: 0x384 }
  - { offset: 0xE32A, size: 0x8, addend: 0x0, symName: '__ZN99_$LT$$RF$mut$u20$serde_yaml..de..DeserializerFromEvents$u20$as$u20$serde_core..de..Deserializer$GT$15deserialize_map17hedc7c0134a116a82E', symObjAddr: 0x57C0, symBinAddr: 0xA228, symSize: 0x38C }
  - { offset: 0xE42F, size: 0x8, addend: 0x0, symName: '__ZN99_$LT$$RF$mut$u20$serde_yaml..de..DeserializerFromEvents$u20$as$u20$serde_core..de..Deserializer$GT$15deserialize_map28_$u7b$$u7b$closure$u7d$$u7d$17h567e77c9759bc30fE', symObjAddr: 0x5B4C, symBinAddr: 0xA5B4, symSize: 0x68 }
  - { offset: 0xE48A, size: 0x8, addend: 0x0, symName: '__ZN99_$LT$$RF$mut$u20$serde_yaml..de..DeserializerFromEvents$u20$as$u20$serde_core..de..Deserializer$GT$15deserialize_map28_$u7b$$u7b$closure$u7d$$u7d$17h70eeb8e68925e0e3E', symObjAddr: 0x5BB4, symBinAddr: 0xA61C, symSize: 0x68 }
  - { offset: 0xE4E6, size: 0x8, addend: 0x0, symName: '__ZN99_$LT$$RF$mut$u20$serde_yaml..de..DeserializerFromEvents$u20$as$u20$serde_core..de..Deserializer$GT$15deserialize_str17h13a4c5b877b12c09E', symObjAddr: 0x5C1C, symBinAddr: 0xA684, symSize: 0x368 }
  - { offset: 0xE612, size: 0x8, addend: 0x0, symName: '__ZN99_$LT$$RF$mut$u20$serde_yaml..de..DeserializerFromEvents$u20$as$u20$serde_core..de..Deserializer$GT$15deserialize_str17h7401e6753041c283E', symObjAddr: 0x5F84, symBinAddr: 0xA9EC, symSize: 0x368 }
  - { offset: 0xE73E, size: 0x8, addend: 0x0, symName: '__ZN99_$LT$$RF$mut$u20$serde_yaml..de..DeserializerFromEvents$u20$as$u20$serde_core..de..Deserializer$GT$15deserialize_str17had675f13d99a0a9dE', symObjAddr: 0x62EC, symBinAddr: 0xAD54, symSize: 0x368 }
  - { offset: 0xE86A, size: 0x8, addend: 0x0, symName: '__ZN99_$LT$$RF$mut$u20$serde_yaml..de..DeserializerFromEvents$u20$as$u20$serde_core..de..Deserializer$GT$15deserialize_str17haeb1b417c90e6d17E', symObjAddr: 0x6654, symBinAddr: 0xB0BC, symSize: 0x368 }
  - { offset: 0xE996, size: 0x8, addend: 0x0, symName: '__ZN99_$LT$$RF$mut$u20$serde_yaml..de..DeserializerFromEvents$u20$as$u20$serde_core..de..Deserializer$GT$15deserialize_str17hd79c79edbdc1e3bfE', symObjAddr: 0x69BC, symBinAddr: 0xB424, symSize: 0x368 }
  - { offset: 0xEAC7, size: 0x8, addend: 0x0, symName: '__ZN99_$LT$$RF$mut$u20$serde_yaml..de..DeserializerFromEvents$u20$as$u20$serde_core..de..Deserializer$GT$15deserialize_str28_$u7b$$u7b$closure$u7d$$u7d$17h0081149099fc66a5E', symObjAddr: 0x6D24, symBinAddr: 0xB78C, symSize: 0x68 }
  - { offset: 0xEB22, size: 0x8, addend: 0x0, symName: '__ZN99_$LT$$RF$mut$u20$serde_yaml..de..DeserializerFromEvents$u20$as$u20$serde_core..de..Deserializer$GT$15deserialize_str28_$u7b$$u7b$closure$u7d$$u7d$17h0a09dd69ea2414e6E', symObjAddr: 0x6D8C, symBinAddr: 0xB7F4, symSize: 0x68 }
  - { offset: 0xEB7D, size: 0x8, addend: 0x0, symName: '__ZN99_$LT$$RF$mut$u20$serde_yaml..de..DeserializerFromEvents$u20$as$u20$serde_core..de..Deserializer$GT$15deserialize_str28_$u7b$$u7b$closure$u7d$$u7d$17h65966b7695452496E', symObjAddr: 0x6DF4, symBinAddr: 0xB85C, symSize: 0x68 }
  - { offset: 0xEBD8, size: 0x8, addend: 0x0, symName: '__ZN99_$LT$$RF$mut$u20$serde_yaml..de..DeserializerFromEvents$u20$as$u20$serde_core..de..Deserializer$GT$15deserialize_str28_$u7b$$u7b$closure$u7d$$u7d$17h967ca4d99b70f864E', symObjAddr: 0x6E5C, symBinAddr: 0xB8C4, symSize: 0x68 }
  - { offset: 0xEC33, size: 0x8, addend: 0x0, symName: '__ZN99_$LT$$RF$mut$u20$serde_yaml..de..DeserializerFromEvents$u20$as$u20$serde_core..de..Deserializer$GT$15deserialize_str28_$u7b$$u7b$closure$u7d$$u7d$17hae349ee5f6552ad3E', symObjAddr: 0x6EC4, symBinAddr: 0xB92C, symSize: 0x68 }
  - { offset: 0xEC8F, size: 0x8, addend: 0x0, symName: '__ZN99_$LT$$RF$mut$u20$serde_yaml..de..DeserializerFromEvents$u20$as$u20$serde_core..de..Deserializer$GT$15deserialize_u6417hc4463a4c4d54acd8E', symObjAddr: 0x6F2C, symBinAddr: 0xB994, symSize: 0x3C4 }
  - { offset: 0xEDE8, size: 0x8, addend: 0x0, symName: '__ZN99_$LT$$RF$mut$u20$serde_yaml..de..DeserializerFromEvents$u20$as$u20$serde_core..de..Deserializer$GT$15deserialize_u6428_$u7b$$u7b$closure$u7d$$u7d$17h89b292df45e71bdeE', symObjAddr: 0x72F0, symBinAddr: 0xBD58, symSize: 0x68 }
  - { offset: 0xEE44, size: 0x8, addend: 0x0, symName: '__ZN99_$LT$$RF$mut$u20$serde_yaml..de..DeserializerFromEvents$u20$as$u20$serde_core..de..Deserializer$GT$16deserialize_bool17hfb7510c8051fc02eE', symObjAddr: 0x7358, symBinAddr: 0xBDC0, symSize: 0x34C }
  - { offset: 0xEF9D, size: 0x8, addend: 0x0, symName: '__ZN99_$LT$$RF$mut$u20$serde_yaml..de..DeserializerFromEvents$u20$as$u20$serde_core..de..Deserializer$GT$16deserialize_bool28_$u7b$$u7b$closure$u7d$$u7d$17hfffa60e7c34aa162E', symObjAddr: 0x76A4, symBinAddr: 0xC10C, symSize: 0x68 }
  - { offset: 0xEFF9, size: 0x8, addend: 0x0, symName: '__ZN99_$LT$$RF$mut$u20$serde_yaml..de..DeserializerFromEvents$u20$as$u20$serde_core..de..Deserializer$GT$16deserialize_enum17h02685a45033db67bE', symObjAddr: 0x770C, symBinAddr: 0xC174, symSize: 0x820 }
  - { offset: 0xF2B9, size: 0x8, addend: 0x0, symName: '__ZN99_$LT$$RF$mut$u20$serde_yaml..de..DeserializerFromEvents$u20$as$u20$serde_core..de..Deserializer$GT$16deserialize_enum17h02a43afa03621d73E', symObjAddr: 0x7F2C, symBinAddr: 0xC994, symSize: 0x820 }
  - { offset: 0xF57E, size: 0x8, addend: 0x0, symName: '__ZN99_$LT$$RF$mut$u20$serde_yaml..de..DeserializerFromEvents$u20$as$u20$serde_core..de..Deserializer$GT$16deserialize_enum28_$u7b$$u7b$closure$u7d$$u7d$17h8499566d89476abdE', symObjAddr: 0x874C, symBinAddr: 0xD1B4, symSize: 0x68 }
  - { offset: 0xF5D9, size: 0x8, addend: 0x0, symName: '__ZN99_$LT$$RF$mut$u20$serde_yaml..de..DeserializerFromEvents$u20$as$u20$serde_core..de..Deserializer$GT$16deserialize_enum28_$u7b$$u7b$closure$u7d$$u7d$17hd35f4c68a80bc12dE', symObjAddr: 0x87B4, symBinAddr: 0xD21C, symSize: 0x68 }
  - { offset: 0xF635, size: 0x8, addend: 0x0, symName: '__ZN99_$LT$$RF$mut$u20$serde_yaml..de..DeserializerFromEvents$u20$as$u20$serde_core..de..Deserializer$GT$18deserialize_option17h8b68962b25e2b9faE', symObjAddr: 0x881C, symBinAddr: 0xD284, symSize: 0x5AC }
  - { offset: 0xF74F, size: 0x8, addend: 0x0, symName: '__ZN99_$LT$$RF$mut$u20$serde_yaml..de..DeserializerFromEvents$u20$as$u20$serde_core..de..Deserializer$GT$18deserialize_string17h8ca337495b33cca9E', symObjAddr: 0x8DC8, symBinAddr: 0xD830, symSize: 0x24 }
  - { offset: 0xF795, size: 0x8, addend: 0x0, symName: '__ZN99_$LT$$RF$mut$u20$serde_yaml..de..DeserializerFromEvents$u20$as$u20$serde_core..de..Deserializer$GT$18deserialize_struct17he4acf4921625ce52E', symObjAddr: 0x8DEC, symBinAddr: 0xD854, symSize: 0x34 }
  - { offset: 0xF7F9, size: 0x8, addend: 0x0, symName: '__ZN99_$LT$$RF$mut$u20$serde_yaml..de..DeserializerFromEvents$u20$as$u20$serde_core..de..Deserializer$GT$22deserialize_identifier17h797fc45948816bf4E', symObjAddr: 0x8E20, symBinAddr: 0xD888, symSize: 0x24 }
  - { offset: 0xF83F, size: 0x8, addend: 0x0, symName: '__ZN99_$LT$$RF$mut$u20$serde_yaml..de..DeserializerFromEvents$u20$as$u20$serde_core..de..Deserializer$GT$22deserialize_identifier17hb71d9ca340ef11e9E', symObjAddr: 0x8E44, symBinAddr: 0xD8AC, symSize: 0x24 }
  - { offset: 0xF885, size: 0x8, addend: 0x0, symName: '__ZN99_$LT$$RF$mut$u20$serde_yaml..de..DeserializerFromEvents$u20$as$u20$serde_core..de..Deserializer$GT$22deserialize_identifier17he710c92ba77c3e2eE', symObjAddr: 0x8E68, symBinAddr: 0xD8D0, symSize: 0x24 }
  - { offset: 0xF8CB, size: 0x8, addend: 0x0, symName: '__ZN99_$LT$$RF$mut$u20$serde_yaml..de..DeserializerFromEvents$u20$as$u20$serde_core..de..Deserializer$GT$22deserialize_identifier17heeeeb074093042e3E', symObjAddr: 0x8E8C, symBinAddr: 0xD8F4, symSize: 0x24 }
  - { offset: 0x10BFD, size: 0x8, addend: 0x0, symName: __ZN10serde_yaml2de12Deserializer2de17hd1767db6687568a6E, symObjAddr: 0x3F8, symBinAddr: 0x4E60, symSize: 0x934 }
  - { offset: 0x10DFD, size: 0x8, addend: 0x0, symName: __ZN10serde_yaml2de12Deserializer2de17hf8c426c271158d4aE, symObjAddr: 0xD2C, symBinAddr: 0x5794, symSize: 0x944 }
  - { offset: 0x10FF0, size: 0x8, addend: 0x0, symName: __ZN10serde_yaml2de22DeserializerFromEvents13visit_mapping17h87442540f383cddfE, symObjAddr: 0x1FCC, symBinAddr: 0x6A34, symSize: 0x188 }
  - { offset: 0x110A0, size: 0x8, addend: 0x0, symName: __ZN10serde_yaml2de22DeserializerFromEvents13visit_mapping17hd1f977f448e1c111E, symObjAddr: 0x2154, symBinAddr: 0x6BBC, symSize: 0x18C }
  - { offset: 0x11150, size: 0x8, addend: 0x0, symName: __ZN10serde_yaml2de22DeserializerFromEvents13visit_mapping17hf0d3e7a07d872511E, symObjAddr: 0x22E0, symBinAddr: 0x6D48, symSize: 0x174 }
  - { offset: 0x111FF, size: 0x8, addend: 0x0, symName: __ZN10serde_yaml2de22DeserializerFromEvents14visit_sequence17hc68c7ccebac360b2E, symObjAddr: 0x272C, symBinAddr: 0x7194, symSize: 0x174 }
  - { offset: 0x112CC, size: 0x8, addend: 0x0, symName: __ZN10serde_yaml2de22DeserializerFromEvents15recursion_check17h093834ba69390319E, symObjAddr: 0x296C, symBinAddr: 0x73D4, symSize: 0x144 }
  - { offset: 0x11373, size: 0x8, addend: 0x0, symName: __ZN10serde_yaml2de22DeserializerFromEvents15recursion_check17h4ef49f30f69b4d18E, symObjAddr: 0x2AB0, symBinAddr: 0x7518, symSize: 0x144 }
  - { offset: 0x1141A, size: 0x8, addend: 0x0, symName: __ZN10serde_yaml2de22DeserializerFromEvents15recursion_check17had7680392d584edbE, symObjAddr: 0x2BF4, symBinAddr: 0x765C, symSize: 0x144 }
  - { offset: 0x114A3, size: 0x8, addend: 0x0, symName: __ZN10serde_yaml2de22DeserializerFromEvents15recursion_check17he3bc60a9f0bf1f39E, symObjAddr: 0x2D38, symBinAddr: 0x77A0, symSize: 0x144 }
  - { offset: 0x11743, size: 0x8, addend: 0x0, symName: __ZN4core9core_arch7aarch644neon9generated7vld1_u817h8887e9ff72a836f1E, symObjAddr: 0x0, symBinAddr: 0xD918, symSize: 0x34 }
  - { offset: 0x11769, size: 0x8, addend: 0x0, symName: __ZN4core9core_arch7aarch644neon9generated7vld1_u817h8887e9ff72a836f1E, symObjAddr: 0x0, symBinAddr: 0xD918, symSize: 0x34 }
  - { offset: 0x11797, size: 0x8, addend: 0x0, symName: __ZN4core9core_arch7aarch644neon9generated7vst1_u817h69e11e84cc10db2eE, symObjAddr: 0x34, symBinAddr: 0xD94C, symSize: 0x40 }
  - { offset: 0x117D1, size: 0x8, addend: 0x0, symName: __ZN4core9core_arch7aarch644neon9generated8vcgez_s817h510b617920b52a79E, symObjAddr: 0x74, symBinAddr: 0xD98C, symSize: 0x68 }
  - { offset: 0x11873, size: 0x8, addend: 0x0, symName: __ZN4core9core_arch7aarch644neon9generated8vcltz_s817h684f7a30db40fee2E, symObjAddr: 0xDC, symBinAddr: 0xD9F4, symSize: 0x68 }
  - { offset: 0x11A69, size: 0x8, addend: 0x0, symName: '__ZN108_$LT$core..iter..adapters..filter..Filter$LT$I$C$P$GT$$u20$as$u20$core..iter..traits..iterator..Iterator$GT$4next17h0a1d3111ee4b7e22E', symObjAddr: 0x0, symBinAddr: 0xDA5C, symSize: 0x2C }
  - { offset: 0x11B22, size: 0x8, addend: 0x0, symName: '__ZN108_$LT$core..iter..adapters..filter..Filter$LT$I$C$P$GT$$u20$as$u20$core..iter..traits..iterator..Iterator$GT$4next17h0a1d3111ee4b7e22E', symObjAddr: 0x0, symBinAddr: 0xDA5C, symSize: 0x2C }
  - { offset: 0x11B60, size: 0x8, addend: 0x0, symName: '__ZN108_$LT$core..iter..adapters..filter..Filter$LT$I$C$P$GT$$u20$as$u20$core..iter..traits..iterator..Iterator$GT$4next17hfd11a5b8d5be6150E', symObjAddr: 0x2C, symBinAddr: 0xDA88, symSize: 0x2C }
  - { offset: 0x11C16, size: 0x8, addend: 0x0, symName: '__ZN63_$LT$I$u20$as$u20$core..iter..traits..collect..IntoIterator$GT$9into_iter17h28c8bed132612c25E', symObjAddr: 0x58, symBinAddr: 0xDAB4, symSize: 0x1C }
  - { offset: 0x11C4D, size: 0x8, addend: 0x0, symName: '__ZN63_$LT$I$u20$as$u20$core..iter..traits..collect..IntoIterator$GT$9into_iter17h6658c6b3a7009042E', symObjAddr: 0x74, symBinAddr: 0xDAD0, symSize: 0x1C }
  - { offset: 0x11DCD, size: 0x8, addend: 0x0, symName: __ZN9hashbrown3raw13RawTableInner13drop_elements17h221ffd2152a7808eE, symObjAddr: 0x0, symBinAddr: 0xDAEC, symSize: 0x154 }
  - { offset: 0x11E09, size: 0x8, addend: 0x0, symName: '__ZN9hashbrown3raw21RawTable$LT$T$C$A$GT$14reserve_rehash28_$u7b$$u7b$closure$u7d$$u7d$17h308ea20ae290b32dE', symObjAddr: 0xD48, symBinAddr: 0xE0A4, symSize: 0x30 }
  - { offset: 0x11E59, size: 0x8, addend: 0x0, symName: '__ZN9hashbrown3raw21RawTable$LT$T$C$A$GT$14reserve_rehash28_$u7b$$u7b$closure$u7d$$u7d$17hd407f3cbfa916d74E', symObjAddr: 0xD78, symBinAddr: 0xE0D4, symSize: 0xB8 }
  - { offset: 0x12023, size: 0x8, addend: 0x0, symName: '__ZN9hashbrown3raw21RawTable$LT$T$C$A$GT$4find28_$u7b$$u7b$closure$u7d$$u7d$17hd141235cf9b62246E', symObjAddr: 0x1144, symBinAddr: 0xE4A0, symSize: 0xBC }
  - { offset: 0x14601, size: 0x8, addend: 0x0, symName: __ZN9hashbrown3raw13RawTableInner13drop_elements17h221ffd2152a7808eE, symObjAddr: 0x0, symBinAddr: 0xDAEC, symSize: 0x154 }
  - { offset: 0x1498B, size: 0x8, addend: 0x0, symName: __ZN9hashbrown3raw13RawTableInner16drop_inner_table17h8c8b186e2bd403bfE, symObjAddr: 0x154, symBinAddr: 0xDC40, symSize: 0xB0 }
  - { offset: 0x14CA9, size: 0x8, addend: 0x0, symName: '__ZN9hashbrown3raw21RawIterRange$LT$T$GT$3new17h728e194f9460d421E', symObjAddr: 0x204, symBinAddr: 0xDCF0, symSize: 0xA4 }
  - { offset: 0x14F7B, size: 0x8, addend: 0x0, symName: '__ZN9hashbrown3raw21RawIterRange$LT$T$GT$9next_impl17hc80f043506fae747E', symObjAddr: 0x2A8, symBinAddr: 0xDD94, symSize: 0x1C0 }
  - { offset: 0x15405, size: 0x8, addend: 0x0, symName: '__ZN9hashbrown3raw21RawTable$LT$T$C$A$GT$14insert_no_grow17h680019e1989ec7e3E', symObjAddr: 0x468, symBinAddr: 0xDF54, symSize: 0x150 }
  - { offset: 0x15AA8, size: 0x8, addend: 0x0, symName: '__ZN9hashbrown3raw21RawTable$LT$T$C$A$GT$14reserve_rehash17h8d69c0c0c0432c92E', symObjAddr: 0x5B8, symBinAddr: 0xD62E8, symSize: 0x790 }
  - { offset: 0x1670B, size: 0x8, addend: 0x0, symName: '__ZN9hashbrown3raw21RawTable$LT$T$C$A$GT$4find17h5c486280e63c60efE', symObjAddr: 0xE30, symBinAddr: 0xE18C, symSize: 0x314 }
  - { offset: 0x16D2E, size: 0x8, addend: 0x0, symName: '__ZN9hashbrown3raw21RawTable$LT$T$C$A$GT$7reserve17hed8b3802302162a6E', symObjAddr: 0x1200, symBinAddr: 0xE55C, symSize: 0xB0 }
  - { offset: 0x16E13, size: 0x8, addend: 0x0, symName: __ZN4core3fmt2rt8Argument11new_display17h9002891d48829914E, symObjAddr: 0x0, symBinAddr: 0xE60C, symSize: 0x2C }
  - { offset: 0x176B6, size: 0x8, addend: 0x0, symName: __ZN4core3fmt2rt8Argument11new_display17h9002891d48829914E, symObjAddr: 0x0, symBinAddr: 0xE60C, symSize: 0x2C }
  - { offset: 0x17BF2, size: 0x8, addend: 0x0, symName: __ZN4core3fmt2rt8Argument11new_display17hb05c3725b74bd616E, symObjAddr: 0x2C, symBinAddr: 0xE638, symSize: 0x2C }
  - { offset: 0x17C37, size: 0x8, addend: 0x0, symName: __ZN4core3fmt2rt8Argument11new_display17hb23e228386e6a8dbE, symObjAddr: 0x58, symBinAddr: 0xE664, symSize: 0x2C }
  - { offset: 0x17C80, size: 0x8, addend: 0x0, symName: '__ZN10serde_core2de5impls79_$LT$impl$u20$serde_core..de..Deserialize$u20$for$u20$alloc..string..String$GT$11deserialize17h3f2df38b99798840E', symObjAddr: 0x0, symBinAddr: 0xE690, symSize: 0x24 }
  - { offset: 0x185B0, size: 0x8, addend: 0x0, symName: '__ZN10serde_core2de5impls79_$LT$impl$u20$serde_core..de..Deserialize$u20$for$u20$alloc..string..String$GT$11deserialize17h3f2df38b99798840E', symObjAddr: 0x0, symBinAddr: 0xE690, symSize: 0x24 }
  - { offset: 0x185E7, size: 0x8, addend: 0x0, symName: '__ZN10serde_core2de5impls79_$LT$impl$u20$serde_core..de..Deserialize$u20$for$u20$alloc..string..String$GT$11deserialize17h45ffc62adcb3e9cdE', symObjAddr: 0x24, symBinAddr: 0xE6B4, symSize: 0x28 }
  - { offset: 0x1861E, size: 0x8, addend: 0x0, symName: '__ZN10serde_core2de5impls79_$LT$impl$u20$serde_core..de..Deserialize$u20$for$u20$alloc..string..String$GT$11deserialize17h7a2a10e7f63b08a7E', symObjAddr: 0x4C, symBinAddr: 0xE6DC, symSize: 0x24 }
  - { offset: 0x18655, size: 0x8, addend: 0x0, symName: '__ZN10serde_core2de5impls79_$LT$impl$u20$serde_core..de..Deserialize$u20$for$u20$alloc..string..String$GT$11deserialize17hda14ee4200de209dE', symObjAddr: 0x70, symBinAddr: 0xE700, symSize: 0x14 }
  - { offset: 0x189AA, size: 0x8, addend: 0x0, symName: '__ZN4core5slice29_$LT$impl$u20$$u5b$T$u5d$$GT$8is_empty17heb404be697611228E', symObjAddr: 0x84, symBinAddr: 0xE714, symSize: 0x1C }
  - { offset: 0x19908, size: 0x8, addend: 0x0, symName: __ZN4pyo35impl_4wrap19map_result_into_ptr17h59f4963646f31821E, symObjAddr: 0x0, symBinAddr: 0xE730, symSize: 0x20 }
  - { offset: 0x1998B, size: 0x8, addend: 0x0, symName: __ZN4pyo35impl_4wrap19map_result_into_ptr17h59f4963646f31821E, symObjAddr: 0x0, symBinAddr: 0xE730, symSize: 0x20 }
  - { offset: 0x199DA, size: 0x8, addend: 0x0, symName: __ZN4pyo35impl_4wrap19map_result_into_ptr17hbaad1ff0c50c1cddE, symObjAddr: 0x20, symBinAddr: 0xE750, symSize: 0x20 }
  - { offset: 0x19A2E, size: 0x8, addend: 0x0, symName: '__ZN4pyo35impl_4wrap19map_result_into_ptr28_$u7b$$u7b$closure$u7d$$u7d$17h3ff5bc5e2a36f24eE', symObjAddr: 0x40, symBinAddr: 0xE770, symSize: 0x3C }
  - { offset: 0x19A7C, size: 0x8, addend: 0x0, symName: '__ZN4pyo35impl_4wrap19map_result_into_ptr28_$u7b$$u7b$closure$u7d$$u7d$17hf895fe96796c39aeE', symObjAddr: 0x7C, symBinAddr: 0xE7AC, symSize: 0x2C }
  - { offset: 0x19AF7, size: 0x8, addend: 0x0, symName: '__ZN56_$LT$T$u20$as$u20$pyo3..impl_..wrap..OkWrap$LT$T$GT$$GT$4wrap17he2f4ea31d57fbd9eE', symObjAddr: 0xA8, symBinAddr: 0xE7D8, symSize: 0x18 }
  - { offset: 0x1A463, size: 0x8, addend: 0x0, symName: '__ZN13cli_generator9build_url28_$u7b$$u7b$closure$u7d$$u7d$17h22fecf721de99686E', symObjAddr: 0x0, symBinAddr: 0xE7F0, symSize: 0x74 }
  - { offset: 0x1AAE6, size: 0x8, addend: 0x0, symName: '__ZN13cli_generator9build_url28_$u7b$$u7b$closure$u7d$$u7d$17h22fecf721de99686E', symObjAddr: 0x0, symBinAddr: 0xE7F0, symSize: 0x74 }
  - { offset: 0x1AB1C, size: 0x8, addend: 0x0, symName: '__ZN13cli_generator9build_url28_$u7b$$u7b$closure$u7d$$u7d$17h51203b8237b319faE', symObjAddr: 0x74, symBinAddr: 0xE864, symSize: 0x74 }
  - { offset: 0x1B661, size: 0x8, addend: 0x0, symName: '__ZN102_$LT$core..iter..adapters..map..Map$LT$I$C$F$GT$$u20$as$u20$core..iter..traits..iterator..Iterator$GT$4fold17h755fc513be827f6bE', symObjAddr: 0x0, symBinAddr: 0xE8D8, symSize: 0x44 }
  - { offset: 0x1B6F9, size: 0x8, addend: 0x0, symName: '__ZN4core4iter8adapters3map8map_fold28_$u7b$$u7b$closure$u7d$$u7d$17h1697740b235305bcE', symObjAddr: 0xD8, symBinAddr: 0xE9B0, symSize: 0x84 }
  - { offset: 0x1B784, size: 0x8, addend: 0x0, symName: '__ZN102_$LT$core..iter..adapters..map..Map$LT$I$C$F$GT$$u20$as$u20$core..iter..traits..iterator..Iterator$GT$4fold17h755fc513be827f6bE', symObjAddr: 0x0, symBinAddr: 0xE8D8, symSize: 0x44 }
  - { offset: 0x1B81C, size: 0x8, addend: 0x0, symName: '__ZN102_$LT$core..iter..adapters..map..Map$LT$I$C$F$GT$$u20$as$u20$core..iter..traits..iterator..Iterator$GT$9size_hint17h278f68ab99f7ceb1E', symObjAddr: 0x44, symBinAddr: 0xE91C, symSize: 0x24 }
  - { offset: 0x1B8F7, size: 0x8, addend: 0x0, symName: __ZN4core4iter6traits8iterator8Iterator7collect17hc6236bce57203d5eE, symObjAddr: 0x68, symBinAddr: 0xE940, symSize: 0x2C }
  - { offset: 0x1B937, size: 0x8, addend: 0x0, symName: __ZN4core4iter6traits8iterator8Iterator8for_each17h45dee9714a1f4721E, symObjAddr: 0x94, symBinAddr: 0xE96C, symSize: 0x44 }
  - { offset: 0x1B9AE, size: 0x8, addend: 0x0, symName: '__ZN63_$LT$I$u20$as$u20$core..iter..traits..collect..IntoIterator$GT$9into_iter17h45e0ce9e0838a820E', symObjAddr: 0x15C, symBinAddr: 0xEA34, symSize: 0x1C }
  - { offset: 0x1BEE0, size: 0x8, addend: 0x0, symName: __ZN13cli_generator13cli_generator17h13f7c58e43c551a6E, symObjAddr: 0x0, symBinAddr: 0xEA50, symSize: 0x274 }
  - { offset: 0x1C213, size: 0x8, addend: 0x0, symName: __ZN13cli_generator13cli_generator17h13f7c58e43c551a6E, symObjAddr: 0x0, symBinAddr: 0xEA50, symSize: 0x274 }
  - { offset: 0x1C366, size: 0x8, addend: 0x0, symName: __ZN13cli_generator20__pyfunction_version17ha51fe216ed960cadE, symObjAddr: 0x274, symBinAddr: 0xECC4, symSize: 0x54 }
  - { offset: 0x1C402, size: 0x8, addend: 0x0, symName: __ZN13cli_generator22__pyfunction_build_url17h6da70ba25cb09ba4E, symObjAddr: 0x2C8, symBinAddr: 0xED18, symSize: 0x7FC }
  - { offset: 0x1C66E, size: 0x8, addend: 0x0, symName: '__ZN13cli_generator49_$LT$impl$u20$cli_generator..version..MakeDef$GT$9_PYO3_DEF10trampoline17h081f53bb595908e7E', symObjAddr: 0xAC4, symBinAddr: 0xF514, symSize: 0x44 }
  - { offset: 0x1C6B4, size: 0x8, addend: 0x0, symName: '__ZN13cli_generator51_$LT$impl$u20$cli_generator..build_url..MakeDef$GT$9_PYO3_DEF10trampoline17h3a91e7b04c9dcba1E', symObjAddr: 0xB08, symBinAddr: 0xF558, symSize: 0x4C }
  - { offset: 0x1C708, size: 0x8, addend: 0x0, symName: '__ZN13cli_generator55_$LT$impl$u20$cli_generator..cli_generator..MakeDef$GT$8make_def15__pyo3_pymodule17h212019698110a5adE', symObjAddr: 0xB54, symBinAddr: 0xF5A4, symSize: 0x38 }
  - { offset: 0x1C736, size: 0x8, addend: 0x0, symName: __ZN13cli_generator7version17hfa034aa4319bc5b3E, symObjAddr: 0xB8C, symBinAddr: 0xF5DC, symSize: 0x14 }
  - { offset: 0x1C753, size: 0x8, addend: 0x0, symName: __ZN13cli_generator9build_url17he3c498fc3b7fe27aE, symObjAddr: 0xBA0, symBinAddr: 0xF5F0, symSize: 0x270 }
  - { offset: 0x1D82F, size: 0x8, addend: 0x0, symName: '__ZN4core3ptr8non_null16NonNull$LT$T$GT$13new_unchecked18precondition_check17h50c7f66548c1153bE', symObjAddr: 0x0, symBinAddr: 0xF860, symSize: 0xA4 }
  - { offset: 0x1DAB1, size: 0x8, addend: 0x0, symName: '__ZN4core3ptr8non_null16NonNull$LT$T$GT$13new_unchecked18precondition_check17h50c7f66548c1153bE', symObjAddr: 0x0, symBinAddr: 0xF860, symSize: 0xA4 }
  - { offset: 0x1DD5E, size: 0x8, addend: 0x0, symName: __ZN10serde_core2de7Visitor12visit_string17h06be0516c355cdfaE, symObjAddr: 0x0, symBinAddr: 0xF904, symSize: 0x98 }
  - { offset: 0x1DEB4, size: 0x8, addend: 0x0, symName: '__ZN213_$LT$cli_generator..core..query..attributes.._..$LT$impl$u20$serde_core..de..Deserialize$u20$for$u20$cli_generator..core..query..attributes..Field$GT$..deserialize..__Visitor$u20$as$u20$serde_core..de..Visitor$GT$9visit_map17h4fc3643c8964b328E', symObjAddr: 0xC30, symBinAddr: 0x10534, symSize: 0x650 }
  - { offset: 0x1E045, size: 0x8, addend: 0x0, symName: '__ZN213_$LT$cli_generator..core..query..attributes.._..$LT$impl$u20$serde_core..de..Deserialize$u20$for$u20$cli_generator..core..query..attributes..Field$GT$..deserialize..__Visitor$u20$as$u20$serde_core..de..Visitor$GT$9visit_seq17h7bfdd0d93cd868d4E', symObjAddr: 0x1280, symBinAddr: 0x10B84, symSize: 0x270 }
  - { offset: 0x1E134, size: 0x8, addend: 0x0, symName: '__ZN216_$LT$cli_generator..core..query..attributes.._..$LT$impl$u20$serde_core..de..Deserialize$u20$for$u20$cli_generator..core..query..attributes..Modifier$GT$..deserialize..__Visitor$u20$as$u20$serde_core..de..Visitor$GT$10visit_enum17hcb6a79b10d151581E', symObjAddr: 0x1504, symBinAddr: 0x10E08, symSize: 0x5C0 }
  - { offset: 0x1E40D, size: 0x8, addend: 0x0, symName: '__ZN217_$LT$cli_generator..core..query..attributes.._..$LT$impl$u20$serde_core..de..Deserialize$u20$for$u20$cli_generator..core..query..attributes..Attribute$GT$..deserialize..__Visitor$u20$as$u20$serde_core..de..Visitor$GT$9visit_map17h2cc840060769c1d6E', symObjAddr: 0x1AC4, symBinAddr: 0x113C8, symSize: 0x98C }
  - { offset: 0x1E666, size: 0x8, addend: 0x0, symName: '__ZN217_$LT$cli_generator..core..query..attributes.._..$LT$impl$u20$serde_core..de..Deserialize$u20$for$u20$cli_generator..core..query..attributes..Attribute$GT$..deserialize..__Visitor$u20$as$u20$serde_core..de..Visitor$GT$9visit_seq17hd3010e40cc2b18a3E', symObjAddr: 0x2450, symBinAddr: 0x11D54, symSize: 0x408 }
  - { offset: 0x1E7E8, size: 0x8, addend: 0x0, symName: '__ZN220_$LT$cli_generator..core..query..attributes.._..$LT$impl$u20$serde_core..de..Deserialize$u20$for$u20$cli_generator..core..query..attributes..AttributeSet$GT$..deserialize..__Visitor$u20$as$u20$serde_core..de..Visitor$GT$9visit_map17h1f0082ecab4e7fc0E', symObjAddr: 0x2AF4, symBinAddr: 0x123F8, symSize: 0x9E8 }
  - { offset: 0x1EA05, size: 0x8, addend: 0x0, symName: '__ZN225_$LT$cli_generator..core..query..attributes.._..$LT$impl$u20$serde_core..de..Deserialize$u20$for$u20$cli_generator..core..query..attributes..AttributeOperator$GT$..deserialize..__Visitor$u20$as$u20$serde_core..de..Visitor$GT$10visit_enum17h6213159d20238824E', symObjAddr: 0x4538, symBinAddr: 0x13E3C, symSize: 0x45C }
  - { offset: 0x1EC14, size: 0x8, addend: 0x0, symName: '__ZN215_$LT$cli_generator..core..query..attributes.._..$LT$impl$u20$serde_core..de..Deserialize$u20$for$u20$cli_generator..core..query..attributes..Field$GT$..deserialize..__Field$u20$as$u20$serde_core..de..Deserialize$GT$11deserialize17h08e58ce81edef3abE', symObjAddr: 0x14F0, symBinAddr: 0x10DF4, symSize: 0x14 }
  - { offset: 0x1EC4A, size: 0x8, addend: 0x0, symName: '__ZN218_$LT$cli_generator..core..query..attributes.._..$LT$impl$u20$serde_core..de..Deserialize$u20$for$u20$cli_generator..core..query..attributes..Modifier$GT$..deserialize..__Field$u20$as$u20$serde_core..de..Deserialize$GT$11deserialize17h4301de3d9fc5da19E', symObjAddr: 0x2ACC, symBinAddr: 0x123D0, symSize: 0x14 }
  - { offset: 0x1EC80, size: 0x8, addend: 0x0, symName: '__ZN219_$LT$cli_generator..core..query..attributes.._..$LT$impl$u20$serde_core..de..Deserialize$u20$for$u20$cli_generator..core..query..attributes..Attribute$GT$..deserialize..__Field$u20$as$u20$serde_core..de..Deserialize$GT$11deserialize17hd5bd671343a35741E', symObjAddr: 0x2AE0, symBinAddr: 0x123E4, symSize: 0x14 }
  - { offset: 0x1ECB6, size: 0x8, addend: 0x0, symName: '__ZN222_$LT$cli_generator..core..query..attributes.._..$LT$impl$u20$serde_core..de..Deserialize$u20$for$u20$cli_generator..core..query..attributes..AttributeSet$GT$..deserialize..__Field$u20$as$u20$serde_core..de..Deserialize$GT$11deserialize17he9665d30749452aeE', symObjAddr: 0x4524, symBinAddr: 0x13E28, symSize: 0x14 }
  - { offset: 0x1ECEC, size: 0x8, addend: 0x0, symName: '__ZN227_$LT$cli_generator..core..query..attributes.._..$LT$impl$u20$serde_core..de..Deserialize$u20$for$u20$cli_generator..core..query..attributes..AttributeOperator$GT$..deserialize..__Field$u20$as$u20$serde_core..de..Deserialize$GT$11deserialize17hc2cea2e4aaf21b86E', symObjAddr: 0x4E10, symBinAddr: 0x14714, symSize: 0x14 }
  - { offset: 0x1ED28, size: 0x8, addend: 0x0, symName: '__ZN218_$LT$cli_generator..core..query..attributes.._..$LT$impl$u20$serde_core..de..Deserialize$u20$for$u20$cli_generator..core..query..attributes..Field$GT$..deserialize..__FieldVisitor$u20$as$u20$serde_core..de..Visitor$GT$11visit_bytes17hff22d5dc42275f52E', symObjAddr: 0x2858, symBinAddr: 0x1215C, symSize: 0x164 }
  - { offset: 0x1ED76, size: 0x8, addend: 0x0, symName: '__ZN218_$LT$cli_generator..core..query..attributes.._..$LT$impl$u20$serde_core..de..Deserialize$u20$for$u20$cli_generator..core..query..attributes..Field$GT$..deserialize..__FieldVisitor$u20$as$u20$serde_core..de..Visitor$GT$9visit_str17hfc72d760af0a33a4E', symObjAddr: 0x29BC, symBinAddr: 0x122C0, symSize: 0xA8 }
  - { offset: 0x1EDC4, size: 0x8, addend: 0x0, symName: '__ZN218_$LT$cli_generator..core..query..attributes.._..$LT$impl$u20$serde_core..de..Deserialize$u20$for$u20$cli_generator..core..query..attributes..Field$GT$..deserialize..__FieldVisitor$u20$as$u20$serde_core..de..Visitor$GT$9visit_u6417h1423f3dfdbe4acc6E', symObjAddr: 0x2A64, symBinAddr: 0x12368, symSize: 0x68 }
  - { offset: 0x1EE12, size: 0x8, addend: 0x0, symName: '__ZN221_$LT$cli_generator..core..query..attributes.._..$LT$impl$u20$serde_core..de..Deserialize$u20$for$u20$cli_generator..core..query..attributes..Modifier$GT$..deserialize..__FieldVisitor$u20$as$u20$serde_core..de..Visitor$GT$11visit_bytes17he65d45a0bc589c25E', symObjAddr: 0x34DC, symBinAddr: 0x12DE0, symSize: 0x770 }
  - { offset: 0x1EE75, size: 0x8, addend: 0x0, symName: '__ZN221_$LT$cli_generator..core..query..attributes.._..$LT$impl$u20$serde_core..de..Deserialize$u20$for$u20$cli_generator..core..query..attributes..Modifier$GT$..deserialize..__FieldVisitor$u20$as$u20$serde_core..de..Visitor$GT$9visit_str17h0100be4b80e0d542E', symObjAddr: 0x3C4C, symBinAddr: 0x13550, symSize: 0x2F4 }
  - { offset: 0x1EEC3, size: 0x8, addend: 0x0, symName: '__ZN221_$LT$cli_generator..core..query..attributes.._..$LT$impl$u20$serde_core..de..Deserialize$u20$for$u20$cli_generator..core..query..attributes..Modifier$GT$..deserialize..__FieldVisitor$u20$as$u20$serde_core..de..Visitor$GT$9visit_u6417hced8de4ea12671b3E', symObjAddr: 0x3F40, symBinAddr: 0x13844, symSize: 0x17C }
  - { offset: 0x1EF11, size: 0x8, addend: 0x0, symName: '__ZN222_$LT$cli_generator..core..query..attributes.._..$LT$impl$u20$serde_core..de..Deserialize$u20$for$u20$cli_generator..core..query..attributes..Attribute$GT$..deserialize..__FieldVisitor$u20$as$u20$serde_core..de..Visitor$GT$11visit_bytes17h281038fb35bd63dbE', symObjAddr: 0x40BC, symBinAddr: 0x139C0, symSize: 0x2A0 }
  - { offset: 0x1EF5F, size: 0x8, addend: 0x0, symName: '__ZN222_$LT$cli_generator..core..query..attributes.._..$LT$impl$u20$serde_core..de..Deserialize$u20$for$u20$cli_generator..core..query..attributes..Attribute$GT$..deserialize..__FieldVisitor$u20$as$u20$serde_core..de..Visitor$GT$9visit_str17h958567977c42cd42E', symObjAddr: 0x435C, symBinAddr: 0x13C60, symSize: 0x118 }
  - { offset: 0x1EFAD, size: 0x8, addend: 0x0, symName: '__ZN222_$LT$cli_generator..core..query..attributes.._..$LT$impl$u20$serde_core..de..Deserialize$u20$for$u20$cli_generator..core..query..attributes..Attribute$GT$..deserialize..__FieldVisitor$u20$as$u20$serde_core..de..Visitor$GT$9visit_u6417hfa4c981d11c7a5c9E', symObjAddr: 0x4474, symBinAddr: 0x13D78, symSize: 0xB0 }
  - { offset: 0x1EFFB, size: 0x8, addend: 0x0, symName: '__ZN225_$LT$cli_generator..core..query..attributes.._..$LT$impl$u20$serde_core..de..Deserialize$u20$for$u20$cli_generator..core..query..attributes..AttributeSet$GT$..deserialize..__FieldVisitor$u20$as$u20$serde_core..de..Visitor$GT$11visit_bytes17heeb84902873123d8E', symObjAddr: 0x4994, symBinAddr: 0x14298, symSize: 0x2B4 }
  - { offset: 0x1F049, size: 0x8, addend: 0x0, symName: '__ZN225_$LT$cli_generator..core..query..attributes.._..$LT$impl$u20$serde_core..de..Deserialize$u20$for$u20$cli_generator..core..query..attributes..AttributeSet$GT$..deserialize..__FieldVisitor$u20$as$u20$serde_core..de..Visitor$GT$9visit_str17h41dd57b2c6296a45E', symObjAddr: 0x4C48, symBinAddr: 0x1454C, symSize: 0x118 }
  - { offset: 0x1F097, size: 0x8, addend: 0x0, symName: '__ZN225_$LT$cli_generator..core..query..attributes.._..$LT$impl$u20$serde_core..de..Deserialize$u20$for$u20$cli_generator..core..query..attributes..AttributeSet$GT$..deserialize..__FieldVisitor$u20$as$u20$serde_core..de..Visitor$GT$9visit_u6417h22489d7d31963480E', symObjAddr: 0x4D60, symBinAddr: 0x14664, symSize: 0xB0 }
  - { offset: 0x1F0E5, size: 0x8, addend: 0x0, symName: '__ZN230_$LT$cli_generator..core..query..attributes.._..$LT$impl$u20$serde_core..de..Deserialize$u20$for$u20$cli_generator..core..query..attributes..AttributeOperator$GT$..deserialize..__FieldVisitor$u20$as$u20$serde_core..de..Visitor$GT$11visit_bytes17hd19953c24f0813f1E', symObjAddr: 0x4E24, symBinAddr: 0x14728, symSize: 0x354 }
  - { offset: 0x1F148, size: 0x8, addend: 0x0, symName: '__ZN230_$LT$cli_generator..core..query..attributes.._..$LT$impl$u20$serde_core..de..Deserialize$u20$for$u20$cli_generator..core..query..attributes..AttributeOperator$GT$..deserialize..__FieldVisitor$u20$as$u20$serde_core..de..Visitor$GT$9visit_str17h3b60e3ee10aaa69dE', symObjAddr: 0x5178, symBinAddr: 0x14A7C, symSize: 0x214 }
  - { offset: 0x1F196, size: 0x8, addend: 0x0, symName: '__ZN230_$LT$cli_generator..core..query..attributes.._..$LT$impl$u20$serde_core..de..Deserialize$u20$for$u20$cli_generator..core..query..attributes..AttributeOperator$GT$..deserialize..__FieldVisitor$u20$as$u20$serde_core..de..Visitor$GT$9visit_u6417h39af1485fe9c6b95E', symObjAddr: 0x538C, symBinAddr: 0x14C90, symSize: 0x178 }
  - { offset: 0x1F2B3, size: 0x8, addend: 0x0, symName: '__ZN13cli_generator4core5query10attributes1_103_$LT$impl$u20$serde_core..de..Deserialize$u20$for$u20$cli_generator..core..query..attributes..Field$GT$11deserialize17h03bbefda8dc14c8dE', symObjAddr: 0x848, symBinAddr: 0x1014C, symSize: 0x34 }
  - { offset: 0x1F2E9, size: 0x8, addend: 0x0, symName: '__ZN13cli_generator4core5query10attributes1_106_$LT$impl$u20$serde_core..de..Deserialize$u20$for$u20$cli_generator..core..query..attributes..Modifier$GT$11deserialize17h4bde9c39526f9c31E', symObjAddr: 0x87C, symBinAddr: 0x10180, symSize: 0x34 }
  - { offset: 0x1F31F, size: 0x8, addend: 0x0, symName: '__ZN13cli_generator4core5query10attributes1_107_$LT$impl$u20$serde_core..de..Deserialize$u20$for$u20$cli_generator..core..query..attributes..Attribute$GT$11deserialize17hb028b5fccb2ad602E', symObjAddr: 0x8B0, symBinAddr: 0x101B4, symSize: 0x34 }
  - { offset: 0x1F355, size: 0x8, addend: 0x0, symName: '__ZN13cli_generator4core5query10attributes1_110_$LT$impl$u20$serde_core..de..Deserialize$u20$for$u20$cli_generator..core..query..attributes..AttributeSet$GT$11deserialize17hbf60e33b3423762fE', symObjAddr: 0x8E4, symBinAddr: 0x101E8, symSize: 0x44 }
  - { offset: 0x1F38A, size: 0x8, addend: 0x0, symName: '__ZN13cli_generator4core5query10attributes1_112_$LT$impl$u20$serde_core..de..Deserialize$u20$for$u20$cli_generator..core..query..attributes..AttributeValue$GT$11deserialize17hbf69992a74457c25E', symObjAddr: 0x928, symBinAddr: 0x1022C, symSize: 0x2D4 }
  - { offset: 0x1F449, size: 0x8, addend: 0x0, symName: '__ZN13cli_generator4core5query10attributes1_115_$LT$impl$u20$serde_core..de..Deserialize$u20$for$u20$cli_generator..core..query..attributes..AttributeOperator$GT$11deserialize17h0b144fd6c5a28bfdE', symObjAddr: 0xBFC, symBinAddr: 0x10500, symSize: 0x34 }
  - { offset: 0x1F8ED, size: 0x8, addend: 0x0, symName: __ZN10serde_core2de7Visitor12visit_string17h06be0516c355cdfaE, symObjAddr: 0x0, symBinAddr: 0xF904, symSize: 0x98 }
  - { offset: 0x1F93D, size: 0x8, addend: 0x0, symName: __ZN10serde_core2de7Visitor12visit_string17h8d71d02193df8b94E, symObjAddr: 0x98, symBinAddr: 0xF99C, symSize: 0x98 }
  - { offset: 0x1F98D, size: 0x8, addend: 0x0, symName: __ZN10serde_core2de7Visitor12visit_string17ha8197007c4388016E, symObjAddr: 0x130, symBinAddr: 0xFA34, symSize: 0x98 }
  - { offset: 0x1F9DD, size: 0x8, addend: 0x0, symName: __ZN10serde_core2de7Visitor12visit_string17hc3ba8bdc623d67b2E, symObjAddr: 0x1C8, symBinAddr: 0xFACC, symSize: 0x98 }
  - { offset: 0x1FA2D, size: 0x8, addend: 0x0, symName: __ZN10serde_core2de7Visitor12visit_string17hc50a6046a3343ebfE, symObjAddr: 0x260, symBinAddr: 0xFB64, symSize: 0x98 }
  - { offset: 0x1FA7D, size: 0x8, addend: 0x0, symName: __ZN10serde_core2de7Visitor14visit_byte_buf17h1e8f5668c0fca6a0E, symObjAddr: 0x2F8, symBinAddr: 0xFBFC, symSize: 0x98 }
  - { offset: 0x1FACD, size: 0x8, addend: 0x0, symName: __ZN10serde_core2de7Visitor14visit_byte_buf17h6319fc47ed22d3a3E, symObjAddr: 0x390, symBinAddr: 0xFC94, symSize: 0x98 }
  - { offset: 0x1FB1D, size: 0x8, addend: 0x0, symName: __ZN10serde_core2de7Visitor14visit_byte_buf17h7a7b7c9937f8f058E, symObjAddr: 0x428, symBinAddr: 0xFD2C, symSize: 0x98 }
  - { offset: 0x1FB6D, size: 0x8, addend: 0x0, symName: __ZN10serde_core2de7Visitor14visit_byte_buf17h9189540c46edb104E, symObjAddr: 0x4C0, symBinAddr: 0xFDC4, symSize: 0x98 }
  - { offset: 0x1FBBD, size: 0x8, addend: 0x0, symName: __ZN10serde_core2de7Visitor14visit_byte_buf17haf90feea9097ed99E, symObjAddr: 0x558, symBinAddr: 0xFE5C, symSize: 0x98 }
  - { offset: 0x1FC0D, size: 0x8, addend: 0x0, symName: __ZN10serde_core2de7Visitor18visit_borrowed_str17h12de7010cf4c1704E, symObjAddr: 0x5F0, symBinAddr: 0xFEF4, symSize: 0x28 }
  - { offset: 0x1FC5C, size: 0x8, addend: 0x0, symName: __ZN10serde_core2de7Visitor18visit_borrowed_str17h14b9ea90c9d89a19E, symObjAddr: 0x618, symBinAddr: 0xFF1C, symSize: 0x28 }
  - { offset: 0x1FCAB, size: 0x8, addend: 0x0, symName: __ZN10serde_core2de7Visitor18visit_borrowed_str17h235a3a5049edb4adE, symObjAddr: 0x640, symBinAddr: 0xFF44, symSize: 0x28 }
  - { offset: 0x1FCFA, size: 0x8, addend: 0x0, symName: __ZN10serde_core2de7Visitor18visit_borrowed_str17h30c7ba441686bb85E, symObjAddr: 0x668, symBinAddr: 0xFF6C, symSize: 0x28 }
  - { offset: 0x1FD49, size: 0x8, addend: 0x0, symName: __ZN10serde_core2de7Visitor18visit_borrowed_str17h447e21721721db50E, symObjAddr: 0x690, symBinAddr: 0xFF94, symSize: 0x28 }
  - { offset: 0x1FD98, size: 0x8, addend: 0x0, symName: __ZN10serde_core2de7Visitor20visit_borrowed_bytes17h02347570fe5d7d76E, symObjAddr: 0x6B8, symBinAddr: 0xFFBC, symSize: 0x28 }
  - { offset: 0x1FDE7, size: 0x8, addend: 0x0, symName: __ZN10serde_core2de7Visitor20visit_borrowed_bytes17h222251cac853df6aE, symObjAddr: 0x6E0, symBinAddr: 0xFFE4, symSize: 0x28 }
  - { offset: 0x1FE36, size: 0x8, addend: 0x0, symName: __ZN10serde_core2de7Visitor20visit_borrowed_bytes17hbad4152c994a5eb4E, symObjAddr: 0x708, symBinAddr: 0x1000C, symSize: 0x28 }
  - { offset: 0x1FE85, size: 0x8, addend: 0x0, symName: __ZN10serde_core2de7Visitor20visit_borrowed_bytes17he41f51a86599ecb7E, symObjAddr: 0x730, symBinAddr: 0x10034, symSize: 0x28 }
  - { offset: 0x1FED4, size: 0x8, addend: 0x0, symName: __ZN10serde_core2de7Visitor20visit_borrowed_bytes17hfd6214b39e85b360E, symObjAddr: 0x758, symBinAddr: 0x1005C, symSize: 0x28 }
  - { offset: 0x1FF23, size: 0x8, addend: 0x0, symName: __ZN10serde_core2de7Visitor8visit_u817h07be4d86333f5a02E, symObjAddr: 0x780, symBinAddr: 0x10084, symSize: 0x28 }
  - { offset: 0x1FF72, size: 0x8, addend: 0x0, symName: __ZN10serde_core2de7Visitor8visit_u817h0868ca6769a63297E, symObjAddr: 0x7A8, symBinAddr: 0x100AC, symSize: 0x28 }
  - { offset: 0x1FFC1, size: 0x8, addend: 0x0, symName: __ZN10serde_core2de7Visitor8visit_u817h43ca23a2399ee2fbE, symObjAddr: 0x7D0, symBinAddr: 0x100D4, symSize: 0x28 }
  - { offset: 0x20010, size: 0x8, addend: 0x0, symName: __ZN10serde_core2de7Visitor8visit_u817hadc5fa5ea9711d73E, symObjAddr: 0x7F8, symBinAddr: 0x100FC, symSize: 0x28 }
  - { offset: 0x2005F, size: 0x8, addend: 0x0, symName: __ZN10serde_core2de7Visitor8visit_u817hff3980204e9539b0E, symObjAddr: 0x820, symBinAddr: 0x10124, symSize: 0x28 }
  - { offset: 0x200B4, size: 0x8, addend: 0x0, symName: '__ZN46_$LT$T$u20$as$u20$serde_core..de..Expected$GT$3fmt17h294bfda0c3f96be7E', symObjAddr: 0x5504, symBinAddr: 0x14E08, symSize: 0x2C }
  - { offset: 0x200FA, size: 0x8, addend: 0x0, symName: '__ZN46_$LT$T$u20$as$u20$serde_core..de..Expected$GT$3fmt17h74e63a3f6029bd11E', symObjAddr: 0x5530, symBinAddr: 0x14E34, symSize: 0x2C }
  - { offset: 0x20140, size: 0x8, addend: 0x0, symName: '__ZN46_$LT$T$u20$as$u20$serde_core..de..Expected$GT$3fmt17h7918b4561740cf4dE', symObjAddr: 0x555C, symBinAddr: 0x14E60, symSize: 0x2C }
  - { offset: 0x20186, size: 0x8, addend: 0x0, symName: '__ZN46_$LT$T$u20$as$u20$serde_core..de..Expected$GT$3fmt17h822a2ccf99f842fcE', symObjAddr: 0x5588, symBinAddr: 0x14E8C, symSize: 0x2C }
  - { offset: 0x201CC, size: 0x8, addend: 0x0, symName: '__ZN46_$LT$T$u20$as$u20$serde_core..de..Expected$GT$3fmt17h90c59d04651231c4E', symObjAddr: 0x55B4, symBinAddr: 0x14EB8, symSize: 0x2C }
  - { offset: 0x20212, size: 0x8, addend: 0x0, symName: '__ZN46_$LT$T$u20$as$u20$serde_core..de..Expected$GT$3fmt17hc915cc3dfe289cefE', symObjAddr: 0x55E0, symBinAddr: 0x14EE4, symSize: 0x2C }
  - { offset: 0x20258, size: 0x8, addend: 0x0, symName: '__ZN46_$LT$T$u20$as$u20$serde_core..de..Expected$GT$3fmt17hf21daab9f817cefeE', symObjAddr: 0x560C, symBinAddr: 0x14F10, symSize: 0x2C }
  - { offset: 0x205BA, size: 0x8, addend: 0x0, symName: '__ZN4core5slice29_$LT$impl$u20$$u5b$T$u5d$$GT$4iter17hb2f8f605026f9d7fE', symObjAddr: 0x5638, symBinAddr: 0x14F3C, symSize: 0x28 }
  - { offset: 0x205F1, size: 0x8, addend: 0x0, symName: '__ZN4core5slice29_$LT$impl$u20$$u5b$T$u5d$$GT$4iter17hc5fd524ed6ef2bbbE', symObjAddr: 0x5660, symBinAddr: 0x14F64, symSize: 0x28 }
  - { offset: 0x223AF, size: 0x8, addend: 0x0, symName: '__ZN10serde_core2de5impls62_$LT$impl$u20$serde_core..de..Deserialize$u20$for$u20$bool$GT$11deserialize17ha524a1f3edf03cdfE', symObjAddr: 0x0, symBinAddr: 0x14F8C, symSize: 0x24 }
  - { offset: 0x223FD, size: 0x8, addend: 0x0, symName: '__ZN160_$LT$serde_core..de..impls..$LT$impl$u20$serde_core..de..Deserialize$u20$for$u20$usize$GT$..deserialize..PrimitiveVisitor$u20$as$u20$serde_core..de..Visitor$GT$9visit_u6417hd6784ff93a52788cE', symObjAddr: 0xAC, symBinAddr: 0x15038, symSize: 0x38 }
  - { offset: 0x22454, size: 0x8, addend: 0x0, symName: '__ZN160_$LT$serde_core..de..impls..$LT$impl$u20$serde_core..de..Deserialize$u20$for$u20$usize$GT$..deserialize..PrimitiveVisitor$u20$as$u20$serde_core..de..Visitor$GT$9visit_u6428_$u7b$$u7b$closure$u7d$$u7d$17h1063fb49ba19d820E', symObjAddr: 0xE4, symBinAddr: 0x15070, symSize: 0x48 }
  - { offset: 0x224AB, size: 0x8, addend: 0x0, symName: '__ZN10serde_core2de5impls63_$LT$impl$u20$serde_core..de..Deserialize$u20$for$u20$usize$GT$11deserialize17ha33d76f6da73cea5E', symObjAddr: 0x24, symBinAddr: 0x14FB0, symSize: 0x24 }
  - { offset: 0x224EE, size: 0x8, addend: 0x0, symName: '__ZN10serde_core2de5impls62_$LT$impl$u20$serde_core..de..Deserialize$u20$for$u20$bool$GT$11deserialize17ha524a1f3edf03cdfE', symObjAddr: 0x0, symBinAddr: 0x14F8C, symSize: 0x24 }
  - { offset: 0x22529, size: 0x8, addend: 0x0, symName: '__ZN10serde_core2de5impls66_$LT$impl$u20$serde_core..de..Deserialize$u20$for$u20$$LP$$RP$$GT$11deserialize17h222ef343d8cc6b17E', symObjAddr: 0x48, symBinAddr: 0x14FD4, symSize: 0x14 }
  - { offset: 0x2256F, size: 0x8, addend: 0x0, symName: '__ZN182_$LT$serde_core..de..impls..$LT$impl$u20$serde_core..de..Deserialize$u20$for$u20$alloc..vec..Vec$LT$T$GT$$GT$..deserialize..VecVisitor$LT$T$GT$$u20$as$u20$serde_core..de..Visitor$GT$9expecting17h1d04d3f10cf8b7baE', symObjAddr: 0x12C, symBinAddr: 0x150B8, symSize: 0x40 }
  - { offset: 0x225B5, size: 0x8, addend: 0x0, symName: '__ZN182_$LT$serde_core..de..impls..$LT$impl$u20$serde_core..de..Deserialize$u20$for$u20$alloc..vec..Vec$LT$T$GT$$GT$..deserialize..VecVisitor$LT$T$GT$$u20$as$u20$serde_core..de..Visitor$GT$9expecting17h6da6d3acac007956E', symObjAddr: 0x16C, symBinAddr: 0x150F8, symSize: 0x40 }
  - { offset: 0x225FB, size: 0x8, addend: 0x0, symName: '__ZN182_$LT$serde_core..de..impls..$LT$impl$u20$serde_core..de..Deserialize$u20$for$u20$alloc..vec..Vec$LT$T$GT$$GT$..deserialize..VecVisitor$LT$T$GT$$u20$as$u20$serde_core..de..Visitor$GT$9expecting17h87393486932b78a3E', symObjAddr: 0x1AC, symBinAddr: 0x15138, symSize: 0x40 }
  - { offset: 0x22641, size: 0x8, addend: 0x0, symName: '__ZN182_$LT$serde_core..de..impls..$LT$impl$u20$serde_core..de..Deserialize$u20$for$u20$alloc..vec..Vec$LT$T$GT$$GT$..deserialize..VecVisitor$LT$T$GT$$u20$as$u20$serde_core..de..Visitor$GT$9expecting17hc4729dd30cefb0f6E', symObjAddr: 0x1EC, symBinAddr: 0x15178, symSize: 0x40 }
  - { offset: 0x22687, size: 0x8, addend: 0x0, symName: '__ZN182_$LT$serde_core..de..impls..$LT$impl$u20$serde_core..de..Deserialize$u20$for$u20$alloc..vec..Vec$LT$T$GT$$GT$..deserialize..VecVisitor$LT$T$GT$$u20$as$u20$serde_core..de..Visitor$GT$9visit_seq17h1d0ab1b0de02f841E', symObjAddr: 0x22C, symBinAddr: 0x151B8, symSize: 0x178 }
  - { offset: 0x22742, size: 0x8, addend: 0x0, symName: '__ZN182_$LT$serde_core..de..impls..$LT$impl$u20$serde_core..de..Deserialize$u20$for$u20$alloc..vec..Vec$LT$T$GT$$GT$..deserialize..VecVisitor$LT$T$GT$$u20$as$u20$serde_core..de..Visitor$GT$9visit_seq17h8a2c4fc50f29869aE', symObjAddr: 0x3A4, symBinAddr: 0x15330, symSize: 0x17C }
  - { offset: 0x227FE, size: 0x8, addend: 0x0, symName: '__ZN182_$LT$serde_core..de..impls..$LT$impl$u20$serde_core..de..Deserialize$u20$for$u20$alloc..vec..Vec$LT$T$GT$$GT$..deserialize..VecVisitor$LT$T$GT$$u20$as$u20$serde_core..de..Visitor$GT$9visit_seq17haa39a22ad2e91e80E', symObjAddr: 0x520, symBinAddr: 0x154AC, symSize: 0x164 }
  - { offset: 0x228B9, size: 0x8, addend: 0x0, symName: '__ZN182_$LT$serde_core..de..impls..$LT$impl$u20$serde_core..de..Deserialize$u20$for$u20$alloc..vec..Vec$LT$T$GT$$GT$..deserialize..VecVisitor$LT$T$GT$$u20$as$u20$serde_core..de..Visitor$GT$9visit_seq17hdf6ba13be8e354c4E', symObjAddr: 0x684, symBinAddr: 0x15610, symSize: 0x164 }
  - { offset: 0x22974, size: 0x8, addend: 0x0, symName: '__ZN182_$LT$serde_core..de..impls..$LT$impl$u20$serde_core..de..Deserialize$u20$for$u20$alloc..vec..Vec$LT$T$GT$$GT$..deserialize..VecVisitor$LT$T$GT$$u20$as$u20$serde_core..de..Visitor$GT$9visit_seq17hec966fc2afe6e4daE', symObjAddr: 0x7E8, symBinAddr: 0x15774, symSize: 0x13C }
  - { offset: 0x22AAE, size: 0x8, addend: 0x0, symName: '__ZN78_$LT$serde_core..de..impls..BoolVisitor$u20$as$u20$serde_core..de..Visitor$GT$10visit_bool17h3220c17b8acb79feE', symObjAddr: 0x9D4, symBinAddr: 0x15960, symSize: 0x18 }
  - { offset: 0x22B02, size: 0x8, addend: 0x0, symName: '__ZN80_$LT$serde_core..de..impls..StringVisitor$u20$as$u20$serde_core..de..Visitor$GT$11visit_bytes17h0329f16a5994d8a0E', symObjAddr: 0x9EC, symBinAddr: 0x15978, symSize: 0xB4 }
  - { offset: 0x22B72, size: 0x8, addend: 0x0, symName: '__ZN80_$LT$serde_core..de..impls..StringVisitor$u20$as$u20$serde_core..de..Visitor$GT$12visit_string17h3fa94fac9ba5800eE', symObjAddr: 0xAA0, symBinAddr: 0x15A2C, symSize: 0x20 }
  - { offset: 0x22BC4, size: 0x8, addend: 0x0, symName: '__ZN80_$LT$serde_core..de..impls..StringVisitor$u20$as$u20$serde_core..de..Visitor$GT$14visit_byte_buf17h0b202d3a03a07365E', symObjAddr: 0xAC0, symBinAddr: 0x15A4C, symSize: 0x13C }
  - { offset: 0x22C4E, size: 0x8, addend: 0x0, symName: '__ZN80_$LT$serde_core..de..impls..StringVisitor$u20$as$u20$serde_core..de..Visitor$GT$9visit_str17h33775ae3e3ee0087E', symObjAddr: 0xBFC, symBinAddr: 0x15B88, symSize: 0x44 }
  - { offset: 0x22CA6, size: 0x8, addend: 0x0, symName: '__ZN89_$LT$serde_core..de..impls..OptionVisitor$LT$T$GT$$u20$as$u20$serde_core..de..Visitor$GT$10visit_none17h4a56ecdf9803ab78E', symObjAddr: 0xC40, symBinAddr: 0x15BCC, symSize: 0x18 }
  - { offset: 0x22CF2, size: 0x8, addend: 0x0, symName: '__ZN89_$LT$serde_core..de..impls..OptionVisitor$LT$T$GT$$u20$as$u20$serde_core..de..Visitor$GT$10visit_none17h55f3cf025cb887c8E', symObjAddr: 0xC58, symBinAddr: 0x15BE4, symSize: 0x24 }
  - { offset: 0x22D3E, size: 0x8, addend: 0x0, symName: '__ZN89_$LT$serde_core..de..impls..OptionVisitor$LT$T$GT$$u20$as$u20$serde_core..de..Visitor$GT$10visit_none17hae33aabd1f35214fE', symObjAddr: 0xC7C, symBinAddr: 0x15C08, symSize: 0x28 }
  - { offset: 0x22D8A, size: 0x8, addend: 0x0, symName: '__ZN89_$LT$serde_core..de..impls..OptionVisitor$LT$T$GT$$u20$as$u20$serde_core..de..Visitor$GT$10visit_some17h3c848f7f718a9351E', symObjAddr: 0xCA4, symBinAddr: 0x15C30, symSize: 0x3C }
  - { offset: 0x22DE5, size: 0x8, addend: 0x0, symName: '__ZN89_$LT$serde_core..de..impls..OptionVisitor$LT$T$GT$$u20$as$u20$serde_core..de..Visitor$GT$10visit_some17h47d6665fd0bdd6e2E', symObjAddr: 0xCE0, symBinAddr: 0x15C6C, symSize: 0x34 }
  - { offset: 0x22E41, size: 0x8, addend: 0x0, symName: '__ZN89_$LT$serde_core..de..impls..OptionVisitor$LT$T$GT$$u20$as$u20$serde_core..de..Visitor$GT$10visit_some17h677b6e5dabb9ef58E', symObjAddr: 0xD14, symBinAddr: 0x15CA0, symSize: 0x34 }
  - { offset: 0x22E9D, size: 0x8, addend: 0x0, symName: '__ZN89_$LT$serde_core..de..impls..OptionVisitor$LT$T$GT$$u20$as$u20$serde_core..de..Visitor$GT$10visit_some17h8f6fbbba2e106332E', symObjAddr: 0xD48, symBinAddr: 0x15CD4, symSize: 0x34 }
  - { offset: 0x22EF9, size: 0x8, addend: 0x0, symName: '__ZN89_$LT$serde_core..de..impls..OptionVisitor$LT$T$GT$$u20$as$u20$serde_core..de..Visitor$GT$10visit_unit17h2a1439c2b5466528E', symObjAddr: 0xD7C, symBinAddr: 0x15D08, symSize: 0x24 }
  - { offset: 0x22F45, size: 0x8, addend: 0x0, symName: '__ZN89_$LT$serde_core..de..impls..OptionVisitor$LT$T$GT$$u20$as$u20$serde_core..de..Visitor$GT$10visit_unit17hc2ef5eaef92711e3E', symObjAddr: 0xDA0, symBinAddr: 0x15D2C, symSize: 0x28 }
  - { offset: 0x22F91, size: 0x8, addend: 0x0, symName: '__ZN89_$LT$serde_core..de..impls..OptionVisitor$LT$T$GT$$u20$as$u20$serde_core..de..Visitor$GT$10visit_unit17hde69890a25c8a4eaE', symObjAddr: 0xDC8, symBinAddr: 0x15D54, symSize: 0x18 }
  - { offset: 0x23046, size: 0x8, addend: 0x0, symName: __ZN10serde_core2de7Visitor18visit_borrowed_str17hce4250c8da3e54acE, symObjAddr: 0x5C, symBinAddr: 0x14FE8, symSize: 0x28 }
  - { offset: 0x23095, size: 0x8, addend: 0x0, symName: __ZN10serde_core2de7Visitor20visit_borrowed_bytes17h940cbbe2acdba461E, symObjAddr: 0x84, symBinAddr: 0x15010, symSize: 0x28 }
  - { offset: 0x230EA, size: 0x8, addend: 0x0, symName: '__ZN46_$LT$T$u20$as$u20$serde_core..de..Expected$GT$3fmt17h3021a656887b9a75E', symObjAddr: 0x924, symBinAddr: 0x158B0, symSize: 0x2C }
  - { offset: 0x23130, size: 0x8, addend: 0x0, symName: '__ZN46_$LT$T$u20$as$u20$serde_core..de..Expected$GT$3fmt17h4e03b8e650d6954eE', symObjAddr: 0x950, symBinAddr: 0x158DC, symSize: 0x2C }
  - { offset: 0x23176, size: 0x8, addend: 0x0, symName: '__ZN46_$LT$T$u20$as$u20$serde_core..de..Expected$GT$3fmt17h5ad87ac769f8a922E', symObjAddr: 0x97C, symBinAddr: 0x15908, symSize: 0x2C }
  - { offset: 0x231BC, size: 0x8, addend: 0x0, symName: '__ZN46_$LT$T$u20$as$u20$serde_core..de..Expected$GT$3fmt17h64f227929fd1eadcE', symObjAddr: 0x9A8, symBinAddr: 0x15934, symSize: 0x2C }
  - { offset: 0x25944, size: 0x8, addend: 0x0, symName: __ZN4pyo36marker6Python19assume_gil_acquired17h9cea2754ba586b74E, symObjAddr: 0x0, symBinAddr: 0x15D6C, symSize: 0x4 }
  - { offset: 0x25A86, size: 0x8, addend: 0x0, symName: __ZN4pyo36marker6Python19assume_gil_acquired17h9cea2754ba586b74E, symObjAddr: 0x0, symBinAddr: 0x15D6C, symSize: 0x4 }
  - { offset: 0x25AB7, size: 0x8, addend: 0x0, symName: '__ZN157_$LT$$LT$alloc..vec..into_iter..IntoIter$LT$T$C$A$GT$$u20$as$u20$core..ops..drop..Drop$GT$..drop..DropGuard$LT$T$C$A$GT$$u20$as$u20$core..ops..drop..Drop$GT$4drop17h4aee97ed372dd3e6E', symObjAddr: 0x0, symBinAddr: 0x15D70, symSize: 0x6C }
  - { offset: 0x26930, size: 0x8, addend: 0x0, symName: '__ZN4core3ptr100drop_in_place$LT$alloc..raw_vec..RawVec$LT$cli_generator..core..query..attributes..Attribute$GT$$GT$17hfeb34d4347328c56E', symObjAddr: 0x6B8, symBinAddr: 0x16404, symSize: 0x24 }
  - { offset: 0x2695F, size: 0x8, addend: 0x0, symName: '__ZN4core3ptr101drop_in_place$LT$serde..private..de..content..ContentDeserializer$LT$serde_yaml..error..Error$GT$$GT$17hf8d2334ba9ef6158E', symObjAddr: 0x6DC, symBinAddr: 0x16428, symSize: 0x24 }
  - { offset: 0x2698E, size: 0x8, addend: 0x0, symName: '__ZN4core3ptr101drop_in_place$LT$serde..private..de..content..VariantDeserializer$LT$serde_yaml..error..Error$GT$$GT$17h979d499e029044cbE', symObjAddr: 0x700, symBinAddr: 0x1644C, symSize: 0x24 }
  - { offset: 0x269BD, size: 0x8, addend: 0x0, symName: '__ZN4core3ptr103drop_in_place$LT$core..option..Option$LT$cli_generator..core..query..attributes..AttributeValue$GT$$GT$17hc89faa35c756c30bE', symObjAddr: 0x724, symBinAddr: 0x16470, symSize: 0x44 }
  - { offset: 0x269EC, size: 0x8, addend: 0x0, symName: '__ZN4core3ptr106drop_in_place$LT$core..result..Result$LT$$BP$mut$u20$pyo3_ffi..object..PyObject$C$pyo3..err..PyErr$GT$$GT$17he79051e4023e7e4aE', symObjAddr: 0x768, symBinAddr: 0x164B4, symSize: 0x40 }
  - { offset: 0x26A1B, size: 0x8, addend: 0x0, symName: '__ZN4core3ptr113drop_in_place$LT$core..result..Result$LT$serde_core..private..content..Content$C$serde_yaml..error..Error$GT$$GT$17h51ab2f55f16357bbE', symObjAddr: 0x7CC, symBinAddr: 0x164F4, symSize: 0x58 }
  - { offset: 0x26A4A, size: 0x8, addend: 0x0, symName: '__ZN4core3ptr114drop_in_place$LT$hashbrown..map..HashMap$LT$alloc..string..String$C$usize$C$std..hash..random..RandomState$GT$$GT$17h3f2abaf2d0c4dceaE', symObjAddr: 0x824, symBinAddr: 0x1654C, symSize: 0x24 }
  - { offset: 0x26A79, size: 0x8, addend: 0x0, symName: '__ZN4core3ptr117drop_in_place$LT$core..option..Option$LT$alloc..vec..Vec$LT$cli_generator..core..query..attributes..Field$GT$$GT$$GT$17h797614c30cbcc4c3E', symObjAddr: 0x848, symBinAddr: 0x16570, symSize: 0x48 }
  - { offset: 0x26AA8, size: 0x8, addend: 0x0, symName: '__ZN4core3ptr120drop_in_place$LT$core..option..Option$LT$alloc..vec..Vec$LT$cli_generator..core..query..attributes..Modifier$GT$$GT$$GT$17h68a255e6b0400eaeE', symObjAddr: 0x890, symBinAddr: 0x165B8, symSize: 0x48 }
  - { offset: 0x26AD7, size: 0x8, addend: 0x0, symName: '__ZN4core3ptr121drop_in_place$LT$core..option..Option$LT$alloc..vec..Vec$LT$cli_generator..core..query..attributes..Attribute$GT$$GT$$GT$17h98bf09bf95775371E', symObjAddr: 0x8D8, symBinAddr: 0x16600, symSize: 0x48 }
  - { offset: 0x26B06, size: 0x8, addend: 0x0, symName: '__ZN4core3ptr130drop_in_place$LT$core..result..Result$LT$cli_generator..core..query..attributes..AttributeValue$C$serde_yaml..error..Error$GT$$GT$17h28693561869019fcE', symObjAddr: 0x920, symBinAddr: 0x16648, symSize: 0x58 }
  - { offset: 0x26B35, size: 0x8, addend: 0x0, symName: '__ZN4core3ptr131drop_in_place$LT$core..option..Option$LT$core..option..Option$LT$cli_generator..core..query..attributes..AttributeValue$GT$$GT$$GT$17h965dfe3a4cc35bdbE', symObjAddr: 0x978, symBinAddr: 0x166A0, symSize: 0x44 }
  - { offset: 0x26B64, size: 0x8, addend: 0x0, symName: '__ZN4core3ptr134drop_in_place$LT$core..option..Option$LT$$LP$serde_core..private..content..Content$C$serde_core..private..content..Content$RP$$GT$$GT$17hdd1216db817abec7E', symObjAddr: 0x9E0, symBinAddr: 0x166E4, symSize: 0x44 }
  - { offset: 0x26B93, size: 0x8, addend: 0x0, symName: '__ZN4core3ptr144drop_in_place$LT$$u5b$core..option..Option$LT$$LP$serde_core..private..content..Content$C$serde_core..private..content..Content$RP$$GT$$u5d$$GT$17hfbee50f270e98fa0E', symObjAddr: 0xA24, symBinAddr: 0x16728, symSize: 0xB4 }
  - { offset: 0x26BC2, size: 0x8, addend: 0x0, symName: '__ZN4core3ptr145drop_in_place$LT$alloc..vec..into_iter..IntoIter$LT$$LP$serde_core..private..content..Content$C$serde_core..private..content..Content$RP$$GT$$GT$17h041cd88909c9217fE', symObjAddr: 0xAD8, symBinAddr: 0x167DC, symSize: 0x24 }
  - { offset: 0x26BF1, size: 0x8, addend: 0x0, symName: '__ZN4core3ptr157drop_in_place$LT$alloc..vec..Vec$LT$core..option..Option$LT$$LP$serde_core..private..content..Content$C$serde_core..private..content..Content$RP$$GT$$GT$$GT$17h931911c52291fce1E', symObjAddr: 0xAFC, symBinAddr: 0x16800, symSize: 0x5C }
  - { offset: 0x26C20, size: 0x8, addend: 0x0, symName: '__ZN4core3ptr164drop_in_place$LT$alloc..raw_vec..RawVec$LT$core..option..Option$LT$$LP$serde_core..private..content..Content$C$serde_core..private..content..Content$RP$$GT$$GT$$GT$17hfad9741c47410bb2E', symObjAddr: 0xB58, symBinAddr: 0x1685C, symSize: 0x24 }
  - { offset: 0x26C4F, size: 0x8, addend: 0x0, symName: '__ZN4core3ptr187drop_in_place$LT$core..result..Result$LT$core..result..Result$LT$serde_core..private..content..Content$C$serde_yaml..error..Error$GT$$C$serde..private..de..content..ContentVisitor$GT$$GT$17hd753e2cd5ae7fd90E', symObjAddr: 0xB7C, symBinAddr: 0x16880, symSize: 0x48 }
  - { offset: 0x26C7E, size: 0x8, addend: 0x0, symName: '__ZN4core3ptr191drop_in_place$LT$$LT$alloc..vec..into_iter..IntoIter$LT$T$C$A$GT$$u20$as$u20$core..ops..drop..Drop$GT$..drop..DropGuard$LT$serde_core..private..content..Content$C$alloc..alloc..Global$GT$$GT$17ha4f9c6993539a8ccE', symObjAddr: 0xBC4, symBinAddr: 0x168C8, symSize: 0x24 }
  - { offset: 0x26CAD, size: 0x8, addend: 0x0, symName: '__ZN4core3ptr239drop_in_place$LT$$LT$alloc..vec..into_iter..IntoIter$LT$T$C$A$GT$$u20$as$u20$core..ops..drop..Drop$GT$..drop..DropGuard$LT$$LP$serde_core..private..content..Content$C$serde_core..private..content..Content$RP$$C$alloc..alloc..Global$GT$$GT$17hef760f5630562a3fE', symObjAddr: 0xBE8, symBinAddr: 0x168EC, symSize: 0x24 }
  - { offset: 0x26CDC, size: 0x8, addend: 0x0, symName: '__ZN4core3ptr280drop_in_place$LT$alloc..vec..Vec$LT$$RF$str$GT$..extend_trusted$LT$core..iter..adapters..map..Map$LT$core..slice..iter..Iter$LT$pyo3..pybacked..PyBackedStr$GT$$C$$LT$pyo3..pybacked..PyBackedStr$u20$as$u20$core..ops..deref..Deref$GT$..deref$GT$$GT$..$u7b$$u7b$closure$u7d$$u7d$$GT$17hd491999973b8b7c7E', symObjAddr: 0xC0C, symBinAddr: 0x16910, symSize: 0x24 }
  - { offset: 0x26D0B, size: 0x8, addend: 0x0, symName: '__ZN4core3ptr34drop_in_place$LT$anyhow..Error$GT$17hf541310b86559ccdE', symObjAddr: 0xC30, symBinAddr: 0x16934, symSize: 0x24 }
  - { offset: 0x26D3A, size: 0x8, addend: 0x0, symName: '__ZN4core3ptr381drop_in_place$LT$core..iter..traits..iterator..Iterator..for_each..call$LT$$RF$str$C$alloc..vec..Vec$LT$$RF$str$GT$..extend_trusted$LT$core..iter..adapters..map..Map$LT$core..slice..iter..Iter$LT$pyo3..pybacked..PyBackedStr$GT$$C$$LT$pyo3..pybacked..PyBackedStr$u20$as$u20$core..ops..deref..Deref$GT$..deref$GT$$GT$..$u7b$$u7b$closure$u7d$$u7d$$GT$..$u7b$$u7b$closure$u7d$$u7d$$GT$17h6e9c65aaa71fce8bE', symObjAddr: 0xC54, symBinAddr: 0x16958, symSize: 0x24 }
  - { offset: 0x26D69, size: 0x8, addend: 0x0, symName: '__ZN4core3ptr398drop_in_place$LT$$LT$serde..private..de..content..EnumDeserializer$LT$serde_yaml..error..Error$GT$$u20$as$u20$serde_core..de..EnumAccess$GT$..variant_seed$LT$core..marker..PhantomData$LT$cli_generator..core..query..attributes.._..$LT$impl$u20$serde_core..de..Deserialize$u20$for$u20$cli_generator..core..query..attributes..Modifier$GT$..deserialize..__Field$GT$$GT$..$u7b$$u7b$closure$u7d$$u7d$$GT$17ha6c5db88193dccf6E', symObjAddr: 0xC78, symBinAddr: 0x1697C, symSize: 0x24 }
  - { offset: 0x26D98, size: 0x8, addend: 0x0, symName: '__ZN4core3ptr407drop_in_place$LT$$LT$serde..private..de..content..EnumDeserializer$LT$serde_yaml..error..Error$GT$$u20$as$u20$serde_core..de..EnumAccess$GT$..variant_seed$LT$core..marker..PhantomData$LT$cli_generator..core..query..attributes.._..$LT$impl$u20$serde_core..de..Deserialize$u20$for$u20$cli_generator..core..query..attributes..AttributeOperator$GT$..deserialize..__Field$GT$$GT$..$u7b$$u7b$closure$u7d$$u7d$$GT$17h1315c61064ba094dE', symObjAddr: 0xC9C, symBinAddr: 0x169A0, symSize: 0x24 }
  - { offset: 0x26DC7, size: 0x8, addend: 0x0, symName: '__ZN4core3ptr407drop_in_place$LT$$LT$serde..private..de..content..EnumDeserializer$LT$serde_yaml..error..Error$GT$$u20$as$u20$serde_core..de..EnumAccess$GT$..variant_seed$LT$core..marker..PhantomData$LT$cli_generator..core..query..identifiers.._..$LT$impl$u20$serde_core..de..Deserialize$u20$for$u20$cli_generator..core..query..identifiers..TaxonFilterType$GT$..deserialize..__Field$GT$$GT$..$u7b$$u7b$closure$u7d$$u7d$$GT$17hcbca89ea95ff85bfE', symObjAddr: 0xCC0, symBinAddr: 0x169C4, symSize: 0x24 }
  - { offset: 0x26DF6, size: 0x8, addend: 0x0, symName: '__ZN4core3ptr588drop_in_place$LT$core..iter..adapters..map..map_fold$LT$$RF$pyo3..pybacked..PyBackedStr$C$$RF$str$C$$LP$$RP$$C$$LT$pyo3..pybacked..PyBackedStr$u20$as$u20$core..ops..deref..Deref$GT$..deref$C$core..iter..traits..iterator..Iterator..for_each..call$LT$$RF$str$C$alloc..vec..Vec$LT$$RF$str$GT$..extend_trusted$LT$core..iter..adapters..map..Map$LT$core..slice..iter..Iter$LT$pyo3..pybacked..PyBackedStr$GT$$C$$LT$pyo3..pybacked..PyBackedStr$u20$as$u20$core..ops..deref..Deref$GT$..deref$GT$$GT$..$u7b$$u7b$closure$u7d$$u7d$$GT$..$u7b$$u7b$closure$u7d$$u7d$$GT$..$u7b$$u7b$closure$u7d$$u7d$$GT$17habc54186db1d6b84E', symObjAddr: 0xD08, symBinAddr: 0x169E8, symSize: 0x24 }
  - { offset: 0x26E25, size: 0x8, addend: 0x0, symName: '__ZN4core3ptr58drop_in_place$LT$$LP$alloc..string..String$C$usize$RP$$GT$17h71f636ef6e1ea841E', symObjAddr: 0xD2C, symBinAddr: 0x16A0C, symSize: 0x24 }
  - { offset: 0x26E54, size: 0x8, addend: 0x0, symName: '__ZN4core3ptr58drop_in_place$LT$$u5b$pyo3..pybacked..PyBackedStr$u5d$$GT$17haf51acda43c8999bE', symObjAddr: 0xD50, symBinAddr: 0x16A30, symSize: 0xC4 }
  - { offset: 0x26E83, size: 0x8, addend: 0x0, symName: '__ZN4core3ptr60drop_in_place$LT$cli_generator..core..query..QueryParams$GT$17hda6064dae9cd2f82E', symObjAddr: 0xE14, symBinAddr: 0x16AF4, symSize: 0x5C }
  - { offset: 0x26EB2, size: 0x8, addend: 0x0, symName: '__ZN4core3ptr60drop_in_place$LT$cli_generator..core..query..SearchQuery$GT$17hf7f8a38a27cfc4c1E', symObjAddr: 0xE70, symBinAddr: 0x16B50, symSize: 0x60 }
  - { offset: 0x26EE1, size: 0x8, addend: 0x0, symName: '__ZN4core3ptr66drop_in_place$LT$cli_generator..core..query..attributes..Field$GT$17h128b06653ea77ebfE', symObjAddr: 0xED0, symBinAddr: 0x16BB0, symSize: 0x60 }
  - { offset: 0x26F10, size: 0x8, addend: 0x0, symName: '__ZN4core3ptr68drop_in_place$LT$cli_generator..core..query..url..ExclusionParam$GT$17hec3dcad6b1eccae3E', symObjAddr: 0xF30, symBinAddr: 0x16C10, symSize: 0x60 }
  - { offset: 0x26F3F, size: 0x8, addend: 0x0, symName: '__ZN4core3ptr70drop_in_place$LT$cli_generator..core..query..attributes..Attribute$GT$17h066aea7cfcc89844E', symObjAddr: 0xF90, symBinAddr: 0x16C70, symSize: 0x8C }
  - { offset: 0x26F6E, size: 0x8, addend: 0x0, symName: '__ZN4core3ptr71drop_in_place$LT$alloc..vec..Vec$LT$pyo3..pybacked..PyBackedStr$GT$$GT$17hd3eb72368f114f1fE', symObjAddr: 0x101C, symBinAddr: 0x16CFC, symSize: 0x5C }
  - { offset: 0x26F9D, size: 0x8, addend: 0x0, symName: '__ZN4core3ptr73drop_in_place$LT$cli_generator..core..query..attributes..AttributeSet$GT$17h36df92c7a8017069E', symObjAddr: 0x1078, symBinAddr: 0x16D58, symSize: 0xC0 }
  - { offset: 0x26FCC, size: 0x8, addend: 0x0, symName: '__ZN4core3ptr73drop_in_place$LT$cli_generator..core..query..identifiers..Identifiers$GT$17h058ed0e20e9d1fe0E', symObjAddr: 0x1138, symBinAddr: 0x16E18, symSize: 0xC0 }
  - { offset: 0x26FFB, size: 0x8, addend: 0x0, symName: '__ZN4core3ptr75drop_in_place$LT$cli_generator..core..query..attributes..AttributeValue$GT$17h5bd649afaae24f17E', symObjAddr: 0x11F8, symBinAddr: 0x16ED8, symSize: 0x50 }
  - { offset: 0x2702A, size: 0x8, addend: 0x0, symName: '__ZN4core3ptr76drop_in_place$LT$$u5b$cli_generator..core..query..attributes..Field$u5d$$GT$17h9ffc34065fbf70e6E', symObjAddr: 0x1248, symBinAddr: 0x16F28, symSize: 0xC4 }
  - { offset: 0x27059, size: 0x8, addend: 0x0, symName: '__ZN4core3ptr77drop_in_place$LT$core..option..Option$LT$serde_yaml..loader..Document$GT$$GT$17h01471b6222d2943fE', symObjAddr: 0x130C, symBinAddr: 0x16FEC, symSize: 0x48 }
  - { offset: 0x27088, size: 0x8, addend: 0x0, symName: '__ZN4core3ptr78drop_in_place$LT$$u5b$cli_generator..core..query..url..ExclusionParam$u5d$$GT$17h2b7cae5108c06f47E', symObjAddr: 0x1354, symBinAddr: 0x17034, symSize: 0xC4 }
  - { offset: 0x270B7, size: 0x8, addend: 0x0, symName: '__ZN4core3ptr78drop_in_place$LT$alloc..raw_vec..RawVec$LT$pyo3..pybacked..PyBackedStr$GT$$GT$17h307e3db3ef3417e3E', symObjAddr: 0x1418, symBinAddr: 0x170F8, symSize: 0x24 }
  - { offset: 0x270E6, size: 0x8, addend: 0x0, symName: '__ZN4core3ptr80drop_in_place$LT$$u5b$cli_generator..core..query..attributes..Attribute$u5d$$GT$17hc0d8f74ddebfc702E', symObjAddr: 0x143C, symBinAddr: 0x1711C, symSize: 0xC4 }
  - { offset: 0x27115, size: 0x8, addend: 0x0, symName: '__ZN4core3ptr86drop_in_place$LT$core..option..Option$LT$serde_core..private..content..Content$GT$$GT$17h3911cb8d8d48d01eE', symObjAddr: 0x1500, symBinAddr: 0x171E0, symSize: 0x44 }
  - { offset: 0x27144, size: 0x8, addend: 0x0, symName: '__ZN4core3ptr89drop_in_place$LT$alloc..vec..Vec$LT$cli_generator..core..query..attributes..Field$GT$$GT$17h7ca69854a5ee5c1aE', symObjAddr: 0x1544, symBinAddr: 0x17224, symSize: 0x5C }
  - { offset: 0x27173, size: 0x8, addend: 0x0, symName: '__ZN4core3ptr89drop_in_place$LT$core..result..Result$LT$alloc..string..String$C$pyo3..err..PyErr$GT$$GT$17ha6cd4be73858842aE', symObjAddr: 0x15A0, symBinAddr: 0x17280, symSize: 0x50 }
  - { offset: 0x271A2, size: 0x8, addend: 0x0, symName: '__ZN4core3ptr89drop_in_place$LT$serde..private..de..FlatStructAccess$LT$serde_yaml..error..Error$GT$$GT$17h4fd1159585f29cbaE', symObjAddr: 0x15F0, symBinAddr: 0x172D0, symSize: 0x24 }
  - { offset: 0x271D1, size: 0x8, addend: 0x0, symName: '__ZN4core3ptr90drop_in_place$LT$hashbrown..raw..RawTable$LT$$LP$alloc..string..String$C$usize$RP$$GT$$GT$17h78d6958b0465ca84E', symObjAddr: 0x1614, symBinAddr: 0x172F4, symSize: 0x24 }
  - { offset: 0x27200, size: 0x8, addend: 0x0, symName: '__ZN4core3ptr91drop_in_place$LT$alloc..vec..Vec$LT$cli_generator..core..query..url..ExclusionParam$GT$$GT$17h7483175b06ffbc9fE', symObjAddr: 0x1638, symBinAddr: 0x17318, symSize: 0x5C }
  - { offset: 0x2722F, size: 0x8, addend: 0x0, symName: '__ZN4core3ptr92drop_in_place$LT$alloc..vec..Vec$LT$cli_generator..core..query..attributes..Modifier$GT$$GT$17hdec7a0f1db62b371E', symObjAddr: 0x1694, symBinAddr: 0x17374, symSize: 0x5C }
  - { offset: 0x2725E, size: 0x8, addend: 0x0, symName: '__ZN4core3ptr93drop_in_place$LT$alloc..vec..Vec$LT$cli_generator..core..query..attributes..Attribute$GT$$GT$17h4122e11fafd8bfb1E', symObjAddr: 0x16F0, symBinAddr: 0x173D0, symSize: 0x5C }
  - { offset: 0x2728D, size: 0x8, addend: 0x0, symName: '__ZN4core3ptr94drop_in_place$LT$std..collections..hash..map..HashMap$LT$alloc..string..String$C$usize$GT$$GT$17h4aadf980b0480665E', symObjAddr: 0x174C, symBinAddr: 0x1742C, symSize: 0x24 }
  - { offset: 0x272BC, size: 0x8, addend: 0x0, symName: '__ZN4core3ptr95drop_in_place$LT$core..result..Result$LT$pyo3..pybacked..PyBackedStr$C$pyo3..err..PyErr$GT$$GT$17h5d3e2d79700ed6ddE', symObjAddr: 0x1770, symBinAddr: 0x17450, symSize: 0x50 }
  - { offset: 0x272EB, size: 0x8, addend: 0x0, symName: '__ZN4core3ptr96drop_in_place$LT$alloc..raw_vec..RawVec$LT$cli_generator..core..query..attributes..Field$GT$$GT$17he316022814299d5cE', symObjAddr: 0x17C0, symBinAddr: 0x174A0, symSize: 0x24 }
  - { offset: 0x2731A, size: 0x8, addend: 0x0, symName: '__ZN4core3ptr97drop_in_place$LT$alloc..vec..into_iter..IntoIter$LT$serde_core..private..content..Content$GT$$GT$17hd6f7c25ce24aa9caE', symObjAddr: 0x17E4, symBinAddr: 0x174C4, symSize: 0x24 }
  - { offset: 0x27349, size: 0x8, addend: 0x0, symName: '__ZN4core3ptr97drop_in_place$LT$serde..private..de..content..MapDeserializer$LT$serde_yaml..error..Error$GT$$GT$17h80653757af8c0afdE', symObjAddr: 0x1808, symBinAddr: 0x174E8, symSize: 0x5C }
  - { offset: 0x27378, size: 0x8, addend: 0x0, symName: '__ZN4core3ptr97drop_in_place$LT$serde..private..de..content..SeqDeserializer$LT$serde_yaml..error..Error$GT$$GT$17hb74b4f76e484af0fE', symObjAddr: 0x1864, symBinAddr: 0x17544, symSize: 0x24 }
  - { offset: 0x273A7, size: 0x8, addend: 0x0, symName: '__ZN4core3ptr98drop_in_place$LT$alloc..raw_vec..RawVec$LT$cli_generator..core..query..url..ExclusionParam$GT$$GT$17h4de72b02bf9e082cE', symObjAddr: 0x1888, symBinAddr: 0x17568, symSize: 0x24 }
  - { offset: 0x273D6, size: 0x8, addend: 0x0, symName: '__ZN4core3ptr98drop_in_place$LT$core..option..Option$LT$core..option..Option$LT$alloc..string..String$GT$$GT$$GT$17h2656c66b63b842c0E', symObjAddr: 0x18AC, symBinAddr: 0x1758C, symSize: 0x48 }
  - { offset: 0x27405, size: 0x8, addend: 0x0, symName: '__ZN4core3ptr99drop_in_place$LT$alloc..raw_vec..RawVec$LT$cli_generator..core..query..attributes..Modifier$GT$$GT$17hc68c8295d9e2e92cE', symObjAddr: 0x18F4, symBinAddr: 0x175D4, symSize: 0x24 }
  - { offset: 0x276C0, size: 0x8, addend: 0x0, symName: __ZN4core3ops8function5FnMut8call_mut17h40630157c436ee60E, symObjAddr: 0xD8, symBinAddr: 0x15E48, symSize: 0x28 }
  - { offset: 0x27704, size: 0x8, addend: 0x0, symName: __ZN4core3ops8function5FnMut8call_mut17h67f732b951349c95E, symObjAddr: 0x100, symBinAddr: 0x15E70, symSize: 0x28 }
  - { offset: 0x2774E, size: 0x8, addend: 0x0, symName: '__ZN4core3ops8function6FnOnce40call_once$u7b$$u7b$vtable.shim$u7d$$u7d$17h5c75216b63d8b762E', symObjAddr: 0x128, symBinAddr: 0x15E98, symSize: 0x38 }
  - { offset: 0x27792, size: 0x8, addend: 0x0, symName: '__ZN4core3ops8function6FnOnce40call_once$u7b$$u7b$vtable.shim$u7d$$u7d$17hc28e214033b0d687E', symObjAddr: 0x160, symBinAddr: 0x15ED0, symSize: 0x38 }
  - { offset: 0x277D6, size: 0x8, addend: 0x0, symName: __ZN4core3ops8function6FnOnce9call_once17h00ac15108e10357eE, symObjAddr: 0x198, symBinAddr: 0x15F08, symSize: 0x4C }
  - { offset: 0x2781A, size: 0x8, addend: 0x0, symName: __ZN4core3ops8function6FnOnce9call_once17h0ba64301228d9a37E, symObjAddr: 0x1E4, symBinAddr: 0x15F54, symSize: 0x34 }
  - { offset: 0x2785E, size: 0x8, addend: 0x0, symName: __ZN4core3ops8function6FnOnce9call_once17h1d926427b7a5fe96E, symObjAddr: 0x218, symBinAddr: 0x15F88, symSize: 0x3C }
  - { offset: 0x278A2, size: 0x8, addend: 0x0, symName: __ZN4core3ops8function6FnOnce9call_once17h22cb7cd595371599E, symObjAddr: 0x254, symBinAddr: 0x15FC4, symSize: 0x24 }
  - { offset: 0x278E6, size: 0x8, addend: 0x0, symName: __ZN4core3ops8function6FnOnce9call_once17h238ae66936406992E, symObjAddr: 0x278, symBinAddr: 0x15FE8, symSize: 0x40 }
  - { offset: 0x2792A, size: 0x8, addend: 0x0, symName: __ZN4core3ops8function6FnOnce9call_once17h25dee558789a59e4E, symObjAddr: 0x2B8, symBinAddr: 0x16028, symSize: 0x34 }
  - { offset: 0x2796E, size: 0x8, addend: 0x0, symName: __ZN4core3ops8function6FnOnce9call_once17h3bfe479ed6e312d0E, symObjAddr: 0x2EC, symBinAddr: 0x1605C, symSize: 0x24 }
  - { offset: 0x279B2, size: 0x8, addend: 0x0, symName: __ZN4core3ops8function6FnOnce9call_once17h497ddda7a363b6c5E, symObjAddr: 0x310, symBinAddr: 0x16080, symSize: 0x24 }
  - { offset: 0x279F6, size: 0x8, addend: 0x0, symName: __ZN4core3ops8function6FnOnce9call_once17h4c8ea3e4ae72f87fE, symObjAddr: 0x334, symBinAddr: 0x160A4, symSize: 0x34 }
  - { offset: 0x27A3A, size: 0x8, addend: 0x0, symName: __ZN4core3ops8function6FnOnce9call_once17h5148cbe31fd3b2e6E, symObjAddr: 0x368, symBinAddr: 0x160D8, symSize: 0x34 }
  - { offset: 0x27A7E, size: 0x8, addend: 0x0, symName: __ZN4core3ops8function6FnOnce9call_once17h6951a1132432b75eE, symObjAddr: 0x39C, symBinAddr: 0x1610C, symSize: 0x24 }
  - { offset: 0x27AC2, size: 0x8, addend: 0x0, symName: __ZN4core3ops8function6FnOnce9call_once17h6a1d34b5a428f2bdE, symObjAddr: 0x3C0, symBinAddr: 0x16130, symSize: 0x3C }
  - { offset: 0x27B06, size: 0x8, addend: 0x0, symName: __ZN4core3ops8function6FnOnce9call_once17h6db245eddad585a8E, symObjAddr: 0x3FC, symBinAddr: 0x1616C, symSize: 0x34 }
  - { offset: 0x27B4A, size: 0x8, addend: 0x0, symName: __ZN4core3ops8function6FnOnce9call_once17h818b883f55b09679E, symObjAddr: 0x430, symBinAddr: 0x161A0, symSize: 0x24 }
  - { offset: 0x27B8E, size: 0x8, addend: 0x0, symName: __ZN4core3ops8function6FnOnce9call_once17h82e18f25777e3bd8E, symObjAddr: 0x454, symBinAddr: 0x161C4, symSize: 0x24 }
  - { offset: 0x27BD2, size: 0x8, addend: 0x0, symName: __ZN4core3ops8function6FnOnce9call_once17h96e261155aeb25a5E, symObjAddr: 0x478, symBinAddr: 0x161E8, symSize: 0x24 }
  - { offset: 0x27C16, size: 0x8, addend: 0x0, symName: __ZN4core3ops8function6FnOnce9call_once17ha447d91dcefca784E, symObjAddr: 0x49C, symBinAddr: 0x1620C, symSize: 0x44 }
  - { offset: 0x27C56, size: 0x8, addend: 0x0, symName: __ZN4core3ops8function6FnOnce9call_once17hb97a2e1cce6a3b26E, symObjAddr: 0x504, symBinAddr: 0x16250, symSize: 0x34 }
  - { offset: 0x27C9A, size: 0x8, addend: 0x0, symName: __ZN4core3ops8function6FnOnce9call_once17hbcad374f25ef1dc1E, symObjAddr: 0x538, symBinAddr: 0x16284, symSize: 0x24 }
  - { offset: 0x27CDE, size: 0x8, addend: 0x0, symName: __ZN4core3ops8function6FnOnce9call_once17hc24a4544e6f33924E, symObjAddr: 0x55C, symBinAddr: 0x162A8, symSize: 0x5C }
  - { offset: 0x27D22, size: 0x8, addend: 0x0, symName: __ZN4core3ops8function6FnOnce9call_once17hdf51021bce6dc1e9E, symObjAddr: 0x5B8, symBinAddr: 0x16304, symSize: 0x34 }
  - { offset: 0x27D66, size: 0x8, addend: 0x0, symName: __ZN4core3ops8function6FnOnce9call_once17he1f51f9e08702134E, symObjAddr: 0x5EC, symBinAddr: 0x16338, symSize: 0x40 }
  - { offset: 0x27DAA, size: 0x8, addend: 0x0, symName: __ZN4core3ops8function6FnOnce9call_once17hee8b35a431838446E, symObjAddr: 0x62C, symBinAddr: 0x16378, symSize: 0x58 }
  - { offset: 0x27DEE, size: 0x8, addend: 0x0, symName: __ZN4core3ops8function6FnOnce9call_once17hf8506064d895486eE, symObjAddr: 0x684, symBinAddr: 0x163D0, symSize: 0x34 }
  - { offset: 0x29E1A, size: 0x8, addend: 0x0, symName: '__ZN157_$LT$$LT$alloc..vec..into_iter..IntoIter$LT$T$C$A$GT$$u20$as$u20$core..ops..drop..Drop$GT$..drop..DropGuard$LT$T$C$A$GT$$u20$as$u20$core..ops..drop..Drop$GT$4drop17h4aee97ed372dd3e6E', symObjAddr: 0x0, symBinAddr: 0x15D70, symSize: 0x6C }
  - { offset: 0x29F5D, size: 0x8, addend: 0x0, symName: '__ZN157_$LT$$LT$alloc..vec..into_iter..IntoIter$LT$T$C$A$GT$$u20$as$u20$core..ops..drop..Drop$GT$..drop..DropGuard$LT$T$C$A$GT$$u20$as$u20$core..ops..drop..Drop$GT$4drop17he79caa8e735bceabE', symObjAddr: 0x6C, symBinAddr: 0x15DDC, symSize: 0x6C }
  - { offset: 0x2A0F0, size: 0x8, addend: 0x0, symName: '__ZN86_$LT$alloc..vec..into_iter..IntoIter$LT$T$C$A$GT$$u20$as$u20$core..ops..drop..Drop$GT$4drop17h950576555d919d0fE', symObjAddr: 0x1BC4, symBinAddr: 0x178A4, symSize: 0x78 }
  - { offset: 0x2A142, size: 0x8, addend: 0x0, symName: '__ZN86_$LT$alloc..vec..into_iter..IntoIter$LT$T$C$A$GT$$u20$as$u20$core..ops..drop..Drop$GT$4drop17hbef0785ba333e5eaE', symObjAddr: 0x1C3C, symBinAddr: 0x1791C, symSize: 0x78 }
  - { offset: 0x2A2BC, size: 0x8, addend: 0x0, symName: '__ZN70_$LT$alloc..vec..Vec$LT$T$C$A$GT$$u20$as$u20$core..ops..drop..Drop$GT$4drop17h070c3406a28c1e82E', symObjAddr: 0x1918, symBinAddr: 0x175F8, symSize: 0x24 }
  - { offset: 0x2A36C, size: 0x8, addend: 0x0, symName: '__ZN70_$LT$alloc..vec..Vec$LT$T$C$A$GT$$u20$as$u20$core..ops..drop..Drop$GT$4drop17h210f911366367469E', symObjAddr: 0x193C, symBinAddr: 0x1761C, symSize: 0x38 }
  - { offset: 0x2A41C, size: 0x8, addend: 0x0, symName: '__ZN70_$LT$alloc..vec..Vec$LT$T$C$A$GT$$u20$as$u20$core..ops..drop..Drop$GT$4drop17h502f29f0a4015ed8E', symObjAddr: 0x1974, symBinAddr: 0x17654, symSize: 0x38 }
  - { offset: 0x2A4CC, size: 0x8, addend: 0x0, symName: '__ZN70_$LT$alloc..vec..Vec$LT$T$C$A$GT$$u20$as$u20$core..ops..drop..Drop$GT$4drop17h594795e3920c5fb9E', symObjAddr: 0x19AC, symBinAddr: 0x1768C, symSize: 0x38 }
  - { offset: 0x2A57C, size: 0x8, addend: 0x0, symName: '__ZN70_$LT$alloc..vec..Vec$LT$T$C$A$GT$$u20$as$u20$core..ops..drop..Drop$GT$4drop17h8a3d338c6d283de5E', symObjAddr: 0x19E4, symBinAddr: 0x176C4, symSize: 0x38 }
  - { offset: 0x2A62C, size: 0x8, addend: 0x0, symName: '__ZN70_$LT$alloc..vec..Vec$LT$T$C$A$GT$$u20$as$u20$core..ops..drop..Drop$GT$4drop17he688269cac802c37E', symObjAddr: 0x1A1C, symBinAddr: 0x176FC, symSize: 0x38 }
  - { offset: 0x2AFE8, size: 0x8, addend: 0x0, symName: '__ZN77_$LT$alloc..raw_vec..RawVec$LT$T$C$A$GT$$u20$as$u20$core..ops..drop..Drop$GT$4drop17h35e4877463213000E', symObjAddr: 0x1A54, symBinAddr: 0x17734, symSize: 0x34 }
  - { offset: 0x2B024, size: 0x8, addend: 0x0, symName: '__ZN77_$LT$alloc..raw_vec..RawVec$LT$T$C$A$GT$$u20$as$u20$core..ops..drop..Drop$GT$4drop17h39a35881ab979ac4E', symObjAddr: 0x1A88, symBinAddr: 0x17768, symSize: 0x34 }
  - { offset: 0x2B060, size: 0x8, addend: 0x0, symName: '__ZN77_$LT$alloc..raw_vec..RawVec$LT$T$C$A$GT$$u20$as$u20$core..ops..drop..Drop$GT$4drop17h798789a442c7017aE', symObjAddr: 0x1ABC, symBinAddr: 0x1779C, symSize: 0x30 }
  - { offset: 0x2B09C, size: 0x8, addend: 0x0, symName: '__ZN77_$LT$alloc..raw_vec..RawVec$LT$T$C$A$GT$$u20$as$u20$core..ops..drop..Drop$GT$4drop17h8a0a3944545d35bdE', symObjAddr: 0x1AEC, symBinAddr: 0x177CC, symSize: 0x34 }
  - { offset: 0x2B0D8, size: 0x8, addend: 0x0, symName: '__ZN77_$LT$alloc..raw_vec..RawVec$LT$T$C$A$GT$$u20$as$u20$core..ops..drop..Drop$GT$4drop17hc263dcc5f9b5baf8E', symObjAddr: 0x1B20, symBinAddr: 0x17800, symSize: 0x34 }
  - { offset: 0x2B114, size: 0x8, addend: 0x0, symName: '__ZN77_$LT$alloc..raw_vec..RawVec$LT$T$C$A$GT$$u20$as$u20$core..ops..drop..Drop$GT$4drop17hd4aa4fe8842c01d7E', symObjAddr: 0x1B54, symBinAddr: 0x17834, symSize: 0x34 }
  - { offset: 0x2BDB6, size: 0x8, addend: 0x0, symName: '__ZN79_$LT$hashbrown..raw..RawTable$LT$T$C$A$GT$$u20$as$u20$core..ops..drop..Drop$GT$4drop17h1d1941581c28be65E', symObjAddr: 0x1B88, symBinAddr: 0x17868, symSize: 0x3C }
  - { offset: 0x2CE61, size: 0x8, addend: 0x0, symName: '__ZN4core7convert3num18ptr_try_from_impls69_$LT$impl$u20$core..convert..TryFrom$LT$u64$GT$$u20$for$u20$usize$GT$8try_from17h3b35b08e3551bb3bE', symObjAddr: 0x0, symBinAddr: 0x17994, symSize: 0x18 }
  - { offset: 0x2CE87, size: 0x8, addend: 0x0, symName: '__ZN4core7convert3num18ptr_try_from_impls69_$LT$impl$u20$core..convert..TryFrom$LT$u64$GT$$u20$for$u20$usize$GT$8try_from17h3b35b08e3551bb3bE', symObjAddr: 0x0, symBinAddr: 0x17994, symSize: 0x18 }
  - { offset: 0x2CF94, size: 0x8, addend: 0x0, symName: '__ZN110_$LT$core..ops..range..RangeFrom$LT$usize$GT$$u20$as$u20$core..slice..index..SliceIndex$LT$$u5b$T$u5d$$GT$$GT$5index17h8531142d7d7a3d10E', symObjAddr: 0x0, symBinAddr: 0x179AC, symSize: 0x70 }
  - { offset: 0x2D057, size: 0x8, addend: 0x0, symName: '__ZN110_$LT$core..ops..range..RangeFrom$LT$usize$GT$$u20$as$u20$core..slice..index..SliceIndex$LT$$u5b$T$u5d$$GT$$GT$5index17h8531142d7d7a3d10E', symObjAddr: 0x0, symBinAddr: 0x179AC, symSize: 0x70 }
  - { offset: 0x2D429, size: 0x8, addend: 0x0, symName: __ZN9hashbrown7control5group4neon5Group10match_full17hf6bfb0d0a0aa11e1E, symObjAddr: 0x0, symBinAddr: 0x17A1C, symSize: 0x68 }
  - { offset: 0x2D541, size: 0x8, addend: 0x0, symName: __ZN9hashbrown7control5group4neon5Group10match_full17hf6bfb0d0a0aa11e1E, symObjAddr: 0x0, symBinAddr: 0x17A1C, symSize: 0x68 }
  - { offset: 0x2D579, size: 0x8, addend: 0x0, symName: __ZN9hashbrown7control5group4neon5Group22match_empty_or_deleted17h7ba41bef391b6747E, symObjAddr: 0x68, symBinAddr: 0x17A84, symSize: 0x68 }
  - { offset: 0x2D5B1, size: 0x8, addend: 0x0, symName: __ZN9hashbrown7control5group4neon5Group44convert_special_to_empty_and_full_to_deleted17h4d3784daff432327E, symObjAddr: 0xD0, symBinAddr: 0x17AEC, symSize: 0x88 }
  - { offset: 0x2D5E9, size: 0x8, addend: 0x0, symName: __ZN9hashbrown7control5group4neon5Group9match_tag17h3eca662b4ad89091E, symObjAddr: 0x158, symBinAddr: 0x17B74, symSize: 0x7C }
  - { offset: 0x2D655, size: 0x8, addend: 0x0, symName: __ZN3std9panicking12catch_unwind7do_call17h8f931b4699752ab1E, symObjAddr: 0x0, symBinAddr: 0x17BF0, symSize: 0x78 }
  - { offset: 0x2E076, size: 0x8, addend: 0x0, symName: __ZN3std9panicking12catch_unwind7do_call17h8f931b4699752ab1E, symObjAddr: 0x0, symBinAddr: 0x17BF0, symSize: 0x78 }
  - { offset: 0x2E15D, size: 0x8, addend: 0x0, symName: __ZN3std9panicking12catch_unwind7do_call17h933b77c0375f4b70E, symObjAddr: 0x78, symBinAddr: 0x17C68, symSize: 0x6C }
  - { offset: 0x2E243, size: 0x8, addend: 0x0, symName: __ZN3std9panicking12catch_unwind7do_call17hfba0e8fde767d48eE, symObjAddr: 0xE4, symBinAddr: 0x17CD4, symSize: 0x7C }
  - { offset: 0x2E329, size: 0x8, addend: 0x0, symName: __ZN3std9panicking12catch_unwind8do_catch17h2461375ab4f38cf6E, symObjAddr: 0x160, symBinAddr: 0x17D50, symSize: 0x70 }
  - { offset: 0x2E3BE, size: 0x8, addend: 0x0, symName: __ZN3std9panicking12catch_unwind8do_catch17ha118dc1f3a398d94E, symObjAddr: 0x1D0, symBinAddr: 0x17DC0, symSize: 0x70 }
  - { offset: 0x2E453, size: 0x8, addend: 0x0, symName: __ZN3std9panicking12catch_unwind8do_catch17hdbe9685ddd88fe6bE, symObjAddr: 0x240, symBinAddr: 0x17E30, symSize: 0x70 }
  - { offset: 0x2E6FB, size: 0x8, addend: 0x0, symName: __ZN10serde_core2de9MapAccess10next_value17h18a704bfba81aa04E, symObjAddr: 0x0, symBinAddr: 0x17EA0, symSize: 0x24 }
  - { offset: 0x2ED09, size: 0x8, addend: 0x0, symName: __ZN10serde_core2de9MapAccess10next_value17h18a704bfba81aa04E, symObjAddr: 0x0, symBinAddr: 0x17EA0, symSize: 0x24 }
  - { offset: 0x2ED49, size: 0x8, addend: 0x0, symName: __ZN10serde_core2de9MapAccess10next_value17h6e493185620983d5E, symObjAddr: 0x24, symBinAddr: 0x17EC4, symSize: 0x24 }
  - { offset: 0x2ED89, size: 0x8, addend: 0x0, symName: __ZN10serde_core2de9MapAccess10next_value17h8ca95854e80f3fcaE, symObjAddr: 0x48, symBinAddr: 0x17EE8, symSize: 0x24 }
  - { offset: 0x2EDC9, size: 0x8, addend: 0x0, symName: __ZN10serde_core2de9MapAccess10next_value17h9be1ed08d323fbbdE, symObjAddr: 0x6C, symBinAddr: 0x17F0C, symSize: 0x24 }
  - { offset: 0x2EE09, size: 0x8, addend: 0x0, symName: __ZN10serde_core2de9MapAccess10next_value17hb373ab258789649cE, symObjAddr: 0x90, symBinAddr: 0x17F30, symSize: 0x24 }
  - { offset: 0x2EE49, size: 0x8, addend: 0x0, symName: __ZN10serde_core2de9MapAccess10next_value17hfd21248e0fb9011dE, symObjAddr: 0xB4, symBinAddr: 0x17F54, symSize: 0x24 }
  - { offset: 0x2EE89, size: 0x8, addend: 0x0, symName: __ZN10serde_core2de9MapAccess8next_key17h0f653ceb579b809cE, symObjAddr: 0xD8, symBinAddr: 0x17F78, symSize: 0x24 }
  - { offset: 0x2EEC9, size: 0x8, addend: 0x0, symName: __ZN10serde_core2de9MapAccess8next_key17hffd796e71277cc26E, symObjAddr: 0xFC, symBinAddr: 0x17F9C, symSize: 0x24 }
  - { offset: 0x2F24B, size: 0x8, addend: 0x0, symName: '__ZN117_$LT$serde..private..de..missing_field..MissingFieldDeserializer$LT$E$GT$$u20$as$u20$serde_core..de..Deserializer$GT$15deserialize_any17h0896ada781b676d3E', symObjAddr: 0x120, symBinAddr: 0x17FC0, symSize: 0x60 }
  - { offset: 0x2F297, size: 0x8, addend: 0x0, symName: '__ZN117_$LT$serde..private..de..missing_field..MissingFieldDeserializer$LT$E$GT$$u20$as$u20$serde_core..de..Deserializer$GT$15deserialize_any17had25f8f5850549c9E', symObjAddr: 0x180, symBinAddr: 0x18020, symSize: 0x60 }
  - { offset: 0x2F2E3, size: 0x8, addend: 0x0, symName: '__ZN117_$LT$serde..private..de..missing_field..MissingFieldDeserializer$LT$E$GT$$u20$as$u20$serde_core..de..Deserializer$GT$16deserialize_enum17h767a3b7421b881f7E', symObjAddr: 0x1E0, symBinAddr: 0x18080, symSize: 0x38 }
  - { offset: 0x2F34B, size: 0x8, addend: 0x0, symName: '__ZN117_$LT$serde..private..de..missing_field..MissingFieldDeserializer$LT$E$GT$$u20$as$u20$serde_core..de..Deserializer$GT$18deserialize_string17hd6b6ee69fd098b59E', symObjAddr: 0x218, symBinAddr: 0x180B8, symSize: 0x28 }
  - { offset: 0x2F3C3, size: 0x8, addend: 0x0, symName: __ZN5serde7private2de13missing_field17h518a5124bde54787E, symObjAddr: 0x240, symBinAddr: 0x180E0, symSize: 0x34 }
  - { offset: 0x2F41E, size: 0x8, addend: 0x0, symName: __ZN5serde7private2de13missing_field17h6fcf68afddad7b8bE, symObjAddr: 0x274, symBinAddr: 0x18114, symSize: 0x34 }
  - { offset: 0x2F47E, size: 0x8, addend: 0x0, symName: '__ZN91_$LT$serde..private..de..FlatStructAccess$LT$E$GT$$u20$as$u20$serde_core..de..MapAccess$GT$13next_key_seed17hcd710e4ed4d3c2dfE', symObjAddr: 0x2A8, symBinAddr: 0x18148, symSize: 0x25C }
  - { offset: 0x2F522, size: 0x8, addend: 0x0, symName: '__ZN91_$LT$serde..private..de..FlatStructAccess$LT$E$GT$$u20$as$u20$serde_core..de..MapAccess$GT$13next_key_seed17hdb2b0456949b2334E', symObjAddr: 0x504, symBinAddr: 0x183A4, symSize: 0x25C }
  - { offset: 0x2F5C6, size: 0x8, addend: 0x0, symName: '__ZN91_$LT$serde..private..de..FlatStructAccess$LT$E$GT$$u20$as$u20$serde_core..de..MapAccess$GT$15next_value_seed17h149e5266ed592dbaE', symObjAddr: 0x760, symBinAddr: 0x18600, symSize: 0x128 }
  - { offset: 0x2F62B, size: 0x8, addend: 0x0, symName: '__ZN91_$LT$serde..private..de..FlatStructAccess$LT$E$GT$$u20$as$u20$serde_core..de..MapAccess$GT$15next_value_seed17h9123ed030dc8b991E', symObjAddr: 0x888, symBinAddr: 0x18728, symSize: 0x128 }
  - { offset: 0x2F690, size: 0x8, addend: 0x0, symName: '__ZN91_$LT$serde..private..de..FlatStructAccess$LT$E$GT$$u20$as$u20$serde_core..de..MapAccess$GT$15next_value_seed17h929d1175a295ebf6E', symObjAddr: 0x9B0, symBinAddr: 0x18850, symSize: 0x128 }
  - { offset: 0x2F6F5, size: 0x8, addend: 0x0, symName: '__ZN91_$LT$serde..private..de..FlatStructAccess$LT$E$GT$$u20$as$u20$serde_core..de..MapAccess$GT$15next_value_seed17ha443e440e1910077E', symObjAddr: 0xAD8, symBinAddr: 0x18978, symSize: 0x128 }
  - { offset: 0x2F75A, size: 0x8, addend: 0x0, symName: '__ZN91_$LT$serde..private..de..FlatStructAccess$LT$E$GT$$u20$as$u20$serde_core..de..MapAccess$GT$15next_value_seed17hc91b93798be04879E', symObjAddr: 0xC00, symBinAddr: 0x18AA0, symSize: 0x128 }
  - { offset: 0x2F7BF, size: 0x8, addend: 0x0, symName: '__ZN91_$LT$serde..private..de..FlatStructAccess$LT$E$GT$$u20$as$u20$serde_core..de..MapAccess$GT$15next_value_seed17hce19748f2dc5d473E', symObjAddr: 0xD28, symBinAddr: 0x18BC8, symSize: 0x124 }
  - { offset: 0x2F82B, size: 0x8, addend: 0x0, symName: '__ZN97_$LT$serde..private..de..FlatMapDeserializer$LT$E$GT$$u20$as$u20$serde_core..de..Deserializer$GT$18deserialize_struct17h1f715c06d8630ecaE', symObjAddr: 0xE4C, symBinAddr: 0x18CEC, symSize: 0xF0 }
  - { offset: 0x2F896, size: 0x8, addend: 0x0, symName: '__ZN97_$LT$serde..private..de..FlatMapDeserializer$LT$E$GT$$u20$as$u20$serde_core..de..Deserializer$GT$18deserialize_struct17h3fd2fb69dafaa4b4E', symObjAddr: 0xF3C, symBinAddr: 0x18DDC, symSize: 0xF0 }
  - { offset: 0x30FF7, size: 0x8, addend: 0x0, symName: __ZN4core4hint16assert_unchecked18precondition_check17hc654f9e429c6969bE, symObjAddr: 0x0, symBinAddr: 0x18ECC, symSize: 0xA4 }
  - { offset: 0x31319, size: 0x8, addend: 0x0, symName: __ZN4core4hint16assert_unchecked18precondition_check17hc654f9e429c6969bE, symObjAddr: 0x0, symBinAddr: 0x18ECC, symSize: 0xA4 }
  - { offset: 0x31379, size: 0x8, addend: 0x0, symName: __ZN4core4hint21unreachable_unchecked18precondition_check17h800c47df652493a0E, symObjAddr: 0xA4, symBinAddr: 0x18F70, symSize: 0x84 }
  - { offset: 0x3158C, size: 0x8, addend: 0x0, symName: __ZN13cli_generator4core5query3url12assemble_url17hdb45956d52452907E, symObjAddr: 0x0, symBinAddr: 0x18FF4, symSize: 0xDC4 }
  - { offset: 0x317D1, size: 0x8, addend: 0x0, symName: __ZN13cli_generator4core5query3url12assemble_url17hdb45956d52452907E, symObjAddr: 0x0, symBinAddr: 0x18FF4, symSize: 0xDC4 }
  - { offset: 0x31E24, size: 0x8, addend: 0x0, symName: __ZN13cli_generator4core5query3url12encode_param17h139e7c5d1d6ef3f1E, symObjAddr: 0xDC4, symBinAddr: 0x19DB8, symSize: 0x48 }
  - { offset: 0x31E52, size: 0x8, addend: 0x0, symName: __ZN13cli_generator4core5query3url15build_query_url17heed5dbb1402eb9b2E, symObjAddr: 0xE0C, symBinAddr: 0x19E00, symSize: 0x238 }
  - { offset: 0x31EFC, size: 0x8, addend: 0x0, symName: __ZN13cli_generator4core5query3url17build_id_fragment17hf67869afbe270436E, symObjAddr: 0x1044, symBinAddr: 0x1A038, symSize: 0x150 }
  - { offset: 0x31F87, size: 0x8, addend: 0x0, symName: __ZN13cli_generator4core5query3url18build_field_params17haef89e3cd0d63c18E, symObjAddr: 0x1194, symBinAddr: 0x1A188, symSize: 0x29C }
  - { offset: 0x32093, size: 0x8, addend: 0x0, symName: __ZN13cli_generator4core5query3url19build_rank_fragment17h17af5b9bf290d1e6E, symObjAddr: 0x1430, symBinAddr: 0x1A424, symSize: 0x34 }
  - { offset: 0x320BF, size: 0x8, addend: 0x0, symName: __ZN13cli_generator4core5query3url19build_taxa_fragment17hc360eb94202f1582E, symObjAddr: 0x1464, symBinAddr: 0x1A458, symSize: 0x160 }
  - { offset: 0x32159, size: 0x8, addend: 0x0, symName: __ZN13cli_generator4core5query3url22build_exclusion_params17hcbadacfa3c970f35E, symObjAddr: 0x15C4, symBinAddr: 0x1A5B8, symSize: 0x434 }
  - { offset: 0x322F6, size: 0x8, addend: 0x0, symName: __ZN13cli_generator4core5query3url22format_attribute_value17hc5b314012460665dE, symObjAddr: 0x19F8, symBinAddr: 0x1A9EC, symSize: 0x80 }
  - { offset: 0x3235C, size: 0x8, addend: 0x0, symName: __ZN13cli_generator4core5query3url24build_raw_query_fragment17h3bc7b9e6f4cf4854E, symObjAddr: 0x1A78, symBinAddr: 0x1AA6C, symSize: 0x2E8 }
  - { offset: 0x32430, size: 0x8, addend: 0x0, symName: __ZN13cli_generator4core5query3url25build_attribute_fragments17h83f1c7b1c50a1dd1E, symObjAddr: 0x1D60, symBinAddr: 0x1AD54, symSize: 0x38 }
  - { offset: 0x3245C, size: 0x8, addend: 0x0, symName: __ZN13cli_generator4core5query3url31build_single_attribute_fragment17hf86e21343b49b76eE, symObjAddr: 0x1D98, symBinAddr: 0x1AD8C, symSize: 0x3CC }
  - { offset: 0x33650, size: 0x8, addend: 0x0, symName: '__ZN13cli_generator13cli_generator11__pyo3_init28_$u7b$$u7b$closure$u7d$$u7d$17hc33df214233b94c4E', symObjAddr: 0x0, symBinAddr: 0x1B158, symSize: 0x28 }
  - { offset: 0x336D3, size: 0x8, addend: 0x0, symName: '__ZN13cli_generator13cli_generator11__pyo3_init28_$u7b$$u7b$closure$u7d$$u7d$17hc33df214233b94c4E', symObjAddr: 0x0, symBinAddr: 0x1B158, symSize: 0x28 }
  - { offset: 0x33D98, size: 0x8, addend: 0x0, symName: '__ZN63_$LT$I$u20$as$u20$core..iter..traits..collect..IntoIterator$GT$9into_iter17h8852dbdc87ef4b11E', symObjAddr: 0x0, symBinAddr: 0x1B180, symSize: 0x18 }
  - { offset: 0x33E25, size: 0x8, addend: 0x0, symName: '__ZN63_$LT$I$u20$as$u20$core..iter..traits..collect..IntoIterator$GT$9into_iter17h8852dbdc87ef4b11E', symObjAddr: 0x0, symBinAddr: 0x1B180, symSize: 0x18 }
  - { offset: 0x34107, size: 0x8, addend: 0x0, symName: '__ZN4pyo38instance39Borrowed$LT$pyo3..types..any..PyAny$GT$15from_ptr_or_opt17h197ae8f5b1f51bdeE', symObjAddr: 0x0, symBinAddr: 0x1B198, symSize: 0x2C }
  - { offset: 0x344E6, size: 0x8, addend: 0x0, symName: '__ZN4pyo38instance39Borrowed$LT$pyo3..types..any..PyAny$GT$15from_ptr_or_opt17h197ae8f5b1f51bdeE', symObjAddr: 0x0, symBinAddr: 0x1B198, symSize: 0x2C }
  - { offset: 0x3457D, size: 0x8, addend: 0x0, symName: '__ZN4pyo38instance39Borrowed$LT$pyo3..types..any..PyAny$GT$8from_ptr17h9576696d90b58a52E', symObjAddr: 0x2C, symBinAddr: 0x1B1C4, symSize: 0x34 }
  - { offset: 0x345D9, size: 0x8, addend: 0x0, symName: '__ZN5alloc3str56_$LT$impl$u20$alloc..borrow..ToOwned$u20$for$u20$str$GT$8to_owned17h660df42efc6cdaa6E', symObjAddr: 0x0, symBinAddr: 0x1B1F8, symSize: 0x50 }
  - { offset: 0x3488F, size: 0x8, addend: 0x0, symName: '__ZN5alloc3str56_$LT$impl$u20$alloc..borrow..ToOwned$u20$for$u20$str$GT$8to_owned17h660df42efc6cdaa6E', symObjAddr: 0x0, symBinAddr: 0x1B1F8, symSize: 0x50 }
  - { offset: 0x34997, size: 0x8, addend: 0x0, symName: '__ZN87_$LT$serde_core..de..ignored_any..IgnoredAny$u20$as$u20$serde_core..de..Deserialize$GT$11deserialize17hdae339e7daa2efc5E', symObjAddr: 0x0, symBinAddr: 0x1B248, symSize: 0x14 }
  - { offset: 0x34C99, size: 0x8, addend: 0x0, symName: '__ZN87_$LT$serde_core..de..ignored_any..IgnoredAny$u20$as$u20$serde_core..de..Deserialize$GT$11deserialize17hdae339e7daa2efc5E', symObjAddr: 0x0, symBinAddr: 0x1B248, symSize: 0x14 }
  - { offset: 0x35A31, size: 0x8, addend: 0x0, symName: '__ZN86_$LT$core..marker..PhantomData$LT$T$GT$$u20$as$u20$serde_core..de..DeserializeSeed$GT$11deserialize17h049cf9397311c1c8E', symObjAddr: 0x0, symBinAddr: 0x1B25C, symSize: 0x1C }
  - { offset: 0x36730, size: 0x8, addend: 0x0, symName: '__ZN86_$LT$core..marker..PhantomData$LT$T$GT$$u20$as$u20$serde_core..de..DeserializeSeed$GT$11deserialize17h049cf9397311c1c8E', symObjAddr: 0x0, symBinAddr: 0x1B25C, symSize: 0x1C }
  - { offset: 0x3678C, size: 0x8, addend: 0x0, symName: '__ZN86_$LT$core..marker..PhantomData$LT$T$GT$$u20$as$u20$serde_core..de..DeserializeSeed$GT$11deserialize17h2d8e5ab0a38dc6afE', symObjAddr: 0x1C, symBinAddr: 0x1B278, symSize: 0x1C }
  - { offset: 0x367E8, size: 0x8, addend: 0x0, symName: '__ZN86_$LT$core..marker..PhantomData$LT$T$GT$$u20$as$u20$serde_core..de..DeserializeSeed$GT$11deserialize17h2f8cd2615b03587dE', symObjAddr: 0x38, symBinAddr: 0x1B294, symSize: 0x1C }
  - { offset: 0x36844, size: 0x8, addend: 0x0, symName: '__ZN86_$LT$core..marker..PhantomData$LT$T$GT$$u20$as$u20$serde_core..de..DeserializeSeed$GT$11deserialize17h308e6d192bc62ff9E', symObjAddr: 0x54, symBinAddr: 0x1B2B0, symSize: 0x1C }
  - { offset: 0x368A0, size: 0x8, addend: 0x0, symName: '__ZN86_$LT$core..marker..PhantomData$LT$T$GT$$u20$as$u20$serde_core..de..DeserializeSeed$GT$11deserialize17h31b5dedfcce2167aE', symObjAddr: 0x70, symBinAddr: 0x1B2CC, symSize: 0x1C }
  - { offset: 0x368FC, size: 0x8, addend: 0x0, symName: '__ZN86_$LT$core..marker..PhantomData$LT$T$GT$$u20$as$u20$serde_core..de..DeserializeSeed$GT$11deserialize17h33e7cb7c3a43838dE', symObjAddr: 0x8C, symBinAddr: 0x1B2E8, symSize: 0x24 }
  - { offset: 0x36957, size: 0x8, addend: 0x0, symName: '__ZN86_$LT$core..marker..PhantomData$LT$T$GT$$u20$as$u20$serde_core..de..DeserializeSeed$GT$11deserialize17h40d14517cfcb97f8E', symObjAddr: 0xB0, symBinAddr: 0x1B30C, symSize: 0x28 }
  - { offset: 0x369B2, size: 0x8, addend: 0x0, symName: '__ZN86_$LT$core..marker..PhantomData$LT$T$GT$$u20$as$u20$serde_core..de..DeserializeSeed$GT$11deserialize17h42ca6ecaabf66d03E', symObjAddr: 0xD8, symBinAddr: 0x1B334, symSize: 0x1C }
  - { offset: 0x36A0E, size: 0x8, addend: 0x0, symName: '__ZN86_$LT$core..marker..PhantomData$LT$T$GT$$u20$as$u20$serde_core..de..DeserializeSeed$GT$11deserialize17h44f76820c74d2916E', symObjAddr: 0xF4, symBinAddr: 0x1B350, symSize: 0x24 }
  - { offset: 0x36A69, size: 0x8, addend: 0x0, symName: '__ZN86_$LT$core..marker..PhantomData$LT$T$GT$$u20$as$u20$serde_core..de..DeserializeSeed$GT$11deserialize17h460543cdc147537dE', symObjAddr: 0x118, symBinAddr: 0x1B374, symSize: 0x24 }
  - { offset: 0x36AC4, size: 0x8, addend: 0x0, symName: '__ZN86_$LT$core..marker..PhantomData$LT$T$GT$$u20$as$u20$serde_core..de..DeserializeSeed$GT$11deserialize17h53efbc95406ed639E', symObjAddr: 0x13C, symBinAddr: 0x1B398, symSize: 0x1C }
  - { offset: 0x36B20, size: 0x8, addend: 0x0, symName: '__ZN86_$LT$core..marker..PhantomData$LT$T$GT$$u20$as$u20$serde_core..de..DeserializeSeed$GT$11deserialize17h584517beaf0d8d4eE', symObjAddr: 0x158, symBinAddr: 0x1B3B4, symSize: 0x1C }
  - { offset: 0x36B7C, size: 0x8, addend: 0x0, symName: '__ZN86_$LT$core..marker..PhantomData$LT$T$GT$$u20$as$u20$serde_core..de..DeserializeSeed$GT$11deserialize17h5b9f066b7ab6a4e5E', symObjAddr: 0x174, symBinAddr: 0x1B3D0, symSize: 0x1C }
  - { offset: 0x36BD8, size: 0x8, addend: 0x0, symName: '__ZN86_$LT$core..marker..PhantomData$LT$T$GT$$u20$as$u20$serde_core..de..DeserializeSeed$GT$11deserialize17h5f82997031aa7d43E', symObjAddr: 0x190, symBinAddr: 0x1B3EC, symSize: 0x24 }
  - { offset: 0x36C33, size: 0x8, addend: 0x0, symName: '__ZN86_$LT$core..marker..PhantomData$LT$T$GT$$u20$as$u20$serde_core..de..DeserializeSeed$GT$11deserialize17h5fbc18a0d98b52dcE', symObjAddr: 0x1B4, symBinAddr: 0x1B410, symSize: 0x24 }
  - { offset: 0x36C8E, size: 0x8, addend: 0x0, symName: '__ZN86_$LT$core..marker..PhantomData$LT$T$GT$$u20$as$u20$serde_core..de..DeserializeSeed$GT$11deserialize17h5ff569ad90659448E', symObjAddr: 0x1D8, symBinAddr: 0x1B434, symSize: 0x1C }
  - { offset: 0x36CEA, size: 0x8, addend: 0x0, symName: '__ZN86_$LT$core..marker..PhantomData$LT$T$GT$$u20$as$u20$serde_core..de..DeserializeSeed$GT$11deserialize17h671a867749ff139aE', symObjAddr: 0x1F4, symBinAddr: 0x1B450, symSize: 0x24 }
  - { offset: 0x36D45, size: 0x8, addend: 0x0, symName: '__ZN86_$LT$core..marker..PhantomData$LT$T$GT$$u20$as$u20$serde_core..de..DeserializeSeed$GT$11deserialize17h6f3be8bf3ae55311E', symObjAddr: 0x218, symBinAddr: 0x1B474, symSize: 0x1C }
  - { offset: 0x36DA1, size: 0x8, addend: 0x0, symName: '__ZN86_$LT$core..marker..PhantomData$LT$T$GT$$u20$as$u20$serde_core..de..DeserializeSeed$GT$11deserialize17h7d2845ed8eef5097E', symObjAddr: 0x234, symBinAddr: 0x1B490, symSize: 0x24 }
  - { offset: 0x36DFC, size: 0x8, addend: 0x0, symName: '__ZN86_$LT$core..marker..PhantomData$LT$T$GT$$u20$as$u20$serde_core..de..DeserializeSeed$GT$11deserialize17h814fea175c727386E', symObjAddr: 0x258, symBinAddr: 0x1B4B4, symSize: 0x24 }
  - { offset: 0x36E57, size: 0x8, addend: 0x0, symName: '__ZN86_$LT$core..marker..PhantomData$LT$T$GT$$u20$as$u20$serde_core..de..DeserializeSeed$GT$11deserialize17h873e3c36306ff3eaE', symObjAddr: 0x27C, symBinAddr: 0x1B4D8, symSize: 0x1C }
  - { offset: 0x36EB3, size: 0x8, addend: 0x0, symName: '__ZN86_$LT$core..marker..PhantomData$LT$T$GT$$u20$as$u20$serde_core..de..DeserializeSeed$GT$11deserialize17h898f4400b38c7d69E', symObjAddr: 0x298, symBinAddr: 0x1B4F4, symSize: 0x1C }
  - { offset: 0x36F0F, size: 0x8, addend: 0x0, symName: '__ZN86_$LT$core..marker..PhantomData$LT$T$GT$$u20$as$u20$serde_core..de..DeserializeSeed$GT$11deserialize17h9775958934ff1861E', symObjAddr: 0x2B4, symBinAddr: 0x1B510, symSize: 0x24 }
  - { offset: 0x36F6A, size: 0x8, addend: 0x0, symName: '__ZN86_$LT$core..marker..PhantomData$LT$T$GT$$u20$as$u20$serde_core..de..DeserializeSeed$GT$11deserialize17h9adf897ffd615ffbE', symObjAddr: 0x2D8, symBinAddr: 0x1B534, symSize: 0x1C }
  - { offset: 0x36FC6, size: 0x8, addend: 0x0, symName: '__ZN86_$LT$core..marker..PhantomData$LT$T$GT$$u20$as$u20$serde_core..de..DeserializeSeed$GT$11deserialize17ha421fa1c91b02071E', symObjAddr: 0x2F4, symBinAddr: 0x1B550, symSize: 0x1C }
  - { offset: 0x37022, size: 0x8, addend: 0x0, symName: '__ZN86_$LT$core..marker..PhantomData$LT$T$GT$$u20$as$u20$serde_core..de..DeserializeSeed$GT$11deserialize17ha67ea001fafd7a08E', symObjAddr: 0x310, symBinAddr: 0x1B56C, symSize: 0x1C }
  - { offset: 0x3707E, size: 0x8, addend: 0x0, symName: '__ZN86_$LT$core..marker..PhantomData$LT$T$GT$$u20$as$u20$serde_core..de..DeserializeSeed$GT$11deserialize17hae3a0dd2e8dc1f15E', symObjAddr: 0x32C, symBinAddr: 0x1B588, symSize: 0x1C }
  - { offset: 0x370DA, size: 0x8, addend: 0x0, symName: '__ZN86_$LT$core..marker..PhantomData$LT$T$GT$$u20$as$u20$serde_core..de..DeserializeSeed$GT$11deserialize17hb2ba613e18f72097E', symObjAddr: 0x348, symBinAddr: 0x1B5A4, symSize: 0x1C }
  - { offset: 0x37136, size: 0x8, addend: 0x0, symName: '__ZN86_$LT$core..marker..PhantomData$LT$T$GT$$u20$as$u20$serde_core..de..DeserializeSeed$GT$11deserialize17hc1a65b22f9c1bd2cE', symObjAddr: 0x364, symBinAddr: 0x1B5C0, symSize: 0x1C }
  - { offset: 0x37192, size: 0x8, addend: 0x0, symName: '__ZN86_$LT$core..marker..PhantomData$LT$T$GT$$u20$as$u20$serde_core..de..DeserializeSeed$GT$11deserialize17hce462a7d8f6dd0efE', symObjAddr: 0x380, symBinAddr: 0x1B5DC, symSize: 0x24 }
  - { offset: 0x371ED, size: 0x8, addend: 0x0, symName: '__ZN86_$LT$core..marker..PhantomData$LT$T$GT$$u20$as$u20$serde_core..de..DeserializeSeed$GT$11deserialize17hd5189edba9ef8c17E', symObjAddr: 0x3A4, symBinAddr: 0x1B600, symSize: 0x28 }
  - { offset: 0x37248, size: 0x8, addend: 0x0, symName: '__ZN86_$LT$core..marker..PhantomData$LT$T$GT$$u20$as$u20$serde_core..de..DeserializeSeed$GT$11deserialize17hdbe134c2b253033bE', symObjAddr: 0x3CC, symBinAddr: 0x1B628, symSize: 0x1C }
  - { offset: 0x372A4, size: 0x8, addend: 0x0, symName: '__ZN86_$LT$core..marker..PhantomData$LT$T$GT$$u20$as$u20$serde_core..de..DeserializeSeed$GT$11deserialize17hfc393b04c93333a0E', symObjAddr: 0x3E8, symBinAddr: 0x1B644, symSize: 0x24 }
  - { offset: 0x39779, size: 0x8, addend: 0x0, symName: '__ZN63_$LT$I$u20$as$u20$core..iter..traits..collect..IntoIterator$GT$9into_iter17h95c3c07cd7a41820E', symObjAddr: 0x0, symBinAddr: 0x1B668, symSize: 0x30 }
  - { offset: 0x39806, size: 0x8, addend: 0x0, symName: '__ZN63_$LT$I$u20$as$u20$core..iter..traits..collect..IntoIterator$GT$9into_iter17h95c3c07cd7a41820E', symObjAddr: 0x0, symBinAddr: 0x1B668, symSize: 0x30 }
  - { offset: 0x39CC8, size: 0x8, addend: 0x0, symName: _PyInit_cli_generator, symObjAddr: 0x0, symBinAddr: 0x1B698, symSize: 0x34 }
  - { offset: 0x39CEC, size: 0x8, addend: 0x0, symName: __ZN13cli_generator13cli_generator9_PYO3_DEF17h8171a1cb09646aacE, symObjAddr: 0x80, symBinAddr: 0x144340, symSize: 0x0 }
  - { offset: 0x39CF9, size: 0x8, addend: 0x0, symName: _PyInit_cli_generator, symObjAddr: 0x0, symBinAddr: 0x1B698, symSize: 0x34 }
  - { offset: 0x3A9B1, size: 0x8, addend: 0x0, symName: '__ZN13cli_generator4core5query3url18build_field_params28_$u7b$$u7b$closure$u7d$$u7d$17h3b165dd287c37131E', symObjAddr: 0x0, symBinAddr: 0x1B6CC, symSize: 0x2C }
  - { offset: 0x3AB02, size: 0x8, addend: 0x0, symName: '__ZN13cli_generator4core5query3url18build_field_params28_$u7b$$u7b$closure$u7d$$u7d$17h3b165dd287c37131E', symObjAddr: 0x0, symBinAddr: 0x1B6CC, symSize: 0x2C }
  - { offset: 0x3AB48, size: 0x8, addend: 0x0, symName: '__ZN13cli_generator4core5query3url19build_rank_fragment28_$u7b$$u7b$closure$u7d$$u7d$17h0b3a9192a16fd18eE', symObjAddr: 0x2C, symBinAddr: 0x1B6F8, symSize: 0x34 }
  - { offset: 0x3AB7E, size: 0x8, addend: 0x0, symName: '__ZN13cli_generator4core5query3url19build_rank_fragment28_$u7b$$u7b$closure$u7d$$u7d$17h5dd652d96bb5b1c1E', symObjAddr: 0x60, symBinAddr: 0x1B72C, symSize: 0x7C }
  - { offset: 0x3AC1F, size: 0x8, addend: 0x0, symName: '__ZN13cli_generator4core5query3url22build_exclusion_params28_$u7b$$u7b$closure$u7d$$u7d$17hb88d7ddf736d6bb1E', symObjAddr: 0xDC, symBinAddr: 0x1B7A8, symSize: 0x2C }
  - { offset: 0x3AC62, size: 0x8, addend: 0x0, symName: '__ZN13cli_generator4core5query3url31build_single_attribute_fragment28_$u7b$$u7b$closure$u7d$$u7d$17hfa3f1bc3464f4b2cE', symObjAddr: 0x108, symBinAddr: 0x1B7D4, symSize: 0x2C }
  - { offset: 0x3AEEC, size: 0x8, addend: 0x0, symName: '__ZN4core3ops8function5impls79_$LT$impl$u20$core..ops..function..FnMut$LT$A$GT$$u20$for$u20$$RF$mut$u20$F$GT$8call_mut17h01c106cf082a5b60E', symObjAddr: 0x134, symBinAddr: 0x1B800, symSize: 0x30 }
  - { offset: 0x3AF3B, size: 0x8, addend: 0x0, symName: '__ZN4core3ops8function5impls79_$LT$impl$u20$core..ops..function..FnMut$LT$A$GT$$u20$for$u20$$RF$mut$u20$F$GT$8call_mut17hb2e2fe8569e33315E', symObjAddr: 0x164, symBinAddr: 0x1B830, symSize: 0x30 }
  - { offset: 0x3AF8A, size: 0x8, addend: 0x0, symName: '__ZN4core3ops8function5impls79_$LT$impl$u20$core..ops..function..FnMut$LT$A$GT$$u20$for$u20$$RF$mut$u20$F$GT$8call_mut17hd7e4faa8e15d7cbeE', symObjAddr: 0x194, symBinAddr: 0x1B860, symSize: 0x30 }
  - { offset: 0x3B040, size: 0x8, addend: 0x0, symName: '__ZN4core5slice4iter87_$LT$impl$u20$core..iter..traits..collect..IntoIterator$u20$for$u20$$RF$$u5b$T$u5d$$GT$9into_iter17hf24c60c8f5dc56b9E', symObjAddr: 0x1C4, symBinAddr: 0x1B890, symSize: 0x58 }
  - { offset: 0x3B8FC, size: 0x8, addend: 0x0, symName: '__ZN52_$LT$$RF$mut$u20$T$u20$as$u20$core..fmt..Display$GT$3fmt17h913e3fbf09faf22dE', symObjAddr: 0x0, symBinAddr: 0x1B8E8, symSize: 0x30 }
  - { offset: 0x3B918, size: 0x8, addend: 0x0, symName: '__ZN52_$LT$$RF$mut$u20$T$u20$as$u20$core..fmt..Display$GT$3fmt17h913e3fbf09faf22dE', symObjAddr: 0x0, symBinAddr: 0x1B8E8, symSize: 0x30 }
  - { offset: 0x3BAF4, size: 0x8, addend: 0x0, symName: __ZN4core4iter6traits8iterator8Iterator4take17h8a79400aa135221fE, symObjAddr: 0x0, symBinAddr: 0x1B918, symSize: 0x24 }
  - { offset: 0x3BBDA, size: 0x8, addend: 0x0, symName: __ZN4core4iter6traits8iterator8Iterator4take17h8a79400aa135221fE, symObjAddr: 0x0, symBinAddr: 0x1B918, symSize: 0x24 }
  - { offset: 0x3BEF1, size: 0x8, addend: 0x0, symName: __ZN4core5alloc6layout6Layout25from_size_align_unchecked18precondition_check17h4ba7913dd68b9546E, symObjAddr: 0x0, symBinAddr: 0x1B93C, symSize: 0xBC }
  - { offset: 0x3C21D, size: 0x8, addend: 0x0, symName: __ZN4core5alloc6layout6Layout25from_size_align_unchecked18precondition_check17h4ba7913dd68b9546E, symObjAddr: 0x0, symBinAddr: 0x1B93C, symSize: 0xBC }
  - { offset: 0x3C42D, size: 0x8, addend: 0x0, symName: '__ZN4core4char7methods22_$LT$impl$u20$char$GT$8to_digit17h124d5cc40ee46481E', symObjAddr: 0x0, symBinAddr: 0x1B9F8, symSize: 0x14C }
  - { offset: 0x3C82D, size: 0x8, addend: 0x0, symName: '__ZN4core4char7methods22_$LT$impl$u20$char$GT$8to_digit17h124d5cc40ee46481E', symObjAddr: 0x0, symBinAddr: 0x1B9F8, symSize: 0x14C }
  - { offset: 0x3C8F9, size: 0x8, addend: 0x0, symName: __ZN4core4char7methods25encode_utf8_raw_unchecked17hcc7574c61ae57ffdE, symObjAddr: 0x14C, symBinAddr: 0x1BB44, symSize: 0x188 }
  - { offset: 0x3CC5E, size: 0x8, addend: 0x0, symName: __ZN4pyo35impl_10trampoline10trampoline17h8f6dc535eaab390dE, symObjAddr: 0x0, symBinAddr: 0x1BCCC, symSize: 0x14C }
  - { offset: 0x3CCE1, size: 0x8, addend: 0x0, symName: __ZN4pyo35impl_10trampoline10trampoline17h8f6dc535eaab390dE, symObjAddr: 0x0, symBinAddr: 0x1BCCC, symSize: 0x14C }
  - { offset: 0x3CD84, size: 0x8, addend: 0x0, symName: __ZN4pyo35impl_10trampoline10trampoline17hdbb612730bd71114E, symObjAddr: 0x14C, symBinAddr: 0x1BE18, symSize: 0x15C }
  - { offset: 0x3CE28, size: 0x8, addend: 0x0, symName: __ZN4pyo35impl_10trampoline10trampoline17hdf86d118d864fd29E, symObjAddr: 0x2A8, symBinAddr: 0x1BF74, symSize: 0x158 }
  - { offset: 0x3CED0, size: 0x8, addend: 0x0, symName: '__ZN4pyo35impl_10trampoline10trampoline28_$u7b$$u7b$closure$u7d$$u7d$17h04d31d1a7ea96792E', symObjAddr: 0x400, symBinAddr: 0x1C0CC, symSize: 0x34 }
  - { offset: 0x3CF1F, size: 0x8, addend: 0x0, symName: '__ZN4pyo35impl_10trampoline10trampoline28_$u7b$$u7b$closure$u7d$$u7d$17h775f668f2b4bd064E', symObjAddr: 0x434, symBinAddr: 0x1C100, symSize: 0x2C }
  - { offset: 0x3CF6D, size: 0x8, addend: 0x0, symName: '__ZN4pyo35impl_10trampoline10trampoline28_$u7b$$u7b$closure$u7d$$u7d$17hcaa48edb33c8f004E', symObjAddr: 0x460, symBinAddr: 0x1C12C, symSize: 0x24 }
  - { offset: 0x3CFC1, size: 0x8, addend: 0x0, symName: '__ZN4pyo35impl_10trampoline11module_init28_$u7b$$u7b$closure$u7d$$u7d$17hddfa04116e7bd24bE', symObjAddr: 0x484, symBinAddr: 0x1C150, symSize: 0x40 }
  - { offset: 0x3D00D, size: 0x8, addend: 0x0, symName: '__ZN4pyo35impl_10trampoline11module_init28_$u7b$$u7b$closure$u7d$$u7d$28_$u7b$$u7b$closure$u7d$$u7d$17ha7e889114c51df33E', symObjAddr: 0x4C4, symBinAddr: 0x1C190, symSize: 0x24 }
  - { offset: 0x3D064, size: 0x8, addend: 0x0, symName: '__ZN4pyo35impl_10trampoline23cfunction_with_keywords28_$u7b$$u7b$closure$u7d$$u7d$17h1ce07791776abd6eE', symObjAddr: 0x4E8, symBinAddr: 0x1C1B4, symSize: 0x40 }
  - { offset: 0x3D115, size: 0x8, addend: 0x0, symName: '__ZN4pyo35impl_10trampoline6noargs28_$u7b$$u7b$closure$u7d$$u7d$17hcc0e49f8aa9f53a5E', symObjAddr: 0x528, symBinAddr: 0x1C1F4, symSize: 0x34 }
  - { offset: 0x3D950, size: 0x8, addend: 0x0, symName: '__ZN3std11collections4hash3map18Entry$LT$K$C$V$GT$9or_insert17hf1f3b042ade8cf70E', symObjAddr: 0x0, symBinAddr: 0x1C228, symSize: 0x16C }
  - { offset: 0x3E309, size: 0x8, addend: 0x0, symName: '__ZN3std11collections4hash3map18Entry$LT$K$C$V$GT$9or_insert17hf1f3b042ade8cf70E', symObjAddr: 0x0, symBinAddr: 0x1C228, symSize: 0x16C }
  - { offset: 0x3E551, size: 0x8, addend: 0x0, symName: '__ZN3std11collections4hash3map20HashMap$LT$K$C$V$GT$3new17h8e2886b33cd381fdE', symObjAddr: 0x16C, symBinAddr: 0x1C394, symSize: 0x7C }
  - { offset: 0x3E60D, size: 0x8, addend: 0x0, symName: '__ZN3std11collections4hash3map24HashMap$LT$K$C$V$C$S$GT$5entry17h2c576f24872ec120E', symObjAddr: 0x1E8, symBinAddr: 0x1C410, symSize: 0xB0 }
  - { offset: 0x3E6CC, size: 0x8, addend: 0x0, symName: __ZN13cli_generator4core5query11QueryParams9from_yaml17h0d92833fac187792E, symObjAddr: 0x0, symBinAddr: 0x1C4C0, symSize: 0x40 }
  - { offset: 0x3E9D6, size: 0x8, addend: 0x0, symName: __ZN13cli_generator4core5query12default_page17hf5dfe116d7906da8E, symObjAddr: 0x88, symBinAddr: 0x1C548, symSize: 0xC }
  - { offset: 0x3E9F3, size: 0x8, addend: 0x0, symName: __ZN13cli_generator4core5query12default_size17h6b823ac4f9c9faa0E, symObjAddr: 0x94, symBinAddr: 0x1C554, symSize: 0xC }
  - { offset: 0x3EA10, size: 0x8, addend: 0x0, symName: __ZN13cli_generator4core5query12default_true17ha9852c173a27edfcE, symObjAddr: 0xA0, symBinAddr: 0x1C560, symSize: 0xC }
  - { offset: 0x3EA2D, size: 0x8, addend: 0x0, symName: __ZN13cli_generator4core5query16default_taxonomy17h20142c2c611be4d8E, symObjAddr: 0xAC, symBinAddr: 0x1C56C, symSize: 0x24 }
  - { offset: 0x3EA5E, size: 0x8, addend: 0x0, symName: '__ZN195_$LT$cli_generator..core..query.._..$LT$impl$u20$serde_core..de..Deserialize$u20$for$u20$cli_generator..core..query..QueryParams$GT$..deserialize..__Visitor$u20$as$u20$serde_core..de..Visitor$GT$9expecting17h6e454d62a294a00fE', symObjAddr: 0x158, symBinAddr: 0x1C618, symSize: 0x40 }
  - { offset: 0x3EA98, size: 0x8, addend: 0x0, symName: '__ZN195_$LT$cli_generator..core..query.._..$LT$impl$u20$serde_core..de..Deserialize$u20$for$u20$cli_generator..core..query..SearchQuery$GT$..deserialize..__Visitor$u20$as$u20$serde_core..de..Visitor$GT$9expecting17h4fc162a174fb8bd0E', symObjAddr: 0x198, symBinAddr: 0x1C658, symSize: 0x40 }
  - { offset: 0x3EAD8, size: 0x8, addend: 0x0, symName: '__ZN198_$LT$cli_generator..core..query.._..$LT$impl$u20$serde_core..de..Deserialize$u20$for$u20$cli_generator..core..query..SortOrder$GT$..deserialize..__FieldVisitor$u20$as$u20$serde_core..de..Visitor$GT$9expecting17h321e0b7adf4d11c0E', symObjAddr: 0x1D8, symBinAddr: 0x1C698, symSize: 0x40 }
  - { offset: 0x3EB12, size: 0x8, addend: 0x0, symName: '__ZN200_$LT$cli_generator..core..query.._..$LT$impl$u20$serde_core..de..Deserialize$u20$for$u20$cli_generator..core..query..QueryParams$GT$..deserialize..__FieldVisitor$u20$as$u20$serde_core..de..Visitor$GT$9expecting17had8ac8a12f73742eE', symObjAddr: 0x218, symBinAddr: 0x1C6D8, symSize: 0x40 }
  - { offset: 0x3EB4C, size: 0x8, addend: 0x0, symName: '__ZN200_$LT$cli_generator..core..query.._..$LT$impl$u20$serde_core..de..Deserialize$u20$for$u20$cli_generator..core..query..SearchIndex$GT$..deserialize..__FieldVisitor$u20$as$u20$serde_core..de..Visitor$GT$9expecting17h02df3d87b7982c7dE', symObjAddr: 0x258, symBinAddr: 0x1C718, symSize: 0x40 }
  - { offset: 0x3EB86, size: 0x8, addend: 0x0, symName: '__ZN200_$LT$cli_generator..core..query.._..$LT$impl$u20$serde_core..de..Deserialize$u20$for$u20$cli_generator..core..query..SearchQuery$GT$..deserialize..__FieldVisitor$u20$as$u20$serde_core..de..Visitor$GT$9expecting17h2896417db91e26c2E', symObjAddr: 0x298, symBinAddr: 0x1C758, symSize: 0x40 }
  - { offset: 0x3EC2B, size: 0x8, addend: 0x0, symName: '__ZN80_$LT$cli_generator..core..query..SortOrder$u20$as$u20$core..default..Default$GT$7default17h526260fb5f1a6682E', symObjAddr: 0x2D8, symBinAddr: 0x1C798, symSize: 0xC }
  - { offset: 0x3FE76, size: 0x8, addend: 0x0, symName: __ZN13cli_generator4core5query11QueryParams9from_yaml17h0d92833fac187792E, symObjAddr: 0x0, symBinAddr: 0x1C4C0, symSize: 0x40 }
  - { offset: 0x3FE98, size: 0x8, addend: 0x0, symName: __ZN13cli_generator4core5query11SearchQuery9from_yaml17h13418e9b1179776aE, symObjAddr: 0x40, symBinAddr: 0x1C500, symSize: 0x48 }
  - { offset: 0x3FEC7, size: 0x8, addend: 0x0, symName: '__ZN13cli_generator4core5query3url57_$LT$impl$u20$cli_generator..core..query..SearchIndex$GT$10to_api_str17h127e005659dc2be1E', symObjAddr: 0xD0, symBinAddr: 0x1C590, symSize: 0x88 }
  - { offset: 0x3FFAB, size: 0x8, addend: 0x0, symName: '__ZN10serde_core2de5impls87_$LT$impl$u20$serde_core..de..Deserialize$u20$for$u20$core..option..Option$LT$T$GT$$GT$11deserialize17h3c0c1ec2601bef99E', symObjAddr: 0x0, symBinAddr: 0x1C7A4, symSize: 0x24 }
  - { offset: 0x40C82, size: 0x8, addend: 0x0, symName: '__ZN10serde_core2de5impls87_$LT$impl$u20$serde_core..de..Deserialize$u20$for$u20$core..option..Option$LT$T$GT$$GT$11deserialize17h3c0c1ec2601bef99E', symObjAddr: 0x0, symBinAddr: 0x1C7A4, symSize: 0x24 }
  - { offset: 0x40CC2, size: 0x8, addend: 0x0, symName: '__ZN10serde_core2de5impls87_$LT$impl$u20$serde_core..de..Deserialize$u20$for$u20$core..option..Option$LT$T$GT$$GT$11deserialize17h4620560661b78935E', symObjAddr: 0x24, symBinAddr: 0x1C7C8, symSize: 0x14 }
  - { offset: 0x40D03, size: 0x8, addend: 0x0, symName: '__ZN10serde_core2de5impls87_$LT$impl$u20$serde_core..de..Deserialize$u20$for$u20$core..option..Option$LT$T$GT$$GT$11deserialize17h721f027116a055daE', symObjAddr: 0x38, symBinAddr: 0x1C7DC, symSize: 0x14 }
  - { offset: 0x40D44, size: 0x8, addend: 0x0, symName: '__ZN10serde_core2de5impls87_$LT$impl$u20$serde_core..de..Deserialize$u20$for$u20$core..option..Option$LT$T$GT$$GT$11deserialize17ha1bfbcb722e34c95E', symObjAddr: 0x4C, symBinAddr: 0x1C7F0, symSize: 0x14 }
  - { offset: 0x410A2, size: 0x8, addend: 0x0, symName: '__ZN4core5slice29_$LT$impl$u20$$u5b$T$u5d$$GT$8iter_mut17he70c2dc587565d02E', symObjAddr: 0x60, symBinAddr: 0x1C804, symSize: 0x28 }
  - { offset: 0x423A9, size: 0x8, addend: 0x0, symName: __ZN4core6option6Option4Some17h043425bedc6dac0aE, symObjAddr: 0x980, symBinAddr: 0x1D124, symSize: 0x14 }
  - { offset: 0x423DC, size: 0x8, addend: 0x0, symName: __ZN4core6option6Option4Some17h178e525b1450b5f9E, symObjAddr: 0x994, symBinAddr: 0x1D138, symSize: 0x10 }
  - { offset: 0x4240F, size: 0x8, addend: 0x0, symName: __ZN4core6option6Option4Some17h1e855411c120619fE, symObjAddr: 0x9A4, symBinAddr: 0x1D148, symSize: 0x10 }
  - { offset: 0x42442, size: 0x8, addend: 0x0, symName: __ZN4core6option6Option4Some17h50e59b86bbe2c80cE, symObjAddr: 0x9B4, symBinAddr: 0x1D158, symSize: 0x10 }
  - { offset: 0x42475, size: 0x8, addend: 0x0, symName: __ZN4core6option6Option4Some17h627902d9e051db9dE, symObjAddr: 0x9C4, symBinAddr: 0x1D168, symSize: 0x14 }
  - { offset: 0x424A8, size: 0x8, addend: 0x0, symName: __ZN4core6option6Option4Some17h6b5ad0c1982829ffE, symObjAddr: 0x9D8, symBinAddr: 0x1D17C, symSize: 0x14 }
  - { offset: 0x424DB, size: 0x8, addend: 0x0, symName: __ZN4core6option6Option4Some17h856443d667211493E, symObjAddr: 0x9EC, symBinAddr: 0x1D190, symSize: 0x18 }
  - { offset: 0x4250E, size: 0x8, addend: 0x0, symName: __ZN4core6option6Option4Some17h92dcf5931e838b1dE, symObjAddr: 0xA04, symBinAddr: 0x1D1A8, symSize: 0x10 }
  - { offset: 0x42541, size: 0x8, addend: 0x0, symName: __ZN4core6option6Option4Some17h957054b575bc82f7E, symObjAddr: 0xA14, symBinAddr: 0x1D1B8, symSize: 0x10 }
  - { offset: 0x42574, size: 0x8, addend: 0x0, symName: __ZN4core6option6Option4Some17haa4e36756fae50f9E, symObjAddr: 0xA24, symBinAddr: 0x1D1C8, symSize: 0x30 }
  - { offset: 0x425A8, size: 0x8, addend: 0x0, symName: __ZN4core6option6Option4Some17hadb01b10a7b0e8b9E, symObjAddr: 0xA54, symBinAddr: 0x1D1F8, symSize: 0x10 }
  - { offset: 0x425DB, size: 0x8, addend: 0x0, symName: __ZN4core6option6Option4Some17hbe47321d92e872e6E, symObjAddr: 0xA64, symBinAddr: 0x1D208, symSize: 0x14 }
  - { offset: 0x4260E, size: 0x8, addend: 0x0, symName: __ZN4core6option6Option4Some17hde890b5c19ad6643E, symObjAddr: 0xA78, symBinAddr: 0x1D21C, symSize: 0x10 }
  - { offset: 0x42641, size: 0x8, addend: 0x0, symName: __ZN4core6option6Option4Some17hdf7456f3328f02f4E, symObjAddr: 0xA88, symBinAddr: 0x1D22C, symSize: 0x10 }
  - { offset: 0x42674, size: 0x8, addend: 0x0, symName: __ZN4core6option6Option4Some17he37e1ee1b459b4b5E, symObjAddr: 0xA98, symBinAddr: 0x1D23C, symSize: 0x30 }
  - { offset: 0x426AF, size: 0x8, addend: 0x0, symName: '__ZN72_$LT$core..option..Option$LT$T$GT$$u20$as$u20$core..default..Default$GT$7default17h5e24f13c85a3eee0E', symObjAddr: 0xAC8, symBinAddr: 0x1D26C, symSize: 0x10 }
  - { offset: 0x426D7, size: 0x8, addend: 0x0, symName: '__ZN72_$LT$core..option..Option$LT$T$GT$$u20$as$u20$core..default..Default$GT$7default17h8c1a0dda3e678f11E', symObjAddr: 0xAD8, symBinAddr: 0x1D27C, symSize: 0x8 }
  - { offset: 0x42705, size: 0x8, addend: 0x0, symName: '__ZN75_$LT$core..option..Option$LT$T$GT$$u20$as$u20$core..ops..try_trait..Try$GT$6branch17h443064e184edc17eE', symObjAddr: 0xAE0, symBinAddr: 0x1D284, symSize: 0x40 }
  - { offset: 0x43591, size: 0x8, addend: 0x0, symName: '__ZN4core6option15Option$LT$T$GT$3map17h203ad044a4a0b364E', symObjAddr: 0x88, symBinAddr: 0x1C82C, symSize: 0x50 }
  - { offset: 0x43609, size: 0x8, addend: 0x0, symName: '__ZN4core6option15Option$LT$T$GT$3map17h737b7dd36fc12439E', symObjAddr: 0xD8, symBinAddr: 0x1C87C, symSize: 0x5C }
  - { offset: 0x43CC8, size: 0x8, addend: 0x0, symName: '__ZN4core6option15Option$LT$T$GT$3map17hc2c65ce8843ef510E', symObjAddr: 0x134, symBinAddr: 0x1C8D8, symSize: 0x78 }
  - { offset: 0x43DC8, size: 0x8, addend: 0x0, symName: '__ZN4core6option15Option$LT$T$GT$4take17h87588ada1cc70180E', symObjAddr: 0x1AC, symBinAddr: 0x1C950, symSize: 0x3C }
  - { offset: 0x43E2C, size: 0x8, addend: 0x0, symName: '__ZN4core6option15Option$LT$T$GT$6as_ref17h3f1857daebddb320E', symObjAddr: 0x1E8, symBinAddr: 0x1C98C, symSize: 0x4C }
  - { offset: 0x43EA1, size: 0x8, addend: 0x0, symName: '__ZN4core6option15Option$LT$T$GT$6expect17h73326b7d7480517dE', symObjAddr: 0x234, symBinAddr: 0x1C9D8, symSize: 0x70 }
  - { offset: 0x43EDD, size: 0x8, addend: 0x0, symName: '__ZN4core6option15Option$LT$T$GT$6filter17h8c28427b1da94d81E', symObjAddr: 0x2A4, symBinAddr: 0x1CA48, symSize: 0xA8 }
  - { offset: 0x43FA7, size: 0x8, addend: 0x0, symName: '__ZN4core6option15Option$LT$T$GT$6insert17h5c5cd7058dff0a6eE', symObjAddr: 0x34C, symBinAddr: 0x1CAF0, symSize: 0xC4 }
  - { offset: 0x441A3, size: 0x8, addend: 0x0, symName: '__ZN4core6option15Option$LT$T$GT$7is_none17h30bf88dc0058f73bE', symObjAddr: 0x410, symBinAddr: 0x1CBB4, symSize: 0x2C }
  - { offset: 0x441FA, size: 0x8, addend: 0x0, symName: '__ZN4core6option15Option$LT$T$GT$7is_some17h0c460f8e80eada1aE', symObjAddr: 0x43C, symBinAddr: 0x1CBE0, symSize: 0x28 }
  - { offset: 0x44233, size: 0x8, addend: 0x0, symName: '__ZN4core6option15Option$LT$T$GT$7is_some17h1590e85c0705123bE', symObjAddr: 0x464, symBinAddr: 0x1CC08, symSize: 0x2C }
  - { offset: 0x4426C, size: 0x8, addend: 0x0, symName: '__ZN4core6option15Option$LT$T$GT$7is_some17h1f7980fd9d1cffc9E', symObjAddr: 0x490, symBinAddr: 0x1CC34, symSize: 0x28 }
  - { offset: 0x442A5, size: 0x8, addend: 0x0, symName: '__ZN4core6option15Option$LT$T$GT$7is_some17h3a99b070991955b8E', symObjAddr: 0x4B8, symBinAddr: 0x1CC5C, symSize: 0x28 }
  - { offset: 0x442DE, size: 0x8, addend: 0x0, symName: '__ZN4core6option15Option$LT$T$GT$7is_some17h3acb12f92d31d2f3E', symObjAddr: 0x4E0, symBinAddr: 0x1CC84, symSize: 0x28 }
  - { offset: 0x44317, size: 0x8, addend: 0x0, symName: '__ZN4core6option15Option$LT$T$GT$7is_some17h3c5e45d91f087c67E', symObjAddr: 0x508, symBinAddr: 0x1CCAC, symSize: 0x28 }
  - { offset: 0x44350, size: 0x8, addend: 0x0, symName: '__ZN4core6option15Option$LT$T$GT$7is_some17h495f7420b5de7b66E', symObjAddr: 0x530, symBinAddr: 0x1CCD4, symSize: 0x2C }
  - { offset: 0x44389, size: 0x8, addend: 0x0, symName: '__ZN4core6option15Option$LT$T$GT$7is_some17h78c5b79364bd7830E', symObjAddr: 0x55C, symBinAddr: 0x1CD00, symSize: 0x28 }
  - { offset: 0x443C2, size: 0x8, addend: 0x0, symName: '__ZN4core6option15Option$LT$T$GT$7is_some17h902294b11b2c7b63E', symObjAddr: 0x584, symBinAddr: 0x1CD28, symSize: 0x2C }
  - { offset: 0x443FB, size: 0x8, addend: 0x0, symName: '__ZN4core6option15Option$LT$T$GT$7is_some17hbe70af1def4f1282E', symObjAddr: 0x5B0, symBinAddr: 0x1CD54, symSize: 0x28 }
  - { offset: 0x44434, size: 0x8, addend: 0x0, symName: '__ZN4core6option15Option$LT$T$GT$7is_some17hf6f292f35b4e8ed5E', symObjAddr: 0x5D8, symBinAddr: 0x1CD7C, symSize: 0x2C }
  - { offset: 0x4446D, size: 0x8, addend: 0x0, symName: '__ZN4core6option15Option$LT$T$GT$7is_some17hf92ba32c31102085E', symObjAddr: 0x604, symBinAddr: 0x1CDA8, symSize: 0x2C }
  - { offset: 0x444A6, size: 0x8, addend: 0x0, symName: '__ZN4core6option15Option$LT$T$GT$7replace17h3c2637cdda100231E', symObjAddr: 0x630, symBinAddr: 0x1CDD4, symSize: 0x28 }
  - { offset: 0x444FF, size: 0x8, addend: 0x0, symName: '__ZN4core6option15Option$LT$T$GT$8and_then17h16cefdc1b4fb3e0dE', symObjAddr: 0x658, symBinAddr: 0x1CDFC, symSize: 0x64 }
  - { offset: 0x4456A, size: 0x8, addend: 0x0, symName: '__ZN4core6option15Option$LT$T$GT$8and_then17h1f642e1b64e3edcbE', symObjAddr: 0x6BC, symBinAddr: 0x1CE60, symSize: 0x64 }
  - { offset: 0x445D5, size: 0x8, addend: 0x0, symName: '__ZN4core6option15Option$LT$T$GT$8and_then17h9dad91c7a7301ad4E', symObjAddr: 0x720, symBinAddr: 0x1CEC4, symSize: 0x64 }
  - { offset: 0x44640, size: 0x8, addend: 0x0, symName: '__ZN4core6option15Option$LT$T$GT$8and_then17hbd2a26f8b122787aE', symObjAddr: 0x784, symBinAddr: 0x1CF28, symSize: 0x64 }
  - { offset: 0x446AB, size: 0x8, addend: 0x0, symName: '__ZN4core6option15Option$LT$T$GT$8and_then17hcd1efae12fee872fE', symObjAddr: 0x7E8, symBinAddr: 0x1CF8C, symSize: 0x64 }
  - { offset: 0x44716, size: 0x8, addend: 0x0, symName: '__ZN4core6option15Option$LT$T$GT$8and_then17hdf56ad537bf2fe90E', symObjAddr: 0x84C, symBinAddr: 0x1CFF0, symSize: 0x64 }
  - { offset: 0x44781, size: 0x8, addend: 0x0, symName: '__ZN4core6option15Option$LT$T$GT$8and_then17he78da250309fbddcE', symObjAddr: 0x8B0, symBinAddr: 0x1D054, symSize: 0x64 }
  - { offset: 0x448A6, size: 0x8, addend: 0x0, symName: '__ZN4core6option15Option$LT$T$GT$8as_deref17hbc744d3b7299cc3bE', symObjAddr: 0x914, symBinAddr: 0x1D0B8, symSize: 0x6C }
  - { offset: 0x44A3E, size: 0x8, addend: 0x0, symName: '__ZN9hashbrown11rustc_entry62_$LT$impl$u20$hashbrown..map..HashMap$LT$K$C$V$C$S$C$A$GT$$GT$11rustc_entry17h8b4a9d1c8130f29fE', symObjAddr: 0x0, symBinAddr: 0x1D2C4, symSize: 0x14C }
  - { offset: 0x44B8A, size: 0x8, addend: 0x0, symName: '__ZN9hashbrown3map11make_hasher28_$u7b$$u7b$closure$u7d$$u7d$17h6a7c246a8ecbad14E', symObjAddr: 0x14C, symBinAddr: 0x1D410, symSize: 0x3C }
  - { offset: 0x4505F, size: 0x8, addend: 0x0, symName: '__ZN9hashbrown11rustc_entry62_$LT$impl$u20$hashbrown..map..HashMap$LT$K$C$V$C$S$C$A$GT$$GT$11rustc_entry17h8b4a9d1c8130f29fE', symObjAddr: 0x0, symBinAddr: 0x1D2C4, symSize: 0x14C }
  - { offset: 0x4514D, size: 0x8, addend: 0x0, symName: __ZN13cli_generator4core5query10attributes14AttributeValue4List17he775ebb36ecfdd13E, symObjAddr: 0x0, symBinAddr: 0x1D44C, symSize: 0x20 }
  - { offset: 0x4525C, size: 0x8, addend: 0x0, symName: __ZN13cli_generator4core5query10attributes14AttributeValue4List17he775ebb36ecfdd13E, symObjAddr: 0x0, symBinAddr: 0x1D44C, symSize: 0x20 }
  - { offset: 0x4528A, size: 0x8, addend: 0x0, symName: __ZN13cli_generator4core5query10attributes14AttributeValue6Single17h62e048fc33208788E, symObjAddr: 0x20, symBinAddr: 0x1D46C, symSize: 0x18 }
  - { offset: 0x452C8, size: 0x8, addend: 0x0, symName: '__ZN213_$LT$cli_generator..core..query..attributes.._..$LT$impl$u20$serde_core..de..Deserialize$u20$for$u20$cli_generator..core..query..attributes..Field$GT$..deserialize..__Visitor$u20$as$u20$serde_core..de..Visitor$GT$9expecting17h3854d1198fc5cff6E', symObjAddr: 0x348, symBinAddr: 0x1D794, symSize: 0x40 }
  - { offset: 0x45302, size: 0x8, addend: 0x0, symName: '__ZN217_$LT$cli_generator..core..query..attributes.._..$LT$impl$u20$serde_core..de..Deserialize$u20$for$u20$cli_generator..core..query..attributes..Attribute$GT$..deserialize..__Visitor$u20$as$u20$serde_core..de..Visitor$GT$9expecting17h4da41c324f99a39bE', symObjAddr: 0x388, symBinAddr: 0x1D7D4, symSize: 0x40 }
  - { offset: 0x45342, size: 0x8, addend: 0x0, symName: '__ZN218_$LT$cli_generator..core..query..attributes.._..$LT$impl$u20$serde_core..de..Deserialize$u20$for$u20$cli_generator..core..query..attributes..Field$GT$..deserialize..__FieldVisitor$u20$as$u20$serde_core..de..Visitor$GT$9expecting17h104cc2f738b23ceeE', symObjAddr: 0x3C8, symBinAddr: 0x1D814, symSize: 0x40 }
  - { offset: 0x4537C, size: 0x8, addend: 0x0, symName: '__ZN221_$LT$cli_generator..core..query..attributes.._..$LT$impl$u20$serde_core..de..Deserialize$u20$for$u20$cli_generator..core..query..attributes..Modifier$GT$..deserialize..__FieldVisitor$u20$as$u20$serde_core..de..Visitor$GT$9expecting17h1569723e667eb79fE', symObjAddr: 0x408, symBinAddr: 0x1D854, symSize: 0x40 }
  - { offset: 0x453B6, size: 0x8, addend: 0x0, symName: '__ZN222_$LT$cli_generator..core..query..attributes.._..$LT$impl$u20$serde_core..de..Deserialize$u20$for$u20$cli_generator..core..query..attributes..Attribute$GT$..deserialize..__FieldVisitor$u20$as$u20$serde_core..de..Visitor$GT$9expecting17h4ddaa11d3a6179bbE', symObjAddr: 0x448, symBinAddr: 0x1D894, symSize: 0x40 }
  - { offset: 0x453F0, size: 0x8, addend: 0x0, symName: '__ZN225_$LT$cli_generator..core..query..attributes.._..$LT$impl$u20$serde_core..de..Deserialize$u20$for$u20$cli_generator..core..query..attributes..AttributeSet$GT$..deserialize..__FieldVisitor$u20$as$u20$serde_core..de..Visitor$GT$9expecting17hb9549257b3485d96E', symObjAddr: 0x488, symBinAddr: 0x1D8D4, symSize: 0x40 }
  - { offset: 0x4542A, size: 0x8, addend: 0x0, symName: '__ZN230_$LT$cli_generator..core..query..attributes.._..$LT$impl$u20$serde_core..de..Deserialize$u20$for$u20$cli_generator..core..query..attributes..AttributeOperator$GT$..deserialize..__FieldVisitor$u20$as$u20$serde_core..de..Visitor$GT$9expecting17h591e0db27155a3dbE', symObjAddr: 0x4C8, symBinAddr: 0x1D914, symSize: 0x40 }
  - { offset: 0x455CE, size: 0x8, addend: 0x0, symName: __ZN13cli_generator4core5query10attributes17AttributeOperator6as_str17heb80a049d69efc03E, symObjAddr: 0x38, symBinAddr: 0x1D484, symSize: 0x140 }
  - { offset: 0x45604, size: 0x8, addend: 0x0, symName: __ZN13cli_generator4core5query10attributes8Modifier10is_summary17hd6db78fcc2070501E, symObjAddr: 0x178, symBinAddr: 0x1D5C4, symSize: 0x28 }
  - { offset: 0x45626, size: 0x8, addend: 0x0, symName: __ZN13cli_generator4core5query10attributes8Modifier6as_str17h0815eb9a07a5d08dE, symObjAddr: 0x1A0, symBinAddr: 0x1D5EC, symSize: 0x164 }
  - { offset: 0x45648, size: 0x8, addend: 0x0, symName: __ZN13cli_generator4core5query10attributes8Modifier9is_status17h916072342f263da1E, symObjAddr: 0x304, symBinAddr: 0x1D750, symSize: 0x44 }
  - { offset: 0x45BB5, size: 0x8, addend: 0x0, symName: __ZN3std5panic12catch_unwind17h54a91e992fa17dccE, symObjAddr: 0x0, symBinAddr: 0x1D954, symSize: 0xC4 }
  - { offset: 0x4672E, size: 0x8, addend: 0x0, symName: __ZN3std5panic12catch_unwind17h54a91e992fa17dccE, symObjAddr: 0x0, symBinAddr: 0x1D954, symSize: 0xC4 }
  - { offset: 0x467E0, size: 0x8, addend: 0x0, symName: __ZN3std5panic12catch_unwind17h777b7340ef4486ebE, symObjAddr: 0xC4, symBinAddr: 0x1DA18, symSize: 0xC0 }
  - { offset: 0x46872, size: 0x8, addend: 0x0, symName: __ZN3std5panic12catch_unwind17ha4ab1b5db95fd573E, symObjAddr: 0x184, symBinAddr: 0x1DAD8, symSize: 0xB0 }
  - { offset: 0x469AE, size: 0x8, addend: 0x0, symName: '__ZN87_$LT$$BP$mut$u20$pyo3_ffi..object..PyObject$u20$as$u20$pyo3..ffi_ptr_ext..FfiPtrExt$GT$15assume_borrowed17h94a4502ba6ddd1f9E', symObjAddr: 0x0, symBinAddr: 0x1DBDC, symSize: 0x24 }
  - { offset: 0x46A31, size: 0x8, addend: 0x0, symName: '__ZN87_$LT$$BP$mut$u20$pyo3_ffi..object..PyObject$u20$as$u20$pyo3..ffi_ptr_ext..FfiPtrExt$GT$15assume_borrowed17h94a4502ba6ddd1f9E', symObjAddr: 0x0, symBinAddr: 0x1DBDC, symSize: 0x24 }
  - { offset: 0x46CDE, size: 0x8, addend: 0x0, symName: '__ZN100_$LT$pyo3..types..tuple..BorrowedTupleIterator$u20$as$u20$core..iter..traits..iterator..Iterator$GT$4next17h7ad3dcb68a99194dE', symObjAddr: 0x0, symBinAddr: 0x1DC00, symSize: 0x9C }
  - { offset: 0x46D66, size: 0x8, addend: 0x0, symName: '__ZN100_$LT$pyo3..types..tuple..BorrowedTupleIterator$u20$as$u20$core..iter..traits..iterator..Iterator$GT$4next17h7ad3dcb68a99194dE', symObjAddr: 0x0, symBinAddr: 0x1DC00, symSize: 0x9C }
  - { offset: 0x47155, size: 0x8, addend: 0x0, symName: '__ZN5alloc7raw_vec19RawVec$LT$T$C$A$GT$8grow_one17h28acb8cb393268dcE', symObjAddr: 0x0, symBinAddr: 0x1DC9C, symSize: 0x88 }
  - { offset: 0x47F50, size: 0x8, addend: 0x0, symName: '__ZN5alloc7raw_vec19RawVec$LT$T$C$A$GT$8grow_one17h28acb8cb393268dcE', symObjAddr: 0x0, symBinAddr: 0x1DC9C, symSize: 0x88 }
  - { offset: 0x48002, size: 0x8, addend: 0x0, symName: '__ZN5alloc7raw_vec19RawVec$LT$T$C$A$GT$8grow_one17h79a8659f0c19bff8E', symObjAddr: 0x88, symBinAddr: 0x1DD24, symSize: 0x80 }
  - { offset: 0x48471, size: 0x8, addend: 0x0, symName: '__ZN5alloc7raw_vec19RawVec$LT$T$C$A$GT$8grow_one17h7c2e19f02cc388afE', symObjAddr: 0x108, symBinAddr: 0x1DDA4, symSize: 0x88 }
  - { offset: 0x48523, size: 0x8, addend: 0x0, symName: '__ZN5alloc7raw_vec19RawVec$LT$T$C$A$GT$8grow_one17h99d9155277fb1432E', symObjAddr: 0x190, symBinAddr: 0x1DE2C, symSize: 0x88 }
  - { offset: 0x485D5, size: 0x8, addend: 0x0, symName: '__ZN5alloc7raw_vec19RawVec$LT$T$C$A$GT$8grow_one17ha2c50c6d241c8e81E', symObjAddr: 0x218, symBinAddr: 0x1DEB4, symSize: 0x88 }
  - { offset: 0x48687, size: 0x8, addend: 0x0, symName: '__ZN5alloc7raw_vec19RawVec$LT$T$C$A$GT$8grow_one17had7d26c44ccdd77aE', symObjAddr: 0x2A0, symBinAddr: 0x1DF3C, symSize: 0x88 }
  - { offset: 0x48739, size: 0x8, addend: 0x0, symName: '__ZN5alloc7raw_vec19RawVec$LT$T$C$A$GT$8grow_one17hbc18f4aa0c808584E', symObjAddr: 0x328, symBinAddr: 0x1DFC4, symSize: 0x88 }
  - { offset: 0x487EB, size: 0x8, addend: 0x0, symName: '__ZN5alloc7raw_vec19RawVec$LT$T$C$A$GT$8grow_one17hd64df2549fdb94ddE', symObjAddr: 0x3B0, symBinAddr: 0x1E04C, symSize: 0x88 }
  - { offset: 0x48876, size: 0x8, addend: 0x0, symName: '__ZN153_$LT$core..result..Result$LT$T$C$F$GT$$u20$as$u20$core..ops..try_trait..FromResidual$LT$core..result..Result$LT$core..convert..Infallible$C$E$GT$$GT$$GT$13from_residual17h0998f77c6244f346E', symObjAddr: 0x0, symBinAddr: 0x1E0D4, symSize: 0x48 }
  - { offset: 0x4B8A9, size: 0x8, addend: 0x0, symName: '__ZN153_$LT$core..result..Result$LT$T$C$F$GT$$u20$as$u20$core..ops..try_trait..FromResidual$LT$core..result..Result$LT$core..convert..Infallible$C$E$GT$$GT$$GT$13from_residual17h0998f77c6244f346E', symObjAddr: 0x0, symBinAddr: 0x1E0D4, symSize: 0x48 }
  - { offset: 0x4B92E, size: 0x8, addend: 0x0, symName: '__ZN153_$LT$core..result..Result$LT$T$C$F$GT$$u20$as$u20$core..ops..try_trait..FromResidual$LT$core..result..Result$LT$core..convert..Infallible$C$E$GT$$GT$$GT$13from_residual17h0aabae9d10067be6E', symObjAddr: 0x48, symBinAddr: 0x1E11C, symSize: 0x34 }
  - { offset: 0x4B995, size: 0x8, addend: 0x0, symName: '__ZN153_$LT$core..result..Result$LT$T$C$F$GT$$u20$as$u20$core..ops..try_trait..FromResidual$LT$core..result..Result$LT$core..convert..Infallible$C$E$GT$$GT$$GT$13from_residual17h11081143284a3ff4E', symObjAddr: 0x7C, symBinAddr: 0x1E150, symSize: 0x34 }
  - { offset: 0x4B9FC, size: 0x8, addend: 0x0, symName: '__ZN153_$LT$core..result..Result$LT$T$C$F$GT$$u20$as$u20$core..ops..try_trait..FromResidual$LT$core..result..Result$LT$core..convert..Infallible$C$E$GT$$GT$$GT$13from_residual17h11640e81d6596fa7E', symObjAddr: 0xB0, symBinAddr: 0x1E184, symSize: 0x34 }
  - { offset: 0x4BA63, size: 0x8, addend: 0x0, symName: '__ZN153_$LT$core..result..Result$LT$T$C$F$GT$$u20$as$u20$core..ops..try_trait..FromResidual$LT$core..result..Result$LT$core..convert..Infallible$C$E$GT$$GT$$GT$13from_residual17h1ba01bf4842bcfceE', symObjAddr: 0xE4, symBinAddr: 0x1E1B8, symSize: 0x34 }
  - { offset: 0x4BACA, size: 0x8, addend: 0x0, symName: '__ZN153_$LT$core..result..Result$LT$T$C$F$GT$$u20$as$u20$core..ops..try_trait..FromResidual$LT$core..result..Result$LT$core..convert..Infallible$C$E$GT$$GT$$GT$13from_residual17h2501f907d5dc590dE', symObjAddr: 0x118, symBinAddr: 0x1E1EC, symSize: 0x34 }
  - { offset: 0x4BB31, size: 0x8, addend: 0x0, symName: '__ZN153_$LT$core..result..Result$LT$T$C$F$GT$$u20$as$u20$core..ops..try_trait..FromResidual$LT$core..result..Result$LT$core..convert..Infallible$C$E$GT$$GT$$GT$13from_residual17h25338c2dcbae6773E', symObjAddr: 0x14C, symBinAddr: 0x1E220, symSize: 0x34 }
  - { offset: 0x4BB98, size: 0x8, addend: 0x0, symName: '__ZN153_$LT$core..result..Result$LT$T$C$F$GT$$u20$as$u20$core..ops..try_trait..FromResidual$LT$core..result..Result$LT$core..convert..Infallible$C$E$GT$$GT$$GT$13from_residual17h28dd17817bb27fa2E', symObjAddr: 0x180, symBinAddr: 0x1E254, symSize: 0x34 }
  - { offset: 0x4BBFF, size: 0x8, addend: 0x0, symName: '__ZN153_$LT$core..result..Result$LT$T$C$F$GT$$u20$as$u20$core..ops..try_trait..FromResidual$LT$core..result..Result$LT$core..convert..Infallible$C$E$GT$$GT$$GT$13from_residual17h445f1facaeebefb2E', symObjAddr: 0x1B4, symBinAddr: 0x1E288, symSize: 0x34 }
  - { offset: 0x4BC66, size: 0x8, addend: 0x0, symName: '__ZN153_$LT$core..result..Result$LT$T$C$F$GT$$u20$as$u20$core..ops..try_trait..FromResidual$LT$core..result..Result$LT$core..convert..Infallible$C$E$GT$$GT$$GT$13from_residual17h468d9e846e80ae45E', symObjAddr: 0x1E8, symBinAddr: 0x1E2BC, symSize: 0x34 }
  - { offset: 0x4BCCD, size: 0x8, addend: 0x0, symName: '__ZN153_$LT$core..result..Result$LT$T$C$F$GT$$u20$as$u20$core..ops..try_trait..FromResidual$LT$core..result..Result$LT$core..convert..Infallible$C$E$GT$$GT$$GT$13from_residual17h5b1f136518c64babE', symObjAddr: 0x21C, symBinAddr: 0x1E2F0, symSize: 0x34 }
  - { offset: 0x4BD34, size: 0x8, addend: 0x0, symName: '__ZN153_$LT$core..result..Result$LT$T$C$F$GT$$u20$as$u20$core..ops..try_trait..FromResidual$LT$core..result..Result$LT$core..convert..Infallible$C$E$GT$$GT$$GT$13from_residual17h5f56de576ed5b01eE', symObjAddr: 0x250, symBinAddr: 0x1E324, symSize: 0x34 }
  - { offset: 0x4BD9B, size: 0x8, addend: 0x0, symName: '__ZN153_$LT$core..result..Result$LT$T$C$F$GT$$u20$as$u20$core..ops..try_trait..FromResidual$LT$core..result..Result$LT$core..convert..Infallible$C$E$GT$$GT$$GT$13from_residual17h624943d667e81d93E', symObjAddr: 0x284, symBinAddr: 0x1E358, symSize: 0x48 }
  - { offset: 0x4BE20, size: 0x8, addend: 0x0, symName: '__ZN153_$LT$core..result..Result$LT$T$C$F$GT$$u20$as$u20$core..ops..try_trait..FromResidual$LT$core..result..Result$LT$core..convert..Infallible$C$E$GT$$GT$$GT$13from_residual17h6994930ef14c58e9E', symObjAddr: 0x2CC, symBinAddr: 0x1E3A0, symSize: 0x34 }
  - { offset: 0x4BE87, size: 0x8, addend: 0x0, symName: '__ZN153_$LT$core..result..Result$LT$T$C$F$GT$$u20$as$u20$core..ops..try_trait..FromResidual$LT$core..result..Result$LT$core..convert..Infallible$C$E$GT$$GT$$GT$13from_residual17h70bb3b54dec17b53E', symObjAddr: 0x300, symBinAddr: 0x1E3D4, symSize: 0x34 }
  - { offset: 0x4BEEE, size: 0x8, addend: 0x0, symName: '__ZN153_$LT$core..result..Result$LT$T$C$F$GT$$u20$as$u20$core..ops..try_trait..FromResidual$LT$core..result..Result$LT$core..convert..Infallible$C$E$GT$$GT$$GT$13from_residual17h756740643284af82E', symObjAddr: 0x334, symBinAddr: 0x1E408, symSize: 0x34 }
  - { offset: 0x4BF55, size: 0x8, addend: 0x0, symName: '__ZN153_$LT$core..result..Result$LT$T$C$F$GT$$u20$as$u20$core..ops..try_trait..FromResidual$LT$core..result..Result$LT$core..convert..Infallible$C$E$GT$$GT$$GT$13from_residual17h792bbd931f024d18E', symObjAddr: 0x368, symBinAddr: 0x1E43C, symSize: 0x34 }
  - { offset: 0x4BFBC, size: 0x8, addend: 0x0, symName: '__ZN153_$LT$core..result..Result$LT$T$C$F$GT$$u20$as$u20$core..ops..try_trait..FromResidual$LT$core..result..Result$LT$core..convert..Infallible$C$E$GT$$GT$$GT$13from_residual17h8130cf14960dc306E', symObjAddr: 0x39C, symBinAddr: 0x1E470, symSize: 0x34 }
  - { offset: 0x4C023, size: 0x8, addend: 0x0, symName: '__ZN153_$LT$core..result..Result$LT$T$C$F$GT$$u20$as$u20$core..ops..try_trait..FromResidual$LT$core..result..Result$LT$core..convert..Infallible$C$E$GT$$GT$$GT$13from_residual17h817427acce311885E', symObjAddr: 0x3D0, symBinAddr: 0x1E4A4, symSize: 0x34 }
  - { offset: 0x4C08A, size: 0x8, addend: 0x0, symName: '__ZN153_$LT$core..result..Result$LT$T$C$F$GT$$u20$as$u20$core..ops..try_trait..FromResidual$LT$core..result..Result$LT$core..convert..Infallible$C$E$GT$$GT$$GT$13from_residual17h87f3c78e47809191E', symObjAddr: 0x404, symBinAddr: 0x1E4D8, symSize: 0x34 }
  - { offset: 0x4C0F1, size: 0x8, addend: 0x0, symName: '__ZN153_$LT$core..result..Result$LT$T$C$F$GT$$u20$as$u20$core..ops..try_trait..FromResidual$LT$core..result..Result$LT$core..convert..Infallible$C$E$GT$$GT$$GT$13from_residual17h9a7d7b0023c54717E', symObjAddr: 0x438, symBinAddr: 0x1E50C, symSize: 0x34 }
  - { offset: 0x4C158, size: 0x8, addend: 0x0, symName: '__ZN153_$LT$core..result..Result$LT$T$C$F$GT$$u20$as$u20$core..ops..try_trait..FromResidual$LT$core..result..Result$LT$core..convert..Infallible$C$E$GT$$GT$$GT$13from_residual17h9f64d3c7fd7f5d2eE', symObjAddr: 0x46C, symBinAddr: 0x1E540, symSize: 0x34 }
  - { offset: 0x4C1BF, size: 0x8, addend: 0x0, symName: '__ZN153_$LT$core..result..Result$LT$T$C$F$GT$$u20$as$u20$core..ops..try_trait..FromResidual$LT$core..result..Result$LT$core..convert..Infallible$C$E$GT$$GT$$GT$13from_residual17ha4b30882d17a4d10E', symObjAddr: 0x4A0, symBinAddr: 0x1E574, symSize: 0x48 }
  - { offset: 0x4C244, size: 0x8, addend: 0x0, symName: '__ZN153_$LT$core..result..Result$LT$T$C$F$GT$$u20$as$u20$core..ops..try_trait..FromResidual$LT$core..result..Result$LT$core..convert..Infallible$C$E$GT$$GT$$GT$13from_residual17haf12b7e6ef1f7003E', symObjAddr: 0x4E8, symBinAddr: 0x1E5BC, symSize: 0x34 }
  - { offset: 0x4C2AB, size: 0x8, addend: 0x0, symName: '__ZN153_$LT$core..result..Result$LT$T$C$F$GT$$u20$as$u20$core..ops..try_trait..FromResidual$LT$core..result..Result$LT$core..convert..Infallible$C$E$GT$$GT$$GT$13from_residual17haf21d47158b53513E', symObjAddr: 0x51C, symBinAddr: 0x1E5F0, symSize: 0x34 }
  - { offset: 0x4C312, size: 0x8, addend: 0x0, symName: '__ZN153_$LT$core..result..Result$LT$T$C$F$GT$$u20$as$u20$core..ops..try_trait..FromResidual$LT$core..result..Result$LT$core..convert..Infallible$C$E$GT$$GT$$GT$13from_residual17hb99ffc8333c36825E', symObjAddr: 0x550, symBinAddr: 0x1E624, symSize: 0x34 }
  - { offset: 0x4C379, size: 0x8, addend: 0x0, symName: '__ZN153_$LT$core..result..Result$LT$T$C$F$GT$$u20$as$u20$core..ops..try_trait..FromResidual$LT$core..result..Result$LT$core..convert..Infallible$C$E$GT$$GT$$GT$13from_residual17hce195e5a364de5a3E', symObjAddr: 0x584, symBinAddr: 0x1E658, symSize: 0x30 }
  - { offset: 0x4C3C2, size: 0x8, addend: 0x0, symName: '__ZN153_$LT$core..result..Result$LT$T$C$F$GT$$u20$as$u20$core..ops..try_trait..FromResidual$LT$core..result..Result$LT$core..convert..Infallible$C$E$GT$$GT$$GT$13from_residual17hd67d07db3982985cE', symObjAddr: 0x5B4, symBinAddr: 0x1E688, symSize: 0x34 }
  - { offset: 0x4C429, size: 0x8, addend: 0x0, symName: '__ZN153_$LT$core..result..Result$LT$T$C$F$GT$$u20$as$u20$core..ops..try_trait..FromResidual$LT$core..result..Result$LT$core..convert..Infallible$C$E$GT$$GT$$GT$13from_residual17hd844be279a5e2ee1E', symObjAddr: 0x5E8, symBinAddr: 0x1E6BC, symSize: 0x34 }
  - { offset: 0x4C490, size: 0x8, addend: 0x0, symName: '__ZN153_$LT$core..result..Result$LT$T$C$F$GT$$u20$as$u20$core..ops..try_trait..FromResidual$LT$core..result..Result$LT$core..convert..Infallible$C$E$GT$$GT$$GT$13from_residual17hdbd6cb9217670932E', symObjAddr: 0x61C, symBinAddr: 0x1E6F0, symSize: 0x34 }
  - { offset: 0x4C4F7, size: 0x8, addend: 0x0, symName: '__ZN153_$LT$core..result..Result$LT$T$C$F$GT$$u20$as$u20$core..ops..try_trait..FromResidual$LT$core..result..Result$LT$core..convert..Infallible$C$E$GT$$GT$$GT$13from_residual17he0b6938112757bf4E', symObjAddr: 0x650, symBinAddr: 0x1E724, symSize: 0x34 }
  - { offset: 0x4C55E, size: 0x8, addend: 0x0, symName: '__ZN153_$LT$core..result..Result$LT$T$C$F$GT$$u20$as$u20$core..ops..try_trait..FromResidual$LT$core..result..Result$LT$core..convert..Infallible$C$E$GT$$GT$$GT$13from_residual17he856f4fe83ba8a32E', symObjAddr: 0x684, symBinAddr: 0x1E758, symSize: 0x34 }
  - { offset: 0x4C5C5, size: 0x8, addend: 0x0, symName: '__ZN153_$LT$core..result..Result$LT$T$C$F$GT$$u20$as$u20$core..ops..try_trait..FromResidual$LT$core..result..Result$LT$core..convert..Infallible$C$E$GT$$GT$$GT$13from_residual17hed31fc8ea79c48faE', symObjAddr: 0x6B8, symBinAddr: 0x1E78C, symSize: 0x34 }
  - { offset: 0x4C62C, size: 0x8, addend: 0x0, symName: '__ZN153_$LT$core..result..Result$LT$T$C$F$GT$$u20$as$u20$core..ops..try_trait..FromResidual$LT$core..result..Result$LT$core..convert..Infallible$C$E$GT$$GT$$GT$13from_residual17hfd75b975ba9d3a20E', symObjAddr: 0x6EC, symBinAddr: 0x1E7C0, symSize: 0x34 }
  - { offset: 0x4EDB3, size: 0x8, addend: 0x0, symName: '__ZN79_$LT$core..result..Result$LT$T$C$E$GT$$u20$as$u20$core..ops..try_trait..Try$GT$6branch17h06f6e38ff0644306E', symObjAddr: 0x1F74, symBinAddr: 0x20048, symSize: 0x5C }
  - { offset: 0x4EE30, size: 0x8, addend: 0x0, symName: '__ZN79_$LT$core..result..Result$LT$T$C$E$GT$$u20$as$u20$core..ops..try_trait..Try$GT$6branch17h0701b4d77a0c1e18E', symObjAddr: 0x1FD0, symBinAddr: 0x200A4, symSize: 0x88 }
  - { offset: 0x4EEAD, size: 0x8, addend: 0x0, symName: '__ZN79_$LT$core..result..Result$LT$T$C$E$GT$$u20$as$u20$core..ops..try_trait..Try$GT$6branch17h0e70f050ac9d9a32E', symObjAddr: 0x2058, symBinAddr: 0x2012C, symSize: 0x68 }
  - { offset: 0x4EF2A, size: 0x8, addend: 0x0, symName: '__ZN79_$LT$core..result..Result$LT$T$C$E$GT$$u20$as$u20$core..ops..try_trait..Try$GT$6branch17h0f8142246ab980d4E', symObjAddr: 0x20C0, symBinAddr: 0x20194, symSize: 0x88 }
  - { offset: 0x4EFA7, size: 0x8, addend: 0x0, symName: '__ZN79_$LT$core..result..Result$LT$T$C$E$GT$$u20$as$u20$core..ops..try_trait..Try$GT$6branch17h1400eb753b44ec55E', symObjAddr: 0x2148, symBinAddr: 0x2021C, symSize: 0x78 }
  - { offset: 0x4F024, size: 0x8, addend: 0x0, symName: '__ZN79_$LT$core..result..Result$LT$T$C$E$GT$$u20$as$u20$core..ops..try_trait..Try$GT$6branch17h158d6f9e515712f1E', symObjAddr: 0x21C0, symBinAddr: 0x20294, symSize: 0x8C }
  - { offset: 0x4F0A1, size: 0x8, addend: 0x0, symName: '__ZN79_$LT$core..result..Result$LT$T$C$E$GT$$u20$as$u20$core..ops..try_trait..Try$GT$6branch17h19467b9649b6cdf8E', symObjAddr: 0x224C, symBinAddr: 0x20320, symSize: 0x5C }
  - { offset: 0x4F11E, size: 0x8, addend: 0x0, symName: '__ZN79_$LT$core..result..Result$LT$T$C$E$GT$$u20$as$u20$core..ops..try_trait..Try$GT$6branch17h1ca96748a8b6f5b7E', symObjAddr: 0x22A8, symBinAddr: 0x2037C, symSize: 0x78 }
  - { offset: 0x4F19B, size: 0x8, addend: 0x0, symName: '__ZN79_$LT$core..result..Result$LT$T$C$E$GT$$u20$as$u20$core..ops..try_trait..Try$GT$6branch17h22bfdc3c3eb7eda9E', symObjAddr: 0x2320, symBinAddr: 0x203F4, symSize: 0x7C }
  - { offset: 0x4F218, size: 0x8, addend: 0x0, symName: '__ZN79_$LT$core..result..Result$LT$T$C$E$GT$$u20$as$u20$core..ops..try_trait..Try$GT$6branch17h2b86a8517eb42056E', symObjAddr: 0x239C, symBinAddr: 0x20470, symSize: 0x68 }
  - { offset: 0x4F295, size: 0x8, addend: 0x0, symName: '__ZN79_$LT$core..result..Result$LT$T$C$E$GT$$u20$as$u20$core..ops..try_trait..Try$GT$6branch17h2bf99f3e5525b2c4E', symObjAddr: 0x2404, symBinAddr: 0x204D8, symSize: 0xB0 }
  - { offset: 0x4F312, size: 0x8, addend: 0x0, symName: '__ZN79_$LT$core..result..Result$LT$T$C$E$GT$$u20$as$u20$core..ops..try_trait..Try$GT$6branch17h2f5d07a26e9de994E', symObjAddr: 0x24B4, symBinAddr: 0x20588, symSize: 0x78 }
  - { offset: 0x4F38F, size: 0x8, addend: 0x0, symName: '__ZN79_$LT$core..result..Result$LT$T$C$E$GT$$u20$as$u20$core..ops..try_trait..Try$GT$6branch17h3283bba9f0b7a0beE', symObjAddr: 0x252C, symBinAddr: 0x20600, symSize: 0x7C }
  - { offset: 0x4F40C, size: 0x8, addend: 0x0, symName: '__ZN79_$LT$core..result..Result$LT$T$C$E$GT$$u20$as$u20$core..ops..try_trait..Try$GT$6branch17h37675bed0938f899E', symObjAddr: 0x25A8, symBinAddr: 0x2067C, symSize: 0x68 }
  - { offset: 0x4F489, size: 0x8, addend: 0x0, symName: '__ZN79_$LT$core..result..Result$LT$T$C$E$GT$$u20$as$u20$core..ops..try_trait..Try$GT$6branch17h38d36ecf8f75032dE', symObjAddr: 0x2610, symBinAddr: 0x206E4, symSize: 0x88 }
  - { offset: 0x4F506, size: 0x8, addend: 0x0, symName: '__ZN79_$LT$core..result..Result$LT$T$C$E$GT$$u20$as$u20$core..ops..try_trait..Try$GT$6branch17h5116256289ef65c1E', symObjAddr: 0x2698, symBinAddr: 0x2076C, symSize: 0xB8 }
  - { offset: 0x4F584, size: 0x8, addend: 0x0, symName: '__ZN79_$LT$core..result..Result$LT$T$C$E$GT$$u20$as$u20$core..ops..try_trait..Try$GT$6branch17h56ad67669f33c187E', symObjAddr: 0x2750, symBinAddr: 0x20824, symSize: 0x94 }
  - { offset: 0x4F601, size: 0x8, addend: 0x0, symName: '__ZN79_$LT$core..result..Result$LT$T$C$E$GT$$u20$as$u20$core..ops..try_trait..Try$GT$6branch17h6d7cf4f5ac2c5e3eE', symObjAddr: 0x27E4, symBinAddr: 0x208B8, symSize: 0x5C }
  - { offset: 0x4F67E, size: 0x8, addend: 0x0, symName: '__ZN79_$LT$core..result..Result$LT$T$C$E$GT$$u20$as$u20$core..ops..try_trait..Try$GT$6branch17h79a5821548f70bc4E', symObjAddr: 0x2840, symBinAddr: 0x20914, symSize: 0x5C }
  - { offset: 0x4F6FB, size: 0x8, addend: 0x0, symName: '__ZN79_$LT$core..result..Result$LT$T$C$E$GT$$u20$as$u20$core..ops..try_trait..Try$GT$6branch17h8e49d0ffd054272aE', symObjAddr: 0x289C, symBinAddr: 0x20970, symSize: 0x78 }
  - { offset: 0x4F778, size: 0x8, addend: 0x0, symName: '__ZN79_$LT$core..result..Result$LT$T$C$E$GT$$u20$as$u20$core..ops..try_trait..Try$GT$6branch17h902be681f2591a8aE', symObjAddr: 0x2914, symBinAddr: 0x209E8, symSize: 0x88 }
  - { offset: 0x4F7F5, size: 0x8, addend: 0x0, symName: '__ZN79_$LT$core..result..Result$LT$T$C$E$GT$$u20$as$u20$core..ops..try_trait..Try$GT$6branch17h93156e9aeecb7910E', symObjAddr: 0x299C, symBinAddr: 0x20A70, symSize: 0x68 }
  - { offset: 0x4F872, size: 0x8, addend: 0x0, symName: '__ZN79_$LT$core..result..Result$LT$T$C$E$GT$$u20$as$u20$core..ops..try_trait..Try$GT$6branch17h948d7ce4e00f2d65E', symObjAddr: 0x2A04, symBinAddr: 0x20AD8, symSize: 0x54 }
  - { offset: 0x4F8EE, size: 0x8, addend: 0x0, symName: '__ZN79_$LT$core..result..Result$LT$T$C$E$GT$$u20$as$u20$core..ops..try_trait..Try$GT$6branch17h9a1349474385e70dE', symObjAddr: 0x2A58, symBinAddr: 0x20B2C, symSize: 0x5C }
  - { offset: 0x4F96B, size: 0x8, addend: 0x0, symName: '__ZN79_$LT$core..result..Result$LT$T$C$E$GT$$u20$as$u20$core..ops..try_trait..Try$GT$6branch17h9a446a4a53d831e8E', symObjAddr: 0x2AB4, symBinAddr: 0x20B88, symSize: 0x8C }
  - { offset: 0x4F9E8, size: 0x8, addend: 0x0, symName: '__ZN79_$LT$core..result..Result$LT$T$C$E$GT$$u20$as$u20$core..ops..try_trait..Try$GT$6branch17h9d340361c161ff15E', symObjAddr: 0x2B40, symBinAddr: 0x20C14, symSize: 0x7C }
  - { offset: 0x4FA65, size: 0x8, addend: 0x0, symName: '__ZN79_$LT$core..result..Result$LT$T$C$E$GT$$u20$as$u20$core..ops..try_trait..Try$GT$6branch17ha38d66c35c08343aE', symObjAddr: 0x2BBC, symBinAddr: 0x20C90, symSize: 0x7C }
  - { offset: 0x4FAE2, size: 0x8, addend: 0x0, symName: '__ZN79_$LT$core..result..Result$LT$T$C$E$GT$$u20$as$u20$core..ops..try_trait..Try$GT$6branch17haa7aa25549e29756E', symObjAddr: 0x2C38, symBinAddr: 0x20D0C, symSize: 0x8C }
  - { offset: 0x4FB5F, size: 0x8, addend: 0x0, symName: '__ZN79_$LT$core..result..Result$LT$T$C$E$GT$$u20$as$u20$core..ops..try_trait..Try$GT$6branch17haad699314da6c060E', symObjAddr: 0x2CC4, symBinAddr: 0x20D98, symSize: 0x88 }
  - { offset: 0x4FBDC, size: 0x8, addend: 0x0, symName: '__ZN79_$LT$core..result..Result$LT$T$C$E$GT$$u20$as$u20$core..ops..try_trait..Try$GT$6branch17hab882b0e547aed8bE', symObjAddr: 0x2D4C, symBinAddr: 0x20E20, symSize: 0x8C }
  - { offset: 0x4FC59, size: 0x8, addend: 0x0, symName: '__ZN79_$LT$core..result..Result$LT$T$C$E$GT$$u20$as$u20$core..ops..try_trait..Try$GT$6branch17hafca82e09d06148eE', symObjAddr: 0x2DD8, symBinAddr: 0x20EAC, symSize: 0x8C }
  - { offset: 0x4FCD7, size: 0x8, addend: 0x0, symName: '__ZN79_$LT$core..result..Result$LT$T$C$E$GT$$u20$as$u20$core..ops..try_trait..Try$GT$6branch17hb1e539485c879deaE', symObjAddr: 0x2E64, symBinAddr: 0x20F38, symSize: 0x5C }
  - { offset: 0x4FD54, size: 0x8, addend: 0x0, symName: '__ZN79_$LT$core..result..Result$LT$T$C$E$GT$$u20$as$u20$core..ops..try_trait..Try$GT$6branch17hb62af9bc1fc4aeceE', symObjAddr: 0x2EC0, symBinAddr: 0x20F94, symSize: 0x7C }
  - { offset: 0x4FDD1, size: 0x8, addend: 0x0, symName: '__ZN79_$LT$core..result..Result$LT$T$C$E$GT$$u20$as$u20$core..ops..try_trait..Try$GT$6branch17hb6f6f904b6c533a1E', symObjAddr: 0x2F3C, symBinAddr: 0x21010, symSize: 0x5C }
  - { offset: 0x4FE4E, size: 0x8, addend: 0x0, symName: '__ZN79_$LT$core..result..Result$LT$T$C$E$GT$$u20$as$u20$core..ops..try_trait..Try$GT$6branch17hb9e7ed968da7c5e2E', symObjAddr: 0x2F98, symBinAddr: 0x2106C, symSize: 0x7C }
  - { offset: 0x4FECB, size: 0x8, addend: 0x0, symName: '__ZN79_$LT$core..result..Result$LT$T$C$E$GT$$u20$as$u20$core..ops..try_trait..Try$GT$6branch17hca2066b6a6c6ef0cE', symObjAddr: 0x3014, symBinAddr: 0x210E8, symSize: 0x70 }
  - { offset: 0x4FF48, size: 0x8, addend: 0x0, symName: '__ZN79_$LT$core..result..Result$LT$T$C$E$GT$$u20$as$u20$core..ops..try_trait..Try$GT$6branch17he98a1e0126787f91E', symObjAddr: 0x3084, symBinAddr: 0x21158, symSize: 0x5C }
  - { offset: 0x4FFC5, size: 0x8, addend: 0x0, symName: '__ZN79_$LT$core..result..Result$LT$T$C$E$GT$$u20$as$u20$core..ops..try_trait..Try$GT$6branch17hed3b9734f8b10a51E', symObjAddr: 0x30E0, symBinAddr: 0x211B4, symSize: 0x7C }
  - { offset: 0x50042, size: 0x8, addend: 0x0, symName: '__ZN79_$LT$core..result..Result$LT$T$C$E$GT$$u20$as$u20$core..ops..try_trait..Try$GT$6branch17hef58490315f73e24E', symObjAddr: 0x315C, symBinAddr: 0x21230, symSize: 0x88 }
  - { offset: 0x500BF, size: 0x8, addend: 0x0, symName: '__ZN79_$LT$core..result..Result$LT$T$C$E$GT$$u20$as$u20$core..ops..try_trait..Try$GT$6branch17hf1bd728c3b542ecfE', symObjAddr: 0x31E4, symBinAddr: 0x212B8, symSize: 0x5C }
  - { offset: 0x5013C, size: 0x8, addend: 0x0, symName: '__ZN79_$LT$core..result..Result$LT$T$C$E$GT$$u20$as$u20$core..ops..try_trait..Try$GT$6branch17hf633d526d1ff4cf6E', symObjAddr: 0x3240, symBinAddr: 0x21314, symSize: 0x7C }
  - { offset: 0x501B9, size: 0x8, addend: 0x0, symName: '__ZN79_$LT$core..result..Result$LT$T$C$E$GT$$u20$as$u20$core..ops..try_trait..Try$GT$6branch17hf7f4f190b9ce7a61E', symObjAddr: 0x32BC, symBinAddr: 0x21390, symSize: 0x5C }
  - { offset: 0x50236, size: 0x8, addend: 0x0, symName: '__ZN79_$LT$core..result..Result$LT$T$C$E$GT$$u20$as$u20$core..ops..try_trait..Try$GT$6branch17hfa1cda78b5f5c88dE', symObjAddr: 0x3318, symBinAddr: 0x213EC, symSize: 0x94 }
  - { offset: 0x502B3, size: 0x8, addend: 0x0, symName: '__ZN79_$LT$core..result..Result$LT$T$C$E$GT$$u20$as$u20$core..ops..try_trait..Try$GT$6branch17hfb5019c1a0917f3bE', symObjAddr: 0x33AC, symBinAddr: 0x21480, symSize: 0x70 }
  - { offset: 0x50331, size: 0x8, addend: 0x0, symName: '__ZN79_$LT$core..result..Result$LT$T$C$E$GT$$u20$as$u20$core..ops..try_trait..Try$GT$6branch17hfeb18148d537057dE', symObjAddr: 0x341C, symBinAddr: 0x214F0, symSize: 0x40 }
  - { offset: 0x52795, size: 0x8, addend: 0x0, symName: '__ZN88_$LT$core..result..Result$LT$T$C$E$GT$$u20$as$u20$pyo3..impl_..wrap..OkWrap$LT$T$GT$$GT$4wrap17h630e8c409db0c9c8E', symObjAddr: 0x345C, symBinAddr: 0x21530, symSize: 0x30 }
  - { offset: 0x53152, size: 0x8, addend: 0x0, symName: '__ZN4core6result19Result$LT$T$C$E$GT$3map17h0ef36b4edb44dcccE', symObjAddr: 0x720, symBinAddr: 0x1E7F4, symSize: 0x6C }
  - { offset: 0x53237, size: 0x8, addend: 0x0, symName: '__ZN4core6result19Result$LT$T$C$E$GT$3map17h1206f451ff6e48b1E', symObjAddr: 0x78C, symBinAddr: 0x1E860, symSize: 0x94 }
  - { offset: 0x532E2, size: 0x8, addend: 0x0, symName: '__ZN4core6result19Result$LT$T$C$E$GT$3map17h2894f9e1d350ab0dE', symObjAddr: 0x820, symBinAddr: 0x1E8F4, symSize: 0xA4 }
  - { offset: 0x5338D, size: 0x8, addend: 0x0, symName: '__ZN4core6result19Result$LT$T$C$E$GT$3map17h3f548d9ca8d29f57E', symObjAddr: 0x8C4, symBinAddr: 0x1E998, symSize: 0xA4 }
  - { offset: 0x53438, size: 0x8, addend: 0x0, symName: '__ZN4core6result19Result$LT$T$C$E$GT$3map17h4cf9af521ced2d1cE', symObjAddr: 0x968, symBinAddr: 0x1EA3C, symSize: 0xB4 }
  - { offset: 0x534E3, size: 0x8, addend: 0x0, symName: '__ZN4core6result19Result$LT$T$C$E$GT$3map17h547e3f545dfca8e2E', symObjAddr: 0xA1C, symBinAddr: 0x1EAF0, symSize: 0x6C }
  - { offset: 0x5358E, size: 0x8, addend: 0x0, symName: '__ZN4core6result19Result$LT$T$C$E$GT$3map17h5763d178069d0b80E', symObjAddr: 0xA88, symBinAddr: 0x1EB5C, symSize: 0xA4 }
  - { offset: 0x53A91, size: 0x8, addend: 0x0, symName: '__ZN4core6result19Result$LT$T$C$E$GT$3map17h5fe66627d7ad8e3fE', symObjAddr: 0xB2C, symBinAddr: 0x1EC00, symSize: 0xA0 }
  - { offset: 0x53B43, size: 0x8, addend: 0x0, symName: '__ZN4core6result19Result$LT$T$C$E$GT$3map17h66970b9f60d2887cE', symObjAddr: 0xBCC, symBinAddr: 0x1ECA0, symSize: 0xA0 }
  - { offset: 0x53BEF, size: 0x8, addend: 0x0, symName: '__ZN4core6result19Result$LT$T$C$E$GT$3map17h6e76427cff0a97c7E', symObjAddr: 0xC6C, symBinAddr: 0x1ED40, symSize: 0xA0 }
  - { offset: 0x53C9A, size: 0x8, addend: 0x0, symName: '__ZN4core6result19Result$LT$T$C$E$GT$3map17h7b4470b11bdb7966E', symObjAddr: 0xD0C, symBinAddr: 0x1EDE0, symSize: 0x6C }
  - { offset: 0x53D4B, size: 0x8, addend: 0x0, symName: '__ZN4core6result19Result$LT$T$C$E$GT$3map17h7d39dc12be623443E', symObjAddr: 0xD78, symBinAddr: 0x1EE4C, symSize: 0xA0 }
  - { offset: 0x53DF7, size: 0x8, addend: 0x0, symName: '__ZN4core6result19Result$LT$T$C$E$GT$3map17h832317190c8f46d1E', symObjAddr: 0xE18, symBinAddr: 0x1EEEC, symSize: 0x6C }
  - { offset: 0x53EA2, size: 0x8, addend: 0x0, symName: '__ZN4core6result19Result$LT$T$C$E$GT$3map17h8870548d38809d00E', symObjAddr: 0xE84, symBinAddr: 0x1EF58, symSize: 0xA0 }
  - { offset: 0x53F4D, size: 0x8, addend: 0x0, symName: '__ZN4core6result19Result$LT$T$C$E$GT$3map17had4af0bc837831e9E', symObjAddr: 0xF24, symBinAddr: 0x1EFF8, symSize: 0x6C }
  - { offset: 0x53FF8, size: 0x8, addend: 0x0, symName: '__ZN4core6result19Result$LT$T$C$E$GT$3map17hb6bbd864c8cfdfc8E', symObjAddr: 0xF90, symBinAddr: 0x1F064, symSize: 0x6C }
  - { offset: 0x540A3, size: 0x8, addend: 0x0, symName: '__ZN4core6result19Result$LT$T$C$E$GT$3map17hb71c8081b76d054dE', symObjAddr: 0xFFC, symBinAddr: 0x1F0D0, symSize: 0xA4 }
  - { offset: 0x5414E, size: 0x8, addend: 0x0, symName: '__ZN4core6result19Result$LT$T$C$E$GT$3map17hbee1d0489d214f4dE', symObjAddr: 0x10A0, symBinAddr: 0x1F174, symSize: 0xB0 }
  - { offset: 0x541E1, size: 0x8, addend: 0x0, symName: '__ZN4core6result19Result$LT$T$C$E$GT$3map17hc3418eff0228ee9cE', symObjAddr: 0x1150, symBinAddr: 0x1F224, symSize: 0x80 }
  - { offset: 0x54274, size: 0x8, addend: 0x0, symName: '__ZN4core6result19Result$LT$T$C$E$GT$3map17hc5c6695f3780d1c7E', symObjAddr: 0x11D0, symBinAddr: 0x1F2A4, symSize: 0xA8 }
  - { offset: 0x5431F, size: 0x8, addend: 0x0, symName: '__ZN4core6result19Result$LT$T$C$E$GT$3map17he0ab0423c16432d2E', symObjAddr: 0x1278, symBinAddr: 0x1F34C, symSize: 0x6C }
  - { offset: 0x543CA, size: 0x8, addend: 0x0, symName: '__ZN4core6result19Result$LT$T$C$E$GT$3map17heb6693daa10c169eE', symObjAddr: 0x12E4, symBinAddr: 0x1F3B8, symSize: 0xA0 }
  - { offset: 0x54475, size: 0x8, addend: 0x0, symName: '__ZN4core6result19Result$LT$T$C$E$GT$3map17hef3d739e86532db9E', symObjAddr: 0x1384, symBinAddr: 0x1F458, symSize: 0xA0 }
  - { offset: 0x54520, size: 0x8, addend: 0x0, symName: '__ZN4core6result19Result$LT$T$C$E$GT$3map17hfa43a036402df806E', symObjAddr: 0x1424, symBinAddr: 0x1F4F8, symSize: 0x6C }
  - { offset: 0x545E5, size: 0x8, addend: 0x0, symName: '__ZN4core6result19Result$LT$T$C$E$GT$6is_err17h0663a047e4615818E', symObjAddr: 0x1490, symBinAddr: 0x1F564, symSize: 0x20 }
  - { offset: 0x54652, size: 0x8, addend: 0x0, symName: '__ZN4core6result19Result$LT$T$C$E$GT$7map_err17h11411802a331b43aE', symObjAddr: 0x14B0, symBinAddr: 0x1F584, symSize: 0xA0 }
  - { offset: 0x546E5, size: 0x8, addend: 0x0, symName: '__ZN4core6result19Result$LT$T$C$E$GT$7map_err17h1d55a2e31ea46d6cE', symObjAddr: 0x1550, symBinAddr: 0x1F624, symSize: 0x90 }
  - { offset: 0x54A11, size: 0x8, addend: 0x0, symName: '__ZN4core6result19Result$LT$T$C$E$GT$7map_err17h23228d96d647ec21E', symObjAddr: 0x15E0, symBinAddr: 0x1F6B4, symSize: 0xA8 }
  - { offset: 0x54AA4, size: 0x8, addend: 0x0, symName: '__ZN4core6result19Result$LT$T$C$E$GT$7map_err17h252560882f42fa2bE', symObjAddr: 0x1688, symBinAddr: 0x1F75C, symSize: 0x84 }
  - { offset: 0x54B37, size: 0x8, addend: 0x0, symName: '__ZN4core6result19Result$LT$T$C$E$GT$7map_err17h37c85247b101a203E', symObjAddr: 0x170C, symBinAddr: 0x1F7E0, symSize: 0x98 }
  - { offset: 0x54BCA, size: 0x8, addend: 0x0, symName: '__ZN4core6result19Result$LT$T$C$E$GT$7map_err17h477ea971b1cbf0f5E', symObjAddr: 0x17A4, symBinAddr: 0x1F878, symSize: 0x84 }
  - { offset: 0x54C5D, size: 0x8, addend: 0x0, symName: '__ZN4core6result19Result$LT$T$C$E$GT$7map_err17h4c0a59abe0d104feE', symObjAddr: 0x1828, symBinAddr: 0x1F8FC, symSize: 0xA8 }
  - { offset: 0x54CF0, size: 0x8, addend: 0x0, symName: '__ZN4core6result19Result$LT$T$C$E$GT$7map_err17h4e423aa6aeed0542E', symObjAddr: 0x18D0, symBinAddr: 0x1F9A4, symSize: 0xA4 }
  - { offset: 0x54D83, size: 0x8, addend: 0x0, symName: '__ZN4core6result19Result$LT$T$C$E$GT$7map_err17h54e1722e0c2ab916E', symObjAddr: 0x1974, symBinAddr: 0x1FA48, symSize: 0x84 }
  - { offset: 0x54E16, size: 0x8, addend: 0x0, symName: '__ZN4core6result19Result$LT$T$C$E$GT$7map_err17h580abd6a5ee5fd4bE', symObjAddr: 0x19F8, symBinAddr: 0x1FACC, symSize: 0xB0 }
  - { offset: 0x54EC3, size: 0x8, addend: 0x0, symName: '__ZN4core6result19Result$LT$T$C$E$GT$7map_err17h6a609e5a34b1a5baE', symObjAddr: 0x1AA8, symBinAddr: 0x1FB7C, symSize: 0x74 }
  - { offset: 0x54F55, size: 0x8, addend: 0x0, symName: '__ZN4core6result19Result$LT$T$C$E$GT$7map_err17h7326ff996030c328E', symObjAddr: 0x1B1C, symBinAddr: 0x1FBF0, symSize: 0x90 }
  - { offset: 0x54FE8, size: 0x8, addend: 0x0, symName: '__ZN4core6result19Result$LT$T$C$E$GT$7map_err17h85556ac0810cdff9E', symObjAddr: 0x1BAC, symBinAddr: 0x1FC80, symSize: 0x90 }
  - { offset: 0x5507B, size: 0x8, addend: 0x0, symName: '__ZN4core6result19Result$LT$T$C$E$GT$7map_err17had766fe8a8f5ea15E', symObjAddr: 0x1C3C, symBinAddr: 0x1FD10, symSize: 0x90 }
  - { offset: 0x5510E, size: 0x8, addend: 0x0, symName: '__ZN4core6result19Result$LT$T$C$E$GT$7map_err17hae2c26704bdc212eE', symObjAddr: 0x1CCC, symBinAddr: 0x1FDA0, symSize: 0xA0 }
  - { offset: 0x551A1, size: 0x8, addend: 0x0, symName: '__ZN4core6result19Result$LT$T$C$E$GT$7map_err17hb61487f72ea65a21E', symObjAddr: 0x1D6C, symBinAddr: 0x1FE40, symSize: 0x7C }
  - { offset: 0x5524B, size: 0x8, addend: 0x0, symName: '__ZN4core6result19Result$LT$T$C$E$GT$7map_err17hbb4ce44d5e25e532E', symObjAddr: 0x1DE8, symBinAddr: 0x1FEBC, symSize: 0x40 }
  - { offset: 0x552D8, size: 0x8, addend: 0x0, symName: '__ZN4core6result19Result$LT$T$C$E$GT$7map_err17he8605a2f84ad6302E', symObjAddr: 0x1E28, symBinAddr: 0x1FEFC, symSize: 0xAC }
  - { offset: 0x5536B, size: 0x8, addend: 0x0, symName: '__ZN4core6result19Result$LT$T$C$E$GT$7map_err17hf5b7c28d8a86887cE', symObjAddr: 0x1ED4, symBinAddr: 0x1FFA8, symSize: 0xA0 }
  - { offset: 0x556D6, size: 0x8, addend: 0x0, symName: '__ZN4core3str21_$LT$impl$u20$str$GT$8is_empty17hb3a41df4bfa392feE', symObjAddr: 0x0, symBinAddr: 0x21560, symSize: 0x1C }
  - { offset: 0x556F2, size: 0x8, addend: 0x0, symName: '__ZN4core3str21_$LT$impl$u20$str$GT$8is_empty17hb3a41df4bfa392feE', symObjAddr: 0x0, symBinAddr: 0x21560, symSize: 0x1C }
  - { offset: 0x5577B, size: 0x8, addend: 0x0, symName: '__ZN106_$LT$pyo3..impl_..extract_argument..NoVarargs$u20$as$u20$pyo3..impl_..extract_argument..VarargsHandler$GT$20handle_varargs_tuple17h38398717917d3b93E', symObjAddr: 0x0, symBinAddr: 0x2157C, symSize: 0x94 }
  - { offset: 0x55803, size: 0x8, addend: 0x0, symName: '__ZN106_$LT$pyo3..impl_..extract_argument..NoVarargs$u20$as$u20$pyo3..impl_..extract_argument..VarargsHandler$GT$20handle_varargs_tuple17h38398717917d3b93E', symObjAddr: 0x0, symBinAddr: 0x2157C, symSize: 0x94 }
  - { offset: 0x55882, size: 0x8, addend: 0x0, symName: '__ZN114_$LT$pyo3..impl_..extract_argument..NoVarkeywords$u20$as$u20$pyo3..impl_..extract_argument..VarkeywordsHandler$GT$17handle_varkeyword17h9f98ac7cbc2c5bfbE', symObjAddr: 0x94, symBinAddr: 0x21610, symSize: 0x60 }
  - { offset: 0x559C1, size: 0x8, addend: 0x0, symName: __ZN4pyo35impl_16extract_argument24unwrap_required_argument17h47d3705be75068beE, symObjAddr: 0x490, symBinAddr: 0x21A0C, symSize: 0x64 }
  - { offset: 0x559F2, size: 0x8, addend: 0x0, symName: '__ZN77_$LT$$RF$str$u20$as$u20$pyo3..impl_..extract_argument..PyFunctionArgument$GT$7extract17hcccec3dedff04e17E', symObjAddr: 0x4F4, symBinAddr: 0x21A70, symSize: 0xB4 }
  - { offset: 0x56772, size: 0x8, addend: 0x0, symName: __ZN4pyo35impl_16extract_argument19FunctionDescription36find_keyword_parameter_in_positional17h3e901f9bf067cf3eE, symObjAddr: 0xF4, symBinAddr: 0x21670, symSize: 0x5C }
  - { offset: 0x567A4, size: 0x8, addend: 0x0, symName: __ZN4pyo35impl_16extract_argument19FunctionDescription38find_keyword_parameter_in_keyword_only17h83c42dd059bc27d6E, symObjAddr: 0x150, symBinAddr: 0x216CC, symSize: 0x5C }
  - { offset: 0x568C6, size: 0x8, addend: 0x0, symName: __ZN4pyo35impl_16extract_argument19FunctionDescription44ensure_no_missing_required_keyword_arguments17h2917cb9c47989cc0E, symObjAddr: 0x1AC, symBinAddr: 0x21728, symSize: 0x154 }
  - { offset: 0x56992, size: 0x8, addend: 0x0, symName: __ZN4pyo35impl_16extract_argument19FunctionDescription47ensure_no_missing_required_positional_arguments17h72371cc90de68ff3E, symObjAddr: 0x300, symBinAddr: 0x2187C, symSize: 0x190 }
  - { offset: 0x56C91, size: 0x8, addend: 0x0, symName: '__ZN45_$LT$T$u20$as$u20$alloc..string..ToString$GT$9to_string17h13c6161cbc739a50E', symObjAddr: 0x0, symBinAddr: 0x21B24, symSize: 0x24 }
  - { offset: 0x56CED, size: 0x8, addend: 0x0, symName: '__ZN45_$LT$T$u20$as$u20$alloc..string..ToString$GT$9to_string17h13c6161cbc739a50E', symObjAddr: 0x0, symBinAddr: 0x21B24, symSize: 0x24 }
  - { offset: 0x56D2A, size: 0x8, addend: 0x0, symName: '__ZN49_$LT$T$u20$as$u20$alloc..string..SpecToString$GT$14spec_to_string17h5c9849a629c40bb7E', symObjAddr: 0x24, symBinAddr: 0x21B48, symSize: 0xF4 }
  - { offset: 0x57BE2, size: 0x8, addend: 0x0, symName: '__ZN50_$LT$T$u20$as$u20$core..convert..Into$LT$U$GT$$GT$4into17he4b7314b95ffcbd9E', symObjAddr: 0x0, symBinAddr: 0x21C3C, symSize: 0x14 }
  - { offset: 0x57C2B, size: 0x8, addend: 0x0, symName: '__ZN50_$LT$T$u20$as$u20$core..convert..Into$LT$U$GT$$GT$4into17he4b7314b95ffcbd9E', symObjAddr: 0x0, symBinAddr: 0x21C3C, symSize: 0x14 }
  - { offset: 0x57C5C, size: 0x8, addend: 0x0, symName: '__ZN50_$LT$T$u20$as$u20$core..convert..Into$LT$U$GT$$GT$4into17he4b7314b95ffcbd9E', symObjAddr: 0x0, symBinAddr: 0x21C3C, symSize: 0x14 }
  - { offset: 0x5816C, size: 0x8, addend: 0x0, symName: '__ZN103_$LT$pyo3..instance..Bound$LT$pyo3..types..any..PyAny$GT$$u20$as$u20$pyo3..types..any..PyAnyMethods$GT$7extract17h6d1bef5b9f7de551E', symObjAddr: 0x0, symBinAddr: 0x21C50, symSize: 0x30 }
  - { offset: 0x581F4, size: 0x8, addend: 0x0, symName: '__ZN103_$LT$pyo3..instance..Bound$LT$pyo3..types..any..PyAny$GT$$u20$as$u20$pyo3..types..any..PyAnyMethods$GT$7extract17h6d1bef5b9f7de551E', symObjAddr: 0x0, symBinAddr: 0x21C50, symSize: 0x30 }
  - { offset: 0x582D9, size: 0x8, addend: 0x0, symName: '__ZN4pyo35impl_9pymethods133_$LT$impl$u20$core..convert..From$LT$pyo3..impl_..pymethods..BoundRef$LT$T$GT$$GT$$u20$for$u20$$RF$pyo3..instance..Bound$LT$T$GT$$GT$4from17h0e7cfc11ded385b5E', symObjAddr: 0x30, symBinAddr: 0x21C80, symSize: 0x14 }
  - { offset: 0x583A4, size: 0x8, addend: 0x0, symName: '__ZN4pyo38instance39Borrowed$LT$pyo3..types..any..PyAny$GT$15from_ptr_or_opt28_$u7b$$u7b$closure$u7d$$u7d$17he925bd9d740874f7E', symObjAddr: 0x74, symBinAddr: 0x21CC4, symSize: 0x20 }
  - { offset: 0x58BB4, size: 0x8, addend: 0x0, symName: '__ZN4pyo38instance11Py$LT$T$GT$8into_ptr17h61691a538c1c45a3E', symObjAddr: 0x44, symBinAddr: 0x21C94, symSize: 0x30 }
  - { offset: 0x58C32, size: 0x8, addend: 0x0, symName: '__ZN4pyo38instance39Borrowed$LT$pyo3..types..any..PyAny$GT$18downcast_unchecked17h0415c756a309fc1eE', symObjAddr: 0x94, symBinAddr: 0x21CE4, symSize: 0x14 }
  - { offset: 0x58C6B, size: 0x8, addend: 0x0, symName: '__ZN4pyo38instance39Borrowed$LT$pyo3..types..any..PyAny$GT$18downcast_unchecked17h99cfad42b75a316bE', symObjAddr: 0xA8, symBinAddr: 0x21CF8, symSize: 0x14 }
  - { offset: 0x58EB7, size: 0x8, addend: 0x0, symName: '__ZN100_$LT$core..iter..adapters..take..Take$LT$I$GT$$u20$as$u20$core..iter..traits..iterator..Iterator$GT$4next17h572dc7d38fff1d1eE', symObjAddr: 0x0, symBinAddr: 0x21D0C, symSize: 0x58 }
  - { offset: 0x58F44, size: 0x8, addend: 0x0, symName: '__ZN100_$LT$core..iter..adapters..take..Take$LT$I$GT$$u20$as$u20$core..iter..traits..iterator..Iterator$GT$4next17h572dc7d38fff1d1eE', symObjAddr: 0x0, symBinAddr: 0x21D0C, symSize: 0x58 }
  - { offset: 0x59003, size: 0x8, addend: 0x0, symName: __ZN4core4iter6traits8iterator8Iterator9enumerate17h602965f4c5bc8046E, symObjAddr: 0x58, symBinAddr: 0x21D64, symSize: 0x18 }
  - { offset: 0x59034, size: 0x8, addend: 0x0, symName: __ZN4core4iter6traits8iterator8Iterator9enumerate17h602965f4c5bc8046E, symObjAddr: 0x58, symBinAddr: 0x21D64, symSize: 0x18 }
  - { offset: 0x59417, size: 0x8, addend: 0x0, symName: '__ZN58_$LT$alloc..string..String$u20$as$u20$core..fmt..Write$GT$10write_char17h2885cf9ac4b91704E', symObjAddr: 0x0, symBinAddr: 0x21D7C, symSize: 0x30 }
  - { offset: 0x59433, size: 0x8, addend: 0x0, symName: '__ZN58_$LT$alloc..string..String$u20$as$u20$core..fmt..Write$GT$10write_char17h2885cf9ac4b91704E', symObjAddr: 0x0, symBinAddr: 0x21D7C, symSize: 0x30 }
  - { offset: 0x59470, size: 0x8, addend: 0x0, symName: '__ZN58_$LT$alloc..string..String$u20$as$u20$core..fmt..Write$GT$9write_str17hf96d2294f62d83cfE', symObjAddr: 0x30, symBinAddr: 0x21DAC, symSize: 0x38 }
  - { offset: 0x59586, size: 0x8, addend: 0x0, symName: '__ZN62_$LT$alloc..string..String$u20$as$u20$core..cmp..PartialEq$GT$2eq17h065a0074f029fcf2E', symObjAddr: 0x3A4, symBinAddr: 0x22120, symSize: 0x2C }
  - { offset: 0x595C9, size: 0x8, addend: 0x0, symName: '__ZN65_$LT$alloc..string..String$u20$as$u20$core..ops..deref..Deref$GT$5deref17h8a61300d37b52146E', symObjAddr: 0x3D0, symBinAddr: 0x2214C, symSize: 0x24 }
  - { offset: 0x59DDC, size: 0x8, addend: 0x0, symName: __ZN5alloc6string13FromUtf8Error10into_bytes17hb8c4112e9eeb7ddfE, symObjAddr: 0x68, symBinAddr: 0x21DE4, symSize: 0x18 }
  - { offset: 0x59FD7, size: 0x8, addend: 0x0, symName: __ZN5alloc6string6String4push17h6cf8381970eab969E, symObjAddr: 0x80, symBinAddr: 0x21DFC, symSize: 0x114 }
  - { offset: 0x5A2FD, size: 0x8, addend: 0x0, symName: __ZN5alloc6string6String6as_str17heb4f1e883c238380E, symObjAddr: 0x194, symBinAddr: 0x21F10, symSize: 0x70 }
  - { offset: 0x5A4CB, size: 0x8, addend: 0x0, symName: __ZN5alloc6string6String8push_str17h3c0e7ad9f6dfb5bbE, symObjAddr: 0x204, symBinAddr: 0x21F80, symSize: 0x50 }
  - { offset: 0x5A6AC, size: 0x8, addend: 0x0, symName: __ZN5alloc6string6String9from_utf817h71df4ea4dfa8ce24E, symObjAddr: 0x254, symBinAddr: 0x21FD0, symSize: 0x150 }
  - { offset: 0x5A7DF, size: 0x8, addend: 0x0, symName: '__ZN115_$LT$core..iter..adapters..filter_map..FilterMap$LT$I$C$F$GT$$u20$as$u20$core..iter..traits..iterator..Iterator$GT$4next17h5ffc900f8c84ac27E', symObjAddr: 0x0, symBinAddr: 0x22170, symSize: 0x2C }
  - { offset: 0x5A949, size: 0x8, addend: 0x0, symName: '__ZN115_$LT$core..iter..adapters..filter_map..FilterMap$LT$I$C$F$GT$$u20$as$u20$core..iter..traits..iterator..Iterator$GT$4next17h5ffc900f8c84ac27E', symObjAddr: 0x0, symBinAddr: 0x22170, symSize: 0x2C }
  - { offset: 0x5A990, size: 0x8, addend: 0x0, symName: '__ZN115_$LT$core..iter..adapters..filter_map..FilterMap$LT$I$C$F$GT$$u20$as$u20$core..iter..traits..iterator..Iterator$GT$9size_hint17h038b2173a6e07b91E', symObjAddr: 0x2C, symBinAddr: 0x2219C, symSize: 0x4C }
  - { offset: 0x5AA39, size: 0x8, addend: 0x0, symName: __ZN4core4iter6traits8iterator8Iterator7collect17h1fe7da92db178b3bE, symObjAddr: 0x78, symBinAddr: 0x221E8, symSize: 0x2C }
  - { offset: 0x5AA85, size: 0x8, addend: 0x0, symName: '__ZN63_$LT$I$u20$as$u20$core..iter..traits..collect..IntoIterator$GT$9into_iter17he9d43b3250f97819E', symObjAddr: 0xA4, symBinAddr: 0x22214, symSize: 0x1C }
  - { offset: 0x5AFC2, size: 0x8, addend: 0x0, symName: '__ZN4core3ptr9const_ptr33_$LT$impl$u20$$BP$const$u20$T$GT$20offset_from_unsigned18precondition_check17h9516dfceb2ea352bE', symObjAddr: 0x0, symBinAddr: 0x22230, symSize: 0xAC }
  - { offset: 0x5B24A, size: 0x8, addend: 0x0, symName: '__ZN4core3ptr9const_ptr33_$LT$impl$u20$$BP$const$u20$T$GT$20offset_from_unsigned18precondition_check17h9516dfceb2ea352bE', symObjAddr: 0x0, symBinAddr: 0x22230, symSize: 0xAC }
  - { offset: 0x5B4F8, size: 0x8, addend: 0x0, symName: __ZN4pyo33gil8GILGuard6python17hc0cb7e1d5eb8bf36E, symObjAddr: 0x0, symBinAddr: 0x222DC, symSize: 0x20 }
  - { offset: 0x5B5A8, size: 0x8, addend: 0x0, symName: __ZN4pyo33gil8GILGuard6python17hc0cb7e1d5eb8bf36E, symObjAddr: 0x0, symBinAddr: 0x222DC, symSize: 0x20 }
  - { offset: 0x5B5E8, size: 0x8, addend: 0x0, symName: __ZN4pyo35impl_5panic9PanicTrap3new17h93ba4e386b995dfaE, symObjAddr: 0x0, symBinAddr: 0x222FC, symSize: 0x18 }
  - { offset: 0x5B677, size: 0x8, addend: 0x0, symName: __ZN4pyo35impl_5panic9PanicTrap3new17h93ba4e386b995dfaE, symObjAddr: 0x0, symBinAddr: 0x222FC, symSize: 0x18 }
  - { offset: 0x5B699, size: 0x8, addend: 0x0, symName: __ZN4pyo35impl_5panic9PanicTrap6disarm17h3c95c3f8b5a2bbadE, symObjAddr: 0x18, symBinAddr: 0x22314, symSize: 0x28 }
  - { offset: 0x5B6D9, size: 0x8, addend: 0x0, symName: __ZN5alloc3fmt6format17h9fe8ea4fdb48200bE, symObjAddr: 0x0, symBinAddr: 0x2233C, symSize: 0xC4 }
  - { offset: 0x5BC74, size: 0x8, addend: 0x0, symName: __ZN5alloc3fmt6format17h9fe8ea4fdb48200bE, symObjAddr: 0x0, symBinAddr: 0x2233C, symSize: 0xC4 }
  - { offset: 0x5BDD2, size: 0x8, addend: 0x0, symName: __ZN13cli_generator4core5query11identifiers15TaxonFilterType12api_function17hd40732bcbde00714E, symObjAddr: 0x0, symBinAddr: 0x22400, symSize: 0x88 }
  - { offset: 0x5BE3A, size: 0x8, addend: 0x0, symName: '__ZN226_$LT$cli_generator..core..query..identifiers.._..$LT$impl$u20$serde_core..de..Deserialize$u20$for$u20$cli_generator..core..query..identifiers..Identifiers$GT$..deserialize..__FieldVisitor$u20$as$u20$serde_core..de..Visitor$GT$9expecting17hee3a802bde975e65E', symObjAddr: 0x88, symBinAddr: 0x22488, symSize: 0x40 }
  - { offset: 0x5BE74, size: 0x8, addend: 0x0, symName: '__ZN230_$LT$cli_generator..core..query..identifiers.._..$LT$impl$u20$serde_core..de..Deserialize$u20$for$u20$cli_generator..core..query..identifiers..TaxonFilterType$GT$..deserialize..__FieldVisitor$u20$as$u20$serde_core..de..Visitor$GT$9expecting17h44028e46f2d3be5eE', symObjAddr: 0xC8, symBinAddr: 0x224C8, symSize: 0x40 }
  - { offset: 0x5BEC7, size: 0x8, addend: 0x0, symName: '__ZN99_$LT$cli_generator..core..query..identifiers..TaxonFilterType$u20$as$u20$core..default..Default$GT$7default17h745678278c4e5b8dE', symObjAddr: 0x108, symBinAddr: 0x22508, symSize: 0x8 }
  - { offset: 0x5BF2B, size: 0x8, addend: 0x0, symName: __ZN13cli_generator4core5query11identifiers15TaxonFilterType12api_function17hd40732bcbde00714E, symObjAddr: 0x0, symBinAddr: 0x22400, symSize: 0x88 }
  - { offset: 0x5C0DE, size: 0x8, addend: 0x0, symName: '__ZN110_$LT$core..iter..adapters..enumerate..Enumerate$LT$I$GT$$u20$as$u20$core..iter..traits..iterator..Iterator$GT$4next17hb033b5ee6b4593a6E', symObjAddr: 0x0, symBinAddr: 0x22510, symSize: 0xE0 }
  - { offset: 0x5C440, size: 0x8, addend: 0x0, symName: '__ZN110_$LT$core..iter..adapters..enumerate..Enumerate$LT$I$GT$$u20$as$u20$core..iter..traits..iterator..Iterator$GT$4next17hb033b5ee6b4593a6E', symObjAddr: 0x0, symBinAddr: 0x22510, symSize: 0xE0 }
  - { offset: 0x5C592, size: 0x8, addend: 0x0, symName: '__ZN63_$LT$I$u20$as$u20$core..iter..traits..collect..IntoIterator$GT$9into_iter17h5ad4f315d74fb522E', symObjAddr: 0xE0, symBinAddr: 0x225F0, symSize: 0x30 }
  - { offset: 0x5C879, size: 0x8, addend: 0x0, symName: __ZN5alloc5alloc15exchange_malloc17h25a8fd576d80e5bfE, symObjAddr: 0x0, symBinAddr: 0x22620, symSize: 0xAC }
  - { offset: 0x5D217, size: 0x8, addend: 0x0, symName: '__ZN63_$LT$alloc..alloc..Global$u20$as$u20$core..alloc..Allocator$GT$10deallocate17h434aad0f8786715dE', symObjAddr: 0x244, symBinAddr: 0x22864, symSize: 0x58 }
  - { offset: 0x5D2CC, size: 0x8, addend: 0x0, symName: __ZN5alloc5alloc15exchange_malloc17h25a8fd576d80e5bfE, symObjAddr: 0x0, symBinAddr: 0x22620, symSize: 0xAC }
  - { offset: 0x5D5D3, size: 0x8, addend: 0x0, symName: __ZN5alloc5alloc6Global10alloc_impl17hca61ff5308d446b6E, symObjAddr: 0xAC, symBinAddr: 0x226CC, symSize: 0x198 }
  - { offset: 0x5D9AF, size: 0x8, addend: 0x0, symName: __ZN4pyo35impl_12deprecations12inspect_type17h4323160d72967dbbE, symObjAddr: 0x0, symBinAddr: 0x228BC, symSize: 0x18 }
  - { offset: 0x5DA32, size: 0x8, addend: 0x0, symName: __ZN4pyo35impl_12deprecations12inspect_type17h4323160d72967dbbE, symObjAddr: 0x0, symBinAddr: 0x228BC, symSize: 0x18 }
  - { offset: 0x5DA71, size: 0x8, addend: 0x0, symName: __ZN4pyo35impl_12deprecations12inspect_type17hcc84b2e9f9fde59aE, symObjAddr: 0x18, symBinAddr: 0x228D4, symSize: 0x1C }
  - { offset: 0x5DBE1, size: 0x8, addend: 0x0, symName: '__ZN87_$LT$pyo3..impl_..deprecations..GilRefs$LT$T$GT$$u20$as$u20$core..ops..deref..Deref$GT$5deref17hb83209896725d030E', symObjAddr: 0x6C, symBinAddr: 0x22928, symSize: 0x14 }
  - { offset: 0x5DC16, size: 0x8, addend: 0x0, symName: '__ZN87_$LT$pyo3..impl_..deprecations..GilRefs$LT$T$GT$$u20$as$u20$core..ops..deref..Deref$GT$5deref17hd0e3cbcee08588c4E', symObjAddr: 0x80, symBinAddr: 0x2293C, symSize: 0x14 }
  - { offset: 0x5DC51, size: 0x8, addend: 0x0, symName: '__ZN93_$LT$pyo3..impl_..deprecations..OptionGilRefs$LT$T$GT$$u20$as$u20$core..ops..deref..Deref$GT$5deref17hba53b6200c895b7fE', symObjAddr: 0x94, symBinAddr: 0x22950, symSize: 0x14 }
  - { offset: 0x5DC86, size: 0x8, addend: 0x0, symName: '__ZN93_$LT$pyo3..impl_..deprecations..OptionGilRefs$LT$T$GT$$u20$as$u20$core..ops..deref..Deref$GT$5deref17hcc16d2d1f83f595aE', symObjAddr: 0xA8, symBinAddr: 0x22964, symSize: 0x14 }
  - { offset: 0x5DEF2, size: 0x8, addend: 0x0, symName: '__ZN4pyo35impl_12deprecations16GilRefs$LT$T$GT$3new17h47591ca230e9956eE', symObjAddr: 0x34, symBinAddr: 0x228F0, symSize: 0x4 }
  - { offset: 0x5DF89, size: 0x8, addend: 0x0, symName: '__ZN4pyo35impl_12deprecations16GilRefs$LT$T$GT$3new17h8e6176defb6e1816E', symObjAddr: 0x38, symBinAddr: 0x228F4, symSize: 0x4 }
  - { offset: 0x5DFB3, size: 0x8, addend: 0x0, symName: '__ZN4pyo35impl_12deprecations19NotAGilRef$LT$T$GT$12function_arg17he294831f1839c519E', symObjAddr: 0x3C, symBinAddr: 0x228F8, symSize: 0x10 }
  - { offset: 0x5DFEB, size: 0x8, addend: 0x0, symName: '__ZN4pyo35impl_12deprecations19NotAGilRef$LT$T$GT$12function_arg17hea7ffd1df58f5539E', symObjAddr: 0x4C, symBinAddr: 0x22908, symSize: 0x10 }
  - { offset: 0x5E016, size: 0x8, addend: 0x0, symName: '__ZN4pyo35impl_12deprecations19NotAGilRef$LT$T$GT$9is_python17h5361ace509dbf888E', symObjAddr: 0x5C, symBinAddr: 0x22918, symSize: 0x10 }
  - { offset: 0x5E093, size: 0x8, addend: 0x0, symName: __ZN4core5slice3raw14from_raw_parts18precondition_check17h962bb0acae81ffbaE, symObjAddr: 0x0, symBinAddr: 0x22978, symSize: 0x1D8 }
  - { offset: 0x5E62A, size: 0x8, addend: 0x0, symName: __ZN4core5slice3raw14from_raw_parts18precondition_check17h962bb0acae81ffbaE, symObjAddr: 0x0, symBinAddr: 0x22978, symSize: 0x1D8 }
  - { offset: 0x5E7C8, size: 0x8, addend: 0x0, symName: __ZN4core5slice3raw18from_raw_parts_mut18precondition_check17ha6c2fd1960870c67E, symObjAddr: 0x1D8, symBinAddr: 0x22B50, symSize: 0x1D8 }
  - { offset: 0x5EB45, size: 0x8, addend: 0x0, symName: '__ZN50_$LT$T$u20$as$u20$core..convert..Into$LT$U$GT$$GT$4into17hf2275217fe56ba21E', symObjAddr: 0x0, symBinAddr: 0x22D28, symSize: 0x24 }
  - { offset: 0x5EBC8, size: 0x8, addend: 0x0, symName: '__ZN50_$LT$T$u20$as$u20$core..convert..Into$LT$U$GT$$GT$4into17hf2275217fe56ba21E', symObjAddr: 0x0, symBinAddr: 0x22D28, symSize: 0x24 }
  - { offset: 0x5EEAE, size: 0x8, addend: 0x0, symName: __ZN10serde_core2de7Visitor12visit_string17h530d22edddb34f5aE, symObjAddr: 0x0, symBinAddr: 0x22D4C, symSize: 0x98 }
  - { offset: 0x5EF7A, size: 0x8, addend: 0x0, symName: '__ZN221_$LT$cli_generator..core..query..identifiers.._..$LT$impl$u20$serde_core..de..Deserialize$u20$for$u20$cli_generator..core..query..identifiers..Identifiers$GT$..deserialize..__Visitor$u20$as$u20$serde_core..de..Visitor$GT$9visit_map17h009e616855d02778E', symObjAddr: 0x3C8, symBinAddr: 0x23114, symSize: 0xB10 }
  - { offset: 0x5F1F8, size: 0x8, addend: 0x0, symName: '__ZN225_$LT$cli_generator..core..query..identifiers.._..$LT$impl$u20$serde_core..de..Deserialize$u20$for$u20$cli_generator..core..query..identifiers..TaxonFilterType$GT$..deserialize..__Visitor$u20$as$u20$serde_core..de..Visitor$GT$10visit_enum17hb4072fd1368d7677E', symObjAddr: 0xEEC, symBinAddr: 0x23C38, symSize: 0x1F0 }
  - { offset: 0x5F303, size: 0x8, addend: 0x0, symName: '__ZN223_$LT$cli_generator..core..query..identifiers.._..$LT$impl$u20$serde_core..de..Deserialize$u20$for$u20$cli_generator..core..query..identifiers..Identifiers$GT$..deserialize..__Field$u20$as$u20$serde_core..de..Deserialize$GT$11deserialize17h0600f30dbecf61bcE', symObjAddr: 0xED8, symBinAddr: 0x23C24, symSize: 0x14 }
  - { offset: 0x5F339, size: 0x8, addend: 0x0, symName: '__ZN227_$LT$cli_generator..core..query..identifiers.._..$LT$impl$u20$serde_core..de..Deserialize$u20$for$u20$cli_generator..core..query..identifiers..TaxonFilterType$GT$..deserialize..__Field$u20$as$u20$serde_core..de..Deserialize$GT$11deserialize17hea3543a67f64cfc7E', symObjAddr: 0x1718, symBinAddr: 0x24464, symSize: 0x14 }
  - { offset: 0x5F375, size: 0x8, addend: 0x0, symName: '__ZN226_$LT$cli_generator..core..query..identifiers.._..$LT$impl$u20$serde_core..de..Deserialize$u20$for$u20$cli_generator..core..query..identifiers..Identifiers$GT$..deserialize..__FieldVisitor$u20$as$u20$serde_core..de..Visitor$GT$11visit_bytes17h8c11fe1d0542bdafE', symObjAddr: 0x10DC, symBinAddr: 0x23E28, symSize: 0x418 }
  - { offset: 0x5F3C3, size: 0x8, addend: 0x0, symName: '__ZN226_$LT$cli_generator..core..query..identifiers.._..$LT$impl$u20$serde_core..de..Deserialize$u20$for$u20$cli_generator..core..query..identifiers..Identifiers$GT$..deserialize..__FieldVisitor$u20$as$u20$serde_core..de..Visitor$GT$9visit_str17h26e715c3ae14c3fdE', symObjAddr: 0x14F4, symBinAddr: 0x24240, symSize: 0x150 }
  - { offset: 0x5F411, size: 0x8, addend: 0x0, symName: '__ZN226_$LT$cli_generator..core..query..identifiers.._..$LT$impl$u20$serde_core..de..Deserialize$u20$for$u20$cli_generator..core..query..identifiers..Identifiers$GT$..deserialize..__FieldVisitor$u20$as$u20$serde_core..de..Visitor$GT$9visit_u6417ha3d34f6566734a20E', symObjAddr: 0x1644, symBinAddr: 0x24390, symSize: 0xD4 }
  - { offset: 0x5F45F, size: 0x8, addend: 0x0, symName: '__ZN230_$LT$cli_generator..core..query..identifiers.._..$LT$impl$u20$serde_core..de..Deserialize$u20$for$u20$cli_generator..core..query..identifiers..TaxonFilterType$GT$..deserialize..__FieldVisitor$u20$as$u20$serde_core..de..Visitor$GT$11visit_bytes17h6bbd69656fb685a5E', symObjAddr: 0x172C, symBinAddr: 0x24478, symSize: 0x248 }
  - { offset: 0x5F4C2, size: 0x8, addend: 0x0, symName: '__ZN230_$LT$cli_generator..core..query..identifiers.._..$LT$impl$u20$serde_core..de..Deserialize$u20$for$u20$cli_generator..core..query..identifiers..TaxonFilterType$GT$..deserialize..__FieldVisitor$u20$as$u20$serde_core..de..Visitor$GT$9visit_str17h6dc3dc3944288e6cE', symObjAddr: 0x1974, symBinAddr: 0x246C0, symSize: 0xFC }
  - { offset: 0x5F510, size: 0x8, addend: 0x0, symName: '__ZN230_$LT$cli_generator..core..query..identifiers.._..$LT$impl$u20$serde_core..de..Deserialize$u20$for$u20$cli_generator..core..query..identifiers..TaxonFilterType$GT$..deserialize..__FieldVisitor$u20$as$u20$serde_core..de..Visitor$GT$9visit_u6417hac3255ad063d3f74E', symObjAddr: 0x1A70, symBinAddr: 0x247BC, symSize: 0xC4 }
  - { offset: 0x5F5B2, size: 0x8, addend: 0x0, symName: '__ZN13cli_generator4core5query11identifiers1_110_$LT$impl$u20$serde_core..de..Deserialize$u20$for$u20$cli_generator..core..query..identifiers..Identifiers$GT$11deserialize17h69d047e6149618caE', symObjAddr: 0x350, symBinAddr: 0x2309C, symSize: 0x44 }
  - { offset: 0x5F5E7, size: 0x8, addend: 0x0, symName: '__ZN13cli_generator4core5query11identifiers1_114_$LT$impl$u20$serde_core..de..Deserialize$u20$for$u20$cli_generator..core..query..identifiers..TaxonFilterType$GT$11deserialize17h2bc6ccb299e1ba09E', symObjAddr: 0x394, symBinAddr: 0x230E0, symSize: 0x34 }
  - { offset: 0x5F96F, size: 0x8, addend: 0x0, symName: __ZN10serde_core2de7Visitor12visit_string17h530d22edddb34f5aE, symObjAddr: 0x0, symBinAddr: 0x22D4C, symSize: 0x98 }
  - { offset: 0x5F9BF, size: 0x8, addend: 0x0, symName: __ZN10serde_core2de7Visitor12visit_string17hcaa5b3098fd83f49E, symObjAddr: 0x98, symBinAddr: 0x22DE4, symSize: 0x98 }
  - { offset: 0x5FA0F, size: 0x8, addend: 0x0, symName: __ZN10serde_core2de7Visitor14visit_byte_buf17hc12314501db76ba5E, symObjAddr: 0x130, symBinAddr: 0x22E7C, symSize: 0x98 }
  - { offset: 0x5FA5F, size: 0x8, addend: 0x0, symName: __ZN10serde_core2de7Visitor14visit_byte_buf17hdd344b25c62a0f4dE, symObjAddr: 0x1C8, symBinAddr: 0x22F14, symSize: 0x98 }
  - { offset: 0x5FAAF, size: 0x8, addend: 0x0, symName: __ZN10serde_core2de7Visitor18visit_borrowed_str17h1ca74996f35401a0E, symObjAddr: 0x260, symBinAddr: 0x22FAC, symSize: 0x28 }
  - { offset: 0x5FAFE, size: 0x8, addend: 0x0, symName: __ZN10serde_core2de7Visitor18visit_borrowed_str17hb85e3c14de799a96E, symObjAddr: 0x288, symBinAddr: 0x22FD4, symSize: 0x28 }
  - { offset: 0x5FB4D, size: 0x8, addend: 0x0, symName: __ZN10serde_core2de7Visitor20visit_borrowed_bytes17h7d3bdd81d342d607E, symObjAddr: 0x2B0, symBinAddr: 0x22FFC, symSize: 0x28 }
  - { offset: 0x5FB9C, size: 0x8, addend: 0x0, symName: __ZN10serde_core2de7Visitor20visit_borrowed_bytes17hf101d975a515de53E, symObjAddr: 0x2D8, symBinAddr: 0x23024, symSize: 0x28 }
  - { offset: 0x5FBEB, size: 0x8, addend: 0x0, symName: __ZN10serde_core2de7Visitor8visit_u817h3c2096d6e02278c7E, symObjAddr: 0x300, symBinAddr: 0x2304C, symSize: 0x28 }
  - { offset: 0x5FC3A, size: 0x8, addend: 0x0, symName: __ZN10serde_core2de7Visitor8visit_u817ha800593c7be8dc02E, symObjAddr: 0x328, symBinAddr: 0x23074, symSize: 0x28 }
  - { offset: 0x5FC8F, size: 0x8, addend: 0x0, symName: '__ZN46_$LT$T$u20$as$u20$serde_core..de..Expected$GT$3fmt17h648b5fff4bd669d5E', symObjAddr: 0x1B34, symBinAddr: 0x24880, symSize: 0x2C }
  - { offset: 0x5FCD5, size: 0x8, addend: 0x0, symName: '__ZN46_$LT$T$u20$as$u20$serde_core..de..Expected$GT$3fmt17hed89274e4ea1b3c4E', symObjAddr: 0x1B60, symBinAddr: 0x248AC, symSize: 0x2C }
  - { offset: 0x61335, size: 0x8, addend: 0x0, symName: '__ZN9hashbrown11rustc_entry62_$LT$impl$u20$hashbrown..map..HashMap$LT$K$C$V$C$S$C$A$GT$$GT$11rustc_entry28_$u7b$$u7b$closure$u7d$$u7d$17hdaef1666d3677c4aE', symObjAddr: 0x0, symBinAddr: 0x248D8, symSize: 0x38 }
  - { offset: 0x61356, size: 0x8, addend: 0x0, symName: '__ZN9hashbrown11rustc_entry62_$LT$impl$u20$hashbrown..map..HashMap$LT$K$C$V$C$S$C$A$GT$$GT$11rustc_entry28_$u7b$$u7b$closure$u7d$$u7d$17hdaef1666d3677c4aE', symObjAddr: 0x0, symBinAddr: 0x248D8, symSize: 0x38 }
  - { offset: 0x615D0, size: 0x8, addend: 0x0, symName: '__ZN103_$LT$alloc..vec..into_iter..IntoIter$LT$T$C$A$GT$$u20$as$u20$core..iter..traits..iterator..Iterator$GT$4next17h35b4852f9b8f20c7E', symObjAddr: 0x0, symBinAddr: 0x24910, symSize: 0xBC }
  - { offset: 0x62386, size: 0x8, addend: 0x0, symName: '__ZN103_$LT$alloc..vec..into_iter..IntoIter$LT$T$C$A$GT$$u20$as$u20$core..iter..traits..iterator..Iterator$GT$4next17h35b4852f9b8f20c7E', symObjAddr: 0x0, symBinAddr: 0x24910, symSize: 0xBC }
  - { offset: 0x624DE, size: 0x8, addend: 0x0, symName: '__ZN103_$LT$alloc..vec..into_iter..IntoIter$LT$T$C$A$GT$$u20$as$u20$core..iter..traits..iterator..Iterator$GT$4next17h5195912db3f52108E', symObjAddr: 0xBC, symBinAddr: 0x249CC, symSize: 0xAC }
  - { offset: 0x62678, size: 0x8, addend: 0x0, symName: '__ZN103_$LT$alloc..vec..into_iter..IntoIter$LT$T$C$A$GT$$u20$as$u20$core..iter..traits..iterator..Iterator$GT$5count17h2c3df200ceb537d1E', symObjAddr: 0x168, symBinAddr: 0x24A78, symSize: 0xE8 }
  - { offset: 0x627E1, size: 0x8, addend: 0x0, symName: '__ZN103_$LT$alloc..vec..into_iter..IntoIter$LT$T$C$A$GT$$u20$as$u20$core..iter..traits..iterator..Iterator$GT$5count17hacdaddd48349da5fE', symObjAddr: 0x250, symBinAddr: 0x24B60, symSize: 0xE8 }
  - { offset: 0x6290E, size: 0x8, addend: 0x0, symName: '__ZN103_$LT$alloc..vec..into_iter..IntoIter$LT$T$C$A$GT$$u20$as$u20$core..iter..traits..iterator..Iterator$GT$9size_hint17hd14eb3426aca65b6E', symObjAddr: 0x338, symBinAddr: 0x24C48, symSize: 0x5C }
  - { offset: 0x62DC3, size: 0x8, addend: 0x0, symName: '__ZN5alloc3vec9into_iter21IntoIter$LT$T$C$A$GT$16as_raw_mut_slice17h18b210a293614c83E', symObjAddr: 0x394, symBinAddr: 0x24CA4, symSize: 0xC0 }
  - { offset: 0x62F7C, size: 0x8, addend: 0x0, symName: '__ZN5alloc3vec9into_iter21IntoIter$LT$T$C$A$GT$16as_raw_mut_slice17h7f9760754e8492ebE', symObjAddr: 0x454, symBinAddr: 0x24D64, symSize: 0xC0 }
  - { offset: 0x630E9, size: 0x8, addend: 0x0, symName: __ZN6anyhow9__private10format_err17hec6785834f27411eE, symObjAddr: 0x0, symBinAddr: 0xD6A78, symSize: 0x94 }
  - { offset: 0x63850, size: 0x8, addend: 0x0, symName: __ZN6anyhow9__private10format_err17hec6785834f27411eE, symObjAddr: 0x0, symBinAddr: 0xD6A78, symSize: 0x94 }
  - { offset: 0x6389D, size: 0x8, addend: 0x0, symName: __ZN6anyhow9__private8must_use17h9a9c1cea086628e4E, symObjAddr: 0x94, symBinAddr: 0xD6B0C, symSize: 0x14 }
  - { offset: 0x64211, size: 0x8, addend: 0x0, symName: '__ZN4core5slice29_$LT$impl$u20$$u5b$T$u5d$$GT$4iter17h79037eaa5ab91675E', symObjAddr: 0x0, symBinAddr: 0x24E24, symSize: 0x28 }
  - { offset: 0x6422D, size: 0x8, addend: 0x0, symName: '__ZN4core5slice29_$LT$impl$u20$$u5b$T$u5d$$GT$4iter17h79037eaa5ab91675E', symObjAddr: 0x0, symBinAddr: 0x24E24, symSize: 0x28 }
  - { offset: 0x644E0, size: 0x8, addend: 0x0, symName: '__ZN101_$LT$serde..private..de..content..EnumDeserializer$LT$E$GT$$u20$as$u20$serde_core..de..EnumAccess$GT$12variant_seed17h08574b9087fcadb3E', symObjAddr: 0x0, symBinAddr: 0x24E4C, symSize: 0x10C }
  - { offset: 0x6460B, size: 0x8, addend: 0x0, symName: __ZN10serde_core2de10EnumAccess7variant17h17adb64a77ac452aE, symObjAddr: 0x3E4C, symBinAddr: 0x28C98, symSize: 0x14 }
  - { offset: 0x6464C, size: 0x8, addend: 0x0, symName: __ZN10serde_core2de10EnumAccess7variant17h812563c8fc1491d6E, symObjAddr: 0x3E60, symBinAddr: 0x28CAC, symSize: 0x14 }
  - { offset: 0x6468D, size: 0x8, addend: 0x0, symName: __ZN10serde_core2de10EnumAccess7variant17h83c59e72feae87c6E, symObjAddr: 0x3E74, symBinAddr: 0x28CC0, symSize: 0x14 }
  - { offset: 0x646D4, size: 0x8, addend: 0x0, symName: __ZN10serde_core2de7Visitor10visit_i12817h9bfbf07d9458ecbeE, symObjAddr: 0x3E88, symBinAddr: 0x28CD4, symSize: 0x1BC }
  - { offset: 0x647D0, size: 0x8, addend: 0x0, symName: __ZN10serde_core2de7Visitor10visit_u12817h274e8a86eb418314E, symObjAddr: 0x4044, symBinAddr: 0x28E90, symSize: 0x1BC }
  - { offset: 0x648D2, size: 0x8, addend: 0x0, symName: __ZN10serde_core2de9MapAccess10next_value17h3f2e6164f8923a2aE, symObjAddr: 0x4200, symBinAddr: 0x2904C, symSize: 0x24 }
  - { offset: 0x64912, size: 0x8, addend: 0x0, symName: __ZN10serde_core2de9MapAccess10next_value17h5b4ad548775431c6E, symObjAddr: 0x4224, symBinAddr: 0x29070, symSize: 0x24 }
  - { offset: 0x64952, size: 0x8, addend: 0x0, symName: __ZN10serde_core2de9MapAccess10next_value17hacd2efa4a359c244E, symObjAddr: 0x4248, symBinAddr: 0x29094, symSize: 0x24 }
  - { offset: 0x64992, size: 0x8, addend: 0x0, symName: __ZN10serde_core2de9MapAccess10next_value17hca2c6c17d0b87ae1E, symObjAddr: 0x426C, symBinAddr: 0x290B8, symSize: 0x24 }
  - { offset: 0x649D2, size: 0x8, addend: 0x0, symName: __ZN10serde_core2de9MapAccess10next_value17he4fab18f56bd75d6E, symObjAddr: 0x4290, symBinAddr: 0x290DC, symSize: 0x24 }
  - { offset: 0x64A12, size: 0x8, addend: 0x0, symName: __ZN10serde_core2de9MapAccess8next_key17h08c5eb0f93833a5bE, symObjAddr: 0x42B4, symBinAddr: 0x29100, symSize: 0x24 }
  - { offset: 0x64A52, size: 0x8, addend: 0x0, symName: __ZN10serde_core2de9MapAccess8next_key17h54814859f7a81cfeE, symObjAddr: 0x42D8, symBinAddr: 0x29124, symSize: 0x24 }
  - { offset: 0x64A98, size: 0x8, addend: 0x0, symName: __ZN10serde_core2de9SeqAccess12next_element17h3febf4682d3d7510E, symObjAddr: 0x42FC, symBinAddr: 0x29148, symSize: 0x24 }
  - { offset: 0x64AD8, size: 0x8, addend: 0x0, symName: __ZN10serde_core2de9SeqAccess12next_element17h521a9a610c4ef24eE, symObjAddr: 0x4320, symBinAddr: 0x2916C, symSize: 0x24 }
  - { offset: 0x64B18, size: 0x8, addend: 0x0, symName: __ZN10serde_core2de9SeqAccess12next_element17h7a5367a3b98b3bffE, symObjAddr: 0x4344, symBinAddr: 0x29190, symSize: 0x24 }
  - { offset: 0x64B58, size: 0x8, addend: 0x0, symName: __ZN10serde_core2de9SeqAccess12next_element17h813f96d63a75e922E, symObjAddr: 0x4368, symBinAddr: 0x291B4, symSize: 0x24 }
  - { offset: 0x64B98, size: 0x8, addend: 0x0, symName: __ZN10serde_core2de9SeqAccess12next_element17hb4621f9de588efcdE, symObjAddr: 0x438C, symBinAddr: 0x291D8, symSize: 0x24 }
  - { offset: 0x64BD8, size: 0x8, addend: 0x0, symName: __ZN10serde_core2de9SeqAccess12next_element17hbf1df8491156de18E, symObjAddr: 0x43B0, symBinAddr: 0x291FC, symSize: 0x24 }
  - { offset: 0x64C18, size: 0x8, addend: 0x0, symName: __ZN10serde_core2de9SeqAccess12next_element17heaac644e84032c11E, symObjAddr: 0x43D4, symBinAddr: 0x29220, symSize: 0x24 }
  - { offset: 0x64C58, size: 0x8, addend: 0x0, symName: __ZN10serde_core2de9SeqAccess12next_element17hfbb3263e9c524a2dE, symObjAddr: 0x43F8, symBinAddr: 0x29244, symSize: 0x24 }
  - { offset: 0x64C9E, size: 0x8, addend: 0x0, symName: '__ZN46_$LT$T$u20$as$u20$serde_core..de..Expected$GT$3fmt17he49bed45af1425d2E', symObjAddr: 0x441C, symBinAddr: 0x29268, symSize: 0x2C }
  - { offset: 0x64CEA, size: 0x8, addend: 0x0, symName: '__ZN59_$LT$$RF$mut$u20$A$u20$as$u20$serde_core..de..MapAccess$GT$10next_value17h1740a7c29e12887fE', symObjAddr: 0x4448, symBinAddr: 0x29294, symSize: 0x28 }
  - { offset: 0x64D2A, size: 0x8, addend: 0x0, symName: '__ZN59_$LT$$RF$mut$u20$A$u20$as$u20$serde_core..de..MapAccess$GT$10next_value17h33fb6f00c4519305E', symObjAddr: 0x4470, symBinAddr: 0x292BC, symSize: 0x28 }
  - { offset: 0x64D6A, size: 0x8, addend: 0x0, symName: '__ZN59_$LT$$RF$mut$u20$A$u20$as$u20$serde_core..de..MapAccess$GT$10next_value17h5dba97e6c4f97a2bE', symObjAddr: 0x4498, symBinAddr: 0x292E4, symSize: 0x28 }
  - { offset: 0x64DAA, size: 0x8, addend: 0x0, symName: '__ZN59_$LT$$RF$mut$u20$A$u20$as$u20$serde_core..de..MapAccess$GT$10next_value17hc5ce2ec29ab4de5dE', symObjAddr: 0x44C0, symBinAddr: 0x2930C, symSize: 0x28 }
  - { offset: 0x64DEA, size: 0x8, addend: 0x0, symName: '__ZN59_$LT$$RF$mut$u20$A$u20$as$u20$serde_core..de..MapAccess$GT$10next_value17hcf2282e03911827cE', symObjAddr: 0x44E8, symBinAddr: 0x29334, symSize: 0x28 }
  - { offset: 0x64E2A, size: 0x8, addend: 0x0, symName: '__ZN59_$LT$$RF$mut$u20$A$u20$as$u20$serde_core..de..MapAccess$GT$8next_key17h287bb0adc745ed85E', symObjAddr: 0x4510, symBinAddr: 0x2935C, symSize: 0x28 }
  - { offset: 0x64E6A, size: 0x8, addend: 0x0, symName: '__ZN59_$LT$$RF$mut$u20$A$u20$as$u20$serde_core..de..MapAccess$GT$8next_key17hd23115cbbc710bc1E', symObjAddr: 0x4538, symBinAddr: 0x29384, symSize: 0x28 }
  - { offset: 0x64EB0, size: 0x8, addend: 0x0, symName: '__ZN59_$LT$$RF$mut$u20$A$u20$as$u20$serde_core..de..SeqAccess$GT$12next_element17h371d2d98cdaac371E', symObjAddr: 0x4560, symBinAddr: 0x293AC, symSize: 0x28 }
  - { offset: 0x64EF0, size: 0x8, addend: 0x0, symName: '__ZN59_$LT$$RF$mut$u20$A$u20$as$u20$serde_core..de..SeqAccess$GT$12next_element17h5b18dfdb54cdb03dE', symObjAddr: 0x4588, symBinAddr: 0x293D4, symSize: 0x28 }
  - { offset: 0x64F30, size: 0x8, addend: 0x0, symName: '__ZN59_$LT$$RF$mut$u20$A$u20$as$u20$serde_core..de..SeqAccess$GT$12next_element17h639acdcd57bb6408E', symObjAddr: 0x45B0, symBinAddr: 0x293FC, symSize: 0x28 }
  - { offset: 0x64F70, size: 0x8, addend: 0x0, symName: '__ZN59_$LT$$RF$mut$u20$A$u20$as$u20$serde_core..de..SeqAccess$GT$12next_element17h6abf95b7549b4106E', symObjAddr: 0x45D8, symBinAddr: 0x29424, symSize: 0x28 }
  - { offset: 0x64FB0, size: 0x8, addend: 0x0, symName: '__ZN59_$LT$$RF$mut$u20$A$u20$as$u20$serde_core..de..SeqAccess$GT$12next_element17h83f0dc06247a485bE', symObjAddr: 0x4600, symBinAddr: 0x2944C, symSize: 0x28 }
  - { offset: 0x64FF0, size: 0x8, addend: 0x0, symName: '__ZN59_$LT$$RF$mut$u20$A$u20$as$u20$serde_core..de..SeqAccess$GT$12next_element17h8a284515fad5e681E', symObjAddr: 0x4628, symBinAddr: 0x29474, symSize: 0x28 }
  - { offset: 0x65030, size: 0x8, addend: 0x0, symName: '__ZN59_$LT$$RF$mut$u20$A$u20$as$u20$serde_core..de..SeqAccess$GT$12next_element17h9a66e966c68ed27eE', symObjAddr: 0x4650, symBinAddr: 0x2949C, symSize: 0x28 }
  - { offset: 0x65070, size: 0x8, addend: 0x0, symName: '__ZN59_$LT$$RF$mut$u20$A$u20$as$u20$serde_core..de..SeqAccess$GT$12next_element17hc0f14680cb10b38bE', symObjAddr: 0x4678, symBinAddr: 0x294C4, symSize: 0x28 }
  - { offset: 0x650B0, size: 0x8, addend: 0x0, symName: '__ZN59_$LT$$RF$mut$u20$A$u20$as$u20$serde_core..de..SeqAccess$GT$9size_hint17h3797eb1b434220bfE', symObjAddr: 0x46A0, symBinAddr: 0x294EC, symSize: 0x28 }
  - { offset: 0x650E7, size: 0x8, addend: 0x0, symName: '__ZN59_$LT$$RF$mut$u20$A$u20$as$u20$serde_core..de..SeqAccess$GT$9size_hint17h7279513ebf2aabb0E', symObjAddr: 0x46C8, symBinAddr: 0x29514, symSize: 0x28 }
  - { offset: 0x680AE, size: 0x8, addend: 0x0, symName: '__ZN101_$LT$serde..private..de..content..EnumDeserializer$LT$E$GT$$u20$as$u20$serde_core..de..EnumAccess$GT$12variant_seed17h08574b9087fcadb3E', symObjAddr: 0x0, symBinAddr: 0x24E4C, symSize: 0x10C }
  - { offset: 0x68114, size: 0x8, addend: 0x0, symName: '__ZN101_$LT$serde..private..de..content..EnumDeserializer$LT$E$GT$$u20$as$u20$serde_core..de..EnumAccess$GT$12variant_seed17h3548b7b8fc535346E', symObjAddr: 0x10C, symBinAddr: 0x24F58, symSize: 0x10C }
  - { offset: 0x6817A, size: 0x8, addend: 0x0, symName: '__ZN101_$LT$serde..private..de..content..EnumDeserializer$LT$E$GT$$u20$as$u20$serde_core..de..EnumAccess$GT$12variant_seed17h5be32a882e990e8dE', symObjAddr: 0x218, symBinAddr: 0x25064, symSize: 0x10C }
  - { offset: 0x681E5, size: 0x8, addend: 0x0, symName: '__ZN101_$LT$serde..private..de..content..EnumDeserializer$LT$E$GT$$u20$as$u20$serde_core..de..EnumAccess$GT$12variant_seed28_$u7b$$u7b$closure$u7d$$u7d$17h1e5a759dfc73e9d1E', symObjAddr: 0x324, symBinAddr: 0x25170, symSize: 0x34 }
  - { offset: 0x68235, size: 0x8, addend: 0x0, symName: '__ZN101_$LT$serde..private..de..content..EnumDeserializer$LT$E$GT$$u20$as$u20$serde_core..de..EnumAccess$GT$12variant_seed28_$u7b$$u7b$closure$u7d$$u7d$17h9b3b43dcd6a3b67cE', symObjAddr: 0x358, symBinAddr: 0x251A4, symSize: 0x34 }
  - { offset: 0x68285, size: 0x8, addend: 0x0, symName: '__ZN101_$LT$serde..private..de..content..EnumDeserializer$LT$E$GT$$u20$as$u20$serde_core..de..EnumAccess$GT$12variant_seed28_$u7b$$u7b$closure$u7d$$u7d$17hb4877a40a27d622aE', symObjAddr: 0x38C, symBinAddr: 0x251D8, symSize: 0x34 }
  - { offset: 0x682DC, size: 0x8, addend: 0x0, symName: '__ZN102_$LT$serde..private..de..content..SeqRefDeserializer$LT$E$GT$$u20$as$u20$serde_core..de..SeqAccess$GT$17next_element_seed17h38c79a946177a71aE', symObjAddr: 0x3C0, symBinAddr: 0x2520C, symSize: 0x168 }
  - { offset: 0x68341, size: 0x8, addend: 0x0, symName: '__ZN102_$LT$serde..private..de..content..SeqRefDeserializer$LT$E$GT$$u20$as$u20$serde_core..de..SeqAccess$GT$9size_hint17h187413e98bfdfdacE', symObjAddr: 0x528, symBinAddr: 0x25374, symSize: 0x24 }
  - { offset: 0x6837E, size: 0x8, addend: 0x0, symName: '__ZN106_$LT$serde..private..de..content..ContentDeserializer$LT$E$GT$$u20$as$u20$serde_core..de..Deserializer$GT$15deserialize_seq17h6291474ef4955f60E', symObjAddr: 0x54C, symBinAddr: 0x25398, symSize: 0x154 }
  - { offset: 0x683E4, size: 0x8, addend: 0x0, symName: '__ZN106_$LT$serde..private..de..content..ContentDeserializer$LT$E$GT$$u20$as$u20$serde_core..de..Deserializer$GT$15deserialize_seq17h7500cd883f4cf0caE', symObjAddr: 0x6A0, symBinAddr: 0x254EC, symSize: 0x154 }
  - { offset: 0x6844A, size: 0x8, addend: 0x0, symName: '__ZN106_$LT$serde..private..de..content..ContentDeserializer$LT$E$GT$$u20$as$u20$serde_core..de..Deserializer$GT$15deserialize_seq17hcae3aa5ed373789bE', symObjAddr: 0x7F4, symBinAddr: 0x25640, symSize: 0x154 }
  - { offset: 0x684B0, size: 0x8, addend: 0x0, symName: '__ZN106_$LT$serde..private..de..content..ContentDeserializer$LT$E$GT$$u20$as$u20$serde_core..de..Deserializer$GT$15deserialize_seq17hdfbbcb32cf560eeaE', symObjAddr: 0x948, symBinAddr: 0x25794, symSize: 0x154 }
  - { offset: 0x68516, size: 0x8, addend: 0x0, symName: '__ZN106_$LT$serde..private..de..content..ContentDeserializer$LT$E$GT$$u20$as$u20$serde_core..de..Deserializer$GT$16deserialize_enum17h02eb5cda4b86bcf4E', symObjAddr: 0xA9C, symBinAddr: 0x258E8, symSize: 0x554 }
  - { offset: 0x68639, size: 0x8, addend: 0x0, symName: '__ZN106_$LT$serde..private..de..content..ContentDeserializer$LT$E$GT$$u20$as$u20$serde_core..de..Deserializer$GT$16deserialize_enum17h549ca236a54a7afbE', symObjAddr: 0xFF0, symBinAddr: 0x25E3C, symSize: 0x554 }
  - { offset: 0x6875C, size: 0x8, addend: 0x0, symName: '__ZN106_$LT$serde..private..de..content..ContentDeserializer$LT$E$GT$$u20$as$u20$serde_core..de..Deserializer$GT$16deserialize_enum17h92fc1c8918cbbd37E', symObjAddr: 0x1544, symBinAddr: 0x26390, symSize: 0x554 }
  - { offset: 0x6887F, size: 0x8, addend: 0x0, symName: '__ZN106_$LT$serde..private..de..content..ContentDeserializer$LT$E$GT$$u20$as$u20$serde_core..de..Deserializer$GT$16deserialize_unit17h34d6263c13a71f43E', symObjAddr: 0x1A98, symBinAddr: 0x268E4, symSize: 0x16C }
  - { offset: 0x688FE, size: 0x8, addend: 0x0, symName: '__ZN106_$LT$serde..private..de..content..ContentDeserializer$LT$E$GT$$u20$as$u20$serde_core..de..Deserializer$GT$18deserialize_option17h49e7dacab65a102dE', symObjAddr: 0x1C04, symBinAddr: 0x26A50, symSize: 0x208 }
  - { offset: 0x68964, size: 0x8, addend: 0x0, symName: '__ZN106_$LT$serde..private..de..content..ContentDeserializer$LT$E$GT$$u20$as$u20$serde_core..de..Deserializer$GT$18deserialize_option17h83f91de1caa0b20bE', symObjAddr: 0x1E0C, symBinAddr: 0x26C58, symSize: 0x208 }
  - { offset: 0x689CA, size: 0x8, addend: 0x0, symName: '__ZN106_$LT$serde..private..de..content..ContentDeserializer$LT$E$GT$$u20$as$u20$serde_core..de..Deserializer$GT$18deserialize_option17hc7a91fd12b0093c4E', symObjAddr: 0x2014, symBinAddr: 0x26E60, symSize: 0x208 }
  - { offset: 0x68A30, size: 0x8, addend: 0x0, symName: '__ZN106_$LT$serde..private..de..content..ContentDeserializer$LT$E$GT$$u20$as$u20$serde_core..de..Deserializer$GT$18deserialize_string17ha1f5b46a25a13eaaE', symObjAddr: 0x221C, symBinAddr: 0x27068, symSize: 0x23C }
  - { offset: 0x68ADA, size: 0x8, addend: 0x0, symName: '__ZN106_$LT$serde..private..de..content..ContentDeserializer$LT$E$GT$$u20$as$u20$serde_core..de..Deserializer$GT$18deserialize_struct17h3eba11c2516737d2E', symObjAddr: 0x2458, symBinAddr: 0x272A4, symSize: 0x1C4 }
  - { offset: 0x68B75, size: 0x8, addend: 0x0, symName: '__ZN106_$LT$serde..private..de..content..ContentDeserializer$LT$E$GT$$u20$as$u20$serde_core..de..Deserializer$GT$18deserialize_struct17hf843596d3ebd8d34E', symObjAddr: 0x261C, symBinAddr: 0x27468, symSize: 0x1C4 }
  - { offset: 0x68C10, size: 0x8, addend: 0x0, symName: '__ZN106_$LT$serde..private..de..content..ContentDeserializer$LT$E$GT$$u20$as$u20$serde_core..de..Deserializer$GT$22deserialize_identifier17h0256f1a2a4dd6d5eE', symObjAddr: 0x27E0, symBinAddr: 0x2762C, symSize: 0x29C }
  - { offset: 0x68CE6, size: 0x8, addend: 0x0, symName: '__ZN106_$LT$serde..private..de..content..ContentDeserializer$LT$E$GT$$u20$as$u20$serde_core..de..Deserializer$GT$22deserialize_identifier17h12069a15313cf36eE', symObjAddr: 0x2A7C, symBinAddr: 0x278C8, symSize: 0x29C }
  - { offset: 0x68DBC, size: 0x8, addend: 0x0, symName: '__ZN106_$LT$serde..private..de..content..ContentDeserializer$LT$E$GT$$u20$as$u20$serde_core..de..Deserializer$GT$22deserialize_identifier17h743f641f28ca39a1E', symObjAddr: 0x2D18, symBinAddr: 0x27B64, symSize: 0x29C }
  - { offset: 0x68E92, size: 0x8, addend: 0x0, symName: '__ZN106_$LT$serde..private..de..content..ContentDeserializer$LT$E$GT$$u20$as$u20$serde_core..de..Deserializer$GT$22deserialize_identifier17h91d569a030e6acf4E', symObjAddr: 0x2FB4, symBinAddr: 0x27E00, symSize: 0x29C }
  - { offset: 0x68F68, size: 0x8, addend: 0x0, symName: '__ZN106_$LT$serde..private..de..content..ContentDeserializer$LT$E$GT$$u20$as$u20$serde_core..de..Deserializer$GT$22deserialize_identifier17hb61090fdd867336cE', symObjAddr: 0x3250, symBinAddr: 0x2809C, symSize: 0x29C }
  - { offset: 0x6903E, size: 0x8, addend: 0x0, symName: '__ZN106_$LT$serde..private..de..content..ContentDeserializer$LT$E$GT$$u20$as$u20$serde_core..de..Deserializer$GT$22deserialize_identifier17hc0d695496a69a1c9E', symObjAddr: 0x34EC, symBinAddr: 0x28338, symSize: 0x29C }
  - { offset: 0x69114, size: 0x8, addend: 0x0, symName: '__ZN106_$LT$serde..private..de..content..ContentDeserializer$LT$E$GT$$u20$as$u20$serde_core..de..Deserializer$GT$22deserialize_identifier17hde1c41d246116698E', symObjAddr: 0x3788, symBinAddr: 0x285D4, symSize: 0x29C }
  - { offset: 0x691EA, size: 0x8, addend: 0x0, symName: '__ZN106_$LT$serde..private..de..content..ContentDeserializer$LT$E$GT$$u20$as$u20$serde_core..de..Deserializer$GT$23deserialize_ignored_any17hb01c847025083bafE', symObjAddr: 0x3A24, symBinAddr: 0x28870, symSize: 0x68 }
  - { offset: 0x6923A, size: 0x8, addend: 0x0, symName: '__ZN106_$LT$serde..private..de..content..ContentDeserializer$LT$E$GT$$u20$as$u20$serde_core..de..Deserializer$GT$24__deserialize_content_v117h92720cdea5f8db79E', symObjAddr: 0x3A8C, symBinAddr: 0x288D8, symSize: 0x2C }
  - { offset: 0x6928F, size: 0x8, addend: 0x0, symName: '__ZN107_$LT$serde..private..de..content..VariantDeserializer$LT$E$GT$$u20$as$u20$serde_core..de..VariantAccess$GT$12unit_variant17h6a40f52eb36ac172E', symObjAddr: 0x3AB8, symBinAddr: 0x28904, symSize: 0x70 }
  - { offset: 0x692EB, size: 0x8, addend: 0x0, symName: '__ZN109_$LT$serde..private..de..content..ContentRefDeserializer$LT$E$GT$$u20$as$u20$serde_core..de..Deserializer$GT$15deserialize_seq17h098a26221b44388cE', symObjAddr: 0x3B28, symBinAddr: 0x28974, symSize: 0xEC }
  - { offset: 0x69350, size: 0x8, addend: 0x0, symName: '__ZN109_$LT$serde..private..de..content..ContentRefDeserializer$LT$E$GT$$u20$as$u20$serde_core..de..Deserializer$GT$15deserialize_str17h2ce2a9573485bda1E', symObjAddr: 0x3C14, symBinAddr: 0x28A60, symSize: 0x214 }
  - { offset: 0x693F9, size: 0x8, addend: 0x0, symName: '__ZN109_$LT$serde..private..de..content..ContentRefDeserializer$LT$E$GT$$u20$as$u20$serde_core..de..Deserializer$GT$18deserialize_string17hc2f1d7c9d8f2ce35E', symObjAddr: 0x3E28, symBinAddr: 0x28C74, symSize: 0x24 }
  - { offset: 0x69449, size: 0x8, addend: 0x0, symName: __ZN5serde7private2de7content17visit_content_map17h08aa78f34e92cdbaE, symObjAddr: 0x46F0, symBinAddr: 0x2953C, symSize: 0x1F0 }
  - { offset: 0x6951F, size: 0x8, addend: 0x0, symName: __ZN5serde7private2de7content17visit_content_map17h99356c4be2ee5149E, symObjAddr: 0x48E0, symBinAddr: 0x2972C, symSize: 0x1EC }
  - { offset: 0x695F5, size: 0x8, addend: 0x0, symName: __ZN5serde7private2de7content17visit_content_seq17h3be561c333ac2e25E, symObjAddr: 0x4ACC, symBinAddr: 0x29918, symSize: 0x1E8 }
  - { offset: 0x696CA, size: 0x8, addend: 0x0, symName: __ZN5serde7private2de7content17visit_content_seq17h42c620570de6cdf8E, symObjAddr: 0x4CB4, symBinAddr: 0x29B00, symSize: 0x1F0 }
  - { offset: 0x697A0, size: 0x8, addend: 0x0, symName: __ZN5serde7private2de7content17visit_content_seq17h4b0e0797b49286a9E, symObjAddr: 0x4EA4, symBinAddr: 0x29CF0, symSize: 0x1E8 }
  - { offset: 0x69875, size: 0x8, addend: 0x0, symName: __ZN5serde7private2de7content17visit_content_seq17h807f49b716243809E, symObjAddr: 0x508C, symBinAddr: 0x29ED8, symSize: 0x1E8 }
  - { offset: 0x6994A, size: 0x8, addend: 0x0, symName: __ZN5serde7private2de7content17visit_content_seq17hb5815b59515f2e61E, symObjAddr: 0x5274, symBinAddr: 0x2A0C0, symSize: 0x1E8 }
  - { offset: 0x69A1F, size: 0x8, addend: 0x0, symName: __ZN5serde7private2de7content17visit_content_seq17hdf3fb26bd5777eafE, symObjAddr: 0x545C, symBinAddr: 0x2A2A8, symSize: 0x1EC }
  - { offset: 0x69AF5, size: 0x8, addend: 0x0, symName: __ZN5serde7private2de7content21visit_content_seq_ref17h7e2a057810309d72E, symObjAddr: 0x5648, symBinAddr: 0x2A494, symSize: 0x190 }
  - { offset: 0x69E91, size: 0x8, addend: 0x0, symName: '__ZN87_$LT$serde..private..de..content..ContentVisitor$u20$as$u20$serde_core..de..Visitor$GT$10visit_bool17h614371366cbc8eb1E', symObjAddr: 0x5D54, symBinAddr: 0x2AAD0, symSize: 0x28 }
  - { offset: 0x69EE3, size: 0x8, addend: 0x0, symName: '__ZN87_$LT$serde..private..de..content..ContentVisitor$u20$as$u20$serde_core..de..Visitor$GT$10visit_enum17h6177fd93d790c7c7E', symObjAddr: 0x5D7C, symBinAddr: 0x2AAF8, symSize: 0x64 }
  - { offset: 0x69F32, size: 0x8, addend: 0x0, symName: '__ZN87_$LT$serde..private..de..content..ContentVisitor$u20$as$u20$serde_core..de..Visitor$GT$10visit_none17he6a04c036b943f5dE', symObjAddr: 0x5DE0, symBinAddr: 0x2AB5C, symSize: 0x24 }
  - { offset: 0x69F75, size: 0x8, addend: 0x0, symName: '__ZN87_$LT$serde..private..de..content..ContentVisitor$u20$as$u20$serde_core..de..Visitor$GT$10visit_unit17h379c1ce271839589E', symObjAddr: 0x5E04, symBinAddr: 0x2AB80, symSize: 0x24 }
  - { offset: 0x69FB8, size: 0x8, addend: 0x0, symName: '__ZN87_$LT$serde..private..de..content..ContentVisitor$u20$as$u20$serde_core..de..Visitor$GT$18visit_borrowed_str17hc858587a524ca0c7E', symObjAddr: 0x5E28, symBinAddr: 0x2ABA4, symSize: 0x38 }
  - { offset: 0x6A00A, size: 0x8, addend: 0x0, symName: '__ZN87_$LT$serde..private..de..content..ContentVisitor$u20$as$u20$serde_core..de..Visitor$GT$9visit_f6417h492534ccec78b53bE', symObjAddr: 0x5E60, symBinAddr: 0x2ABDC, symSize: 0x2C }
  - { offset: 0x6A05C, size: 0x8, addend: 0x0, symName: '__ZN87_$LT$serde..private..de..content..ContentVisitor$u20$as$u20$serde_core..de..Visitor$GT$9visit_i6417hfe2a8f078bee18e8E', symObjAddr: 0x5E8C, symBinAddr: 0x2AC08, symSize: 0x2C }
  - { offset: 0x6A0AE, size: 0x8, addend: 0x0, symName: '__ZN87_$LT$serde..private..de..content..ContentVisitor$u20$as$u20$serde_core..de..Visitor$GT$9visit_map17h395d4d4a90a117f1E', symObjAddr: 0x5EB8, symBinAddr: 0x2AC34, symSize: 0x198 }
  - { offset: 0x6A14A, size: 0x8, addend: 0x0, symName: '__ZN87_$LT$serde..private..de..content..ContentVisitor$u20$as$u20$serde_core..de..Visitor$GT$9visit_seq17h20f526ee83cf8dcfE', symObjAddr: 0x6050, symBinAddr: 0x2ADCC, symSize: 0x184 }
  - { offset: 0x6A1E6, size: 0x8, addend: 0x0, symName: '__ZN87_$LT$serde..private..de..content..ContentVisitor$u20$as$u20$serde_core..de..Visitor$GT$9visit_str17ha2868026ef092fedE', symObjAddr: 0x61D4, symBinAddr: 0x2AF50, symSize: 0x68 }
  - { offset: 0x6A238, size: 0x8, addend: 0x0, symName: '__ZN87_$LT$serde..private..de..content..ContentVisitor$u20$as$u20$serde_core..de..Visitor$GT$9visit_u6417h1f0446d88fe22686E', symObjAddr: 0x623C, symBinAddr: 0x2AFB8, symSize: 0x2C }
  - { offset: 0x6A290, size: 0x8, addend: 0x0, symName: '__ZN95_$LT$serde..private..de..content..ContentVisitor$u20$as$u20$serde_core..de..DeserializeSeed$GT$11deserialize17h5d65352b65621ae3E', symObjAddr: 0x6268, symBinAddr: 0x2AFE4, symSize: 0x24 }
  - { offset: 0x6A2E2, size: 0x8, addend: 0x0, symName: '__ZN95_$LT$serde..private..de..content..ContentVisitor$u20$as$u20$serde_core..de..DeserializeSeed$GT$11deserialize17h64b9bff84df87b1eE', symObjAddr: 0x628C, symBinAddr: 0x2B008, symSize: 0x1C }
  - { offset: 0x6A33B, size: 0x8, addend: 0x0, symName: '__ZN99_$LT$serde..private..de..content..MapDeserializer$LT$E$GT$$u20$as$u20$serde_core..de..MapAccess$GT$13next_key_seed17h1e82e1fba80e3446E', symObjAddr: 0x62A8, symBinAddr: 0x2B024, symSize: 0x1F0 }
  - { offset: 0x6A3B2, size: 0x8, addend: 0x0, symName: '__ZN99_$LT$serde..private..de..content..MapDeserializer$LT$E$GT$$u20$as$u20$serde_core..de..MapAccess$GT$13next_key_seed17h56a3e8816dc4b114E', symObjAddr: 0x6498, symBinAddr: 0x2B214, symSize: 0x1F0 }
  - { offset: 0x6A429, size: 0x8, addend: 0x0, symName: '__ZN99_$LT$serde..private..de..content..MapDeserializer$LT$E$GT$$u20$as$u20$serde_core..de..MapAccess$GT$15next_value_seed17h0eaaec8c3983a3f4E', symObjAddr: 0x6688, symBinAddr: 0x2B404, symSize: 0xE4 }
  - { offset: 0x6A4A4, size: 0x8, addend: 0x0, symName: '__ZN99_$LT$serde..private..de..content..MapDeserializer$LT$E$GT$$u20$as$u20$serde_core..de..MapAccess$GT$15next_value_seed17h7979b74da6b07212E', symObjAddr: 0x676C, symBinAddr: 0x2B4E8, symSize: 0xE4 }
  - { offset: 0x6A51F, size: 0x8, addend: 0x0, symName: '__ZN99_$LT$serde..private..de..content..MapDeserializer$LT$E$GT$$u20$as$u20$serde_core..de..MapAccess$GT$15next_value_seed17hef851973162d5bccE', symObjAddr: 0x6850, symBinAddr: 0x2B5CC, symSize: 0xE4 }
  - { offset: 0x6A59A, size: 0x8, addend: 0x0, symName: '__ZN99_$LT$serde..private..de..content..MapDeserializer$LT$E$GT$$u20$as$u20$serde_core..de..MapAccess$GT$15next_value_seed17hf6a602f18de73dc1E', symObjAddr: 0x6934, symBinAddr: 0x2B6B0, symSize: 0xE4 }
  - { offset: 0x6A615, size: 0x8, addend: 0x0, symName: '__ZN99_$LT$serde..private..de..content..MapDeserializer$LT$E$GT$$u20$as$u20$serde_core..de..MapAccess$GT$15next_value_seed17hfea715854aaa6a42E', symObjAddr: 0x6A18, symBinAddr: 0x2B794, symSize: 0xE4 }
  - { offset: 0x6A696, size: 0x8, addend: 0x0, symName: '__ZN99_$LT$serde..private..de..content..SeqDeserializer$LT$E$GT$$u20$as$u20$serde_core..de..SeqAccess$GT$17next_element_seed17h2731f0b82f0df62aE', symObjAddr: 0x6AFC, symBinAddr: 0x2B878, symSize: 0x1BC }
  - { offset: 0x6A6FC, size: 0x8, addend: 0x0, symName: '__ZN99_$LT$serde..private..de..content..SeqDeserializer$LT$E$GT$$u20$as$u20$serde_core..de..SeqAccess$GT$17next_element_seed17h5c0f76f539cef3e0E', symObjAddr: 0x6CB8, symBinAddr: 0x2BA34, symSize: 0x1C8 }
  - { offset: 0x6A762, size: 0x8, addend: 0x0, symName: '__ZN99_$LT$serde..private..de..content..SeqDeserializer$LT$E$GT$$u20$as$u20$serde_core..de..SeqAccess$GT$17next_element_seed17h6cf98ffe0a79f6fdE', symObjAddr: 0x6E80, symBinAddr: 0x2BBFC, symSize: 0x1BC }
  - { offset: 0x6A7C8, size: 0x8, addend: 0x0, symName: '__ZN99_$LT$serde..private..de..content..SeqDeserializer$LT$E$GT$$u20$as$u20$serde_core..de..SeqAccess$GT$17next_element_seed17h801e1309edb6b40fE', symObjAddr: 0x703C, symBinAddr: 0x2BDB8, symSize: 0x1BC }
  - { offset: 0x6A82E, size: 0x8, addend: 0x0, symName: '__ZN99_$LT$serde..private..de..content..SeqDeserializer$LT$E$GT$$u20$as$u20$serde_core..de..SeqAccess$GT$17next_element_seed17hc2a93ab12ea3e221E', symObjAddr: 0x71F8, symBinAddr: 0x2BF74, symSize: 0x1BC }
  - { offset: 0x6A894, size: 0x8, addend: 0x0, symName: '__ZN99_$LT$serde..private..de..content..SeqDeserializer$LT$E$GT$$u20$as$u20$serde_core..de..SeqAccess$GT$17next_element_seed17he6d14aca55ee9f92E', symObjAddr: 0x73B4, symBinAddr: 0x2C130, symSize: 0x1A8 }
  - { offset: 0x6A8FA, size: 0x8, addend: 0x0, symName: '__ZN99_$LT$serde..private..de..content..SeqDeserializer$LT$E$GT$$u20$as$u20$serde_core..de..SeqAccess$GT$17next_element_seed17hea3754d2a21fb5e6E', symObjAddr: 0x755C, symBinAddr: 0x2C2D8, symSize: 0x1A8 }
  - { offset: 0x6A960, size: 0x8, addend: 0x0, symName: '__ZN99_$LT$serde..private..de..content..SeqDeserializer$LT$E$GT$$u20$as$u20$serde_core..de..SeqAccess$GT$9size_hint17h056fe557022ca075E', symObjAddr: 0x7704, symBinAddr: 0x2C480, symSize: 0x24 }
  - { offset: 0x6B4E7, size: 0x8, addend: 0x0, symName: '__ZN5serde7private2de7content24MapDeserializer$LT$E$GT$3end17he14ec4d81c057953E', symObjAddr: 0x57D8, symBinAddr: 0x2A624, symSize: 0xF4 }
  - { offset: 0x6B52A, size: 0x8, addend: 0x0, symName: '__ZN5serde7private2de7content24MapDeserializer$LT$E$GT$3new17hb1cf379934c37be0E', symObjAddr: 0x58CC, symBinAddr: 0x2A718, symSize: 0x54 }
  - { offset: 0x6B564, size: 0x8, addend: 0x0, symName: '__ZN5serde7private2de7content24MapDeserializer$LT$E$GT$9next_pair17h5e138c67dd543d28E', symObjAddr: 0x5920, symBinAddr: 0x2A76C, symSize: 0x15C }
  - { offset: 0x6B5C5, size: 0x8, addend: 0x0, symName: '__ZN5serde7private2de7content24SeqDeserializer$LT$E$GT$3end17h4db1e8755668e006E', symObjAddr: 0x5A7C, symBinAddr: 0x2A8C8, symSize: 0xA8 }
  - { offset: 0x6B608, size: 0x8, addend: 0x0, symName: '__ZN5serde7private2de7content24SeqDeserializer$LT$E$GT$3new17hce7a36e8f32ba8daE', symObjAddr: 0x5B24, symBinAddr: 0x2A970, symSize: 0x3C }
  - { offset: 0x6B635, size: 0x8, addend: 0x0, symName: '__ZN5serde7private2de7content25EnumDeserializer$LT$E$GT$3new17h74512e7f027b0172E', symObjAddr: 0x5B60, symBinAddr: 0x2A9AC, symSize: 0x24 }
  - { offset: 0x6B67D, size: 0x8, addend: 0x0, symName: '__ZN5serde7private2de7content27SeqRefDeserializer$LT$E$GT$3end17h3484cdc998dfcd73E', symObjAddr: 0x5B84, symBinAddr: 0x2A9D0, symSize: 0x9C }
  - { offset: 0x6B6E7, size: 0x8, addend: 0x0, symName: '__ZN5serde7private2de7content27SeqRefDeserializer$LT$E$GT$3new17ha875ef4e38e33fafE', symObjAddr: 0x5C20, symBinAddr: 0x2AA6C, symSize: 0x3C }
  - { offset: 0x6B75B, size: 0x8, addend: 0x0, symName: '__ZN5serde7private2de7content28ContentDeserializer$LT$E$GT$12invalid_type17h099d0e4f03b28ac5E', symObjAddr: 0x5C5C, symBinAddr: 0xD6B20, symSize: 0x84 }
  - { offset: 0x6B797, size: 0x8, addend: 0x0, symName: '__ZN5serde7private2de7content28ContentDeserializer$LT$E$GT$3new17h44b91a4e592bbf2dE', symObjAddr: 0x5CE0, symBinAddr: 0x2AAA8, symSize: 0x14 }
  - { offset: 0x6B7C3, size: 0x8, addend: 0x0, symName: '__ZN5serde7private2de7content31ContentRefDeserializer$LT$E$GT$12invalid_type17hec5990b0b2b056f7E', symObjAddr: 0x5CF4, symBinAddr: 0xD6BA4, symSize: 0x4C }
  - { offset: 0x6B7FE, size: 0x8, addend: 0x0, symName: '__ZN5serde7private2de7content31ContentRefDeserializer$LT$E$GT$3new17h9fbc943f25c90b8aE', symObjAddr: 0x5D40, symBinAddr: 0x2AABC, symSize: 0x14 }
  - { offset: 0x6BB98, size: 0x8, addend: 0x0, symName: '__ZN109_$LT$pyo3..types..dict..borrowed_iter..BorrowedDictIter$u20$as$u20$core..iter..traits..iterator..Iterator$GT$4next17hcb0a9ef90c9b436cE', symObjAddr: 0x0, symBinAddr: 0x2C4A4, symSize: 0xE4 }
  - { offset: 0x6BC25, size: 0x8, addend: 0x0, symName: '__ZN109_$LT$pyo3..types..dict..borrowed_iter..BorrowedDictIter$u20$as$u20$core..iter..traits..iterator..Iterator$GT$4next17hcb0a9ef90c9b436cE', symObjAddr: 0x0, symBinAddr: 0x2C4A4, symSize: 0xE4 }
  - { offset: 0x6C065, size: 0x8, addend: 0x0, symName: __ZN4pyo35impl_16extract_argument16extract_argument17h4ffc08c67c90d75dE, symObjAddr: 0x0, symBinAddr: 0x2C588, symSize: 0x130 }
  - { offset: 0x6C8FF, size: 0x8, addend: 0x0, symName: __ZN4pyo35impl_16extract_argument16extract_argument17h4ffc08c67c90d75dE, symObjAddr: 0x0, symBinAddr: 0x2C588, symSize: 0x130 }
  - { offset: 0x6CA89, size: 0x8, addend: 0x0, symName: '__ZN4pyo35impl_16extract_argument19FunctionDescription28extract_arguments_tuple_dict28_$u7b$$u7b$closure$u7d$$u7d$17h224d960f0eba5e5cE', symObjAddr: 0xDFC, symBinAddr: 0x2D384, symSize: 0x24 }
  - { offset: 0x6CAE1, size: 0x8, addend: 0x0, symName: '__ZN4pyo35impl_16extract_argument19FunctionDescription36find_keyword_parameter_in_positional28_$u7b$$u7b$closure$u7d$$u7d$17h2dbd492b4e0fc890E', symObjAddr: 0xE20, symBinAddr: 0x2D3A8, symSize: 0x48 }
  - { offset: 0x6CB41, size: 0x8, addend: 0x0, symName: '__ZN4pyo35impl_16extract_argument19FunctionDescription38find_keyword_parameter_in_keyword_only28_$u7b$$u7b$closure$u7d$$u7d$17hb84d00e987969e75E', symObjAddr: 0xE68, symBinAddr: 0x2D3F0, symSize: 0x38 }
  - { offset: 0x6D193, size: 0x8, addend: 0x0, symName: __ZN4pyo35impl_16extract_argument19FunctionDescription13handle_kwargs17hb45233bba16d5b4eE, symObjAddr: 0x130, symBinAddr: 0x2C6B8, symSize: 0x870 }
  - { offset: 0x6D3C4, size: 0x8, addend: 0x0, symName: __ZN4pyo35impl_16extract_argument19FunctionDescription28extract_arguments_tuple_dict17he1c45695bff53673E, symObjAddr: 0x9A0, symBinAddr: 0x2CF28, symSize: 0x45C }
  - { offset: 0x6D888, size: 0x8, addend: 0x0, symName: __ZN10serde_core7private9size_hint11from_bounds17h245843fd80abc016E, symObjAddr: 0x0, symBinAddr: 0x2D428, symSize: 0x34 }
  - { offset: 0x6DA09, size: 0x8, addend: 0x0, symName: __ZN10serde_core7private9size_hint11from_bounds17h245843fd80abc016E, symObjAddr: 0x0, symBinAddr: 0x2D428, symSize: 0x34 }
  - { offset: 0x6DA3E, size: 0x8, addend: 0x0, symName: __ZN10serde_core7private9size_hint11from_bounds17hce2b7334b278fa43E, symObjAddr: 0x34, symBinAddr: 0x2D45C, symSize: 0x34 }
  - { offset: 0x6DA73, size: 0x8, addend: 0x0, symName: __ZN10serde_core7private9size_hint8cautious17h2c4dd4fed1db32ecE, symObjAddr: 0x68, symBinAddr: 0x2D490, symSize: 0x84 }
  - { offset: 0x6DAA8, size: 0x8, addend: 0x0, symName: __ZN10serde_core7private9size_hint8cautious17h3aba15c2b9f81ad6E, symObjAddr: 0xEC, symBinAddr: 0x2D514, symSize: 0x84 }
  - { offset: 0x6DADD, size: 0x8, addend: 0x0, symName: __ZN10serde_core7private9size_hint8cautious17h5a04b62839abf5bfE, symObjAddr: 0x170, symBinAddr: 0x2D598, symSize: 0x84 }
  - { offset: 0x6DB12, size: 0x8, addend: 0x0, symName: __ZN10serde_core7private9size_hint8cautious17h88dba3f53a5dcca7E, symObjAddr: 0x1F4, symBinAddr: 0x2D61C, symSize: 0x84 }
  - { offset: 0x6DB47, size: 0x8, addend: 0x0, symName: __ZN10serde_core7private9size_hint8cautious17hee7c349dfacc2d94E, symObjAddr: 0x278, symBinAddr: 0x2D6A0, symSize: 0x84 }
  - { offset: 0x6DB7C, size: 0x8, addend: 0x0, symName: __ZN10serde_core7private9size_hint8cautious17hf5a6b9eb9c1ca6fdE, symObjAddr: 0x2FC, symBinAddr: 0x2D724, symSize: 0x84 }
  - { offset: 0x6E55A, size: 0x8, addend: 0x0, symName: '__ZN5alloc3vec16Vec$LT$T$C$A$GT$7set_len18precondition_check17h94f24ab453717f91E', symObjAddr: 0x0, symBinAddr: 0x2D7A8, symSize: 0xAC }
  - { offset: 0x6EA0C, size: 0x8, addend: 0x0, symName: '__ZN5alloc3vec16Vec$LT$T$C$A$GT$7set_len18precondition_check17h94f24ab453717f91E', symObjAddr: 0x0, symBinAddr: 0x2D7A8, symSize: 0xAC }
  - { offset: 0x6EA96, size: 0x8, addend: 0x0, symName: '__ZN4core4iter6traits8iterator8Iterator8for_each4call28_$u7b$$u7b$closure$u7d$$u7d$17ha34a2daa11895e0cE', symObjAddr: 0x0, symBinAddr: 0x2D854, symSize: 0x30 }
  - { offset: 0x6EAC6, size: 0x8, addend: 0x0, symName: '__ZN4core4iter6traits8iterator8Iterator8for_each4call28_$u7b$$u7b$closure$u7d$$u7d$17ha34a2daa11895e0cE', symObjAddr: 0x0, symBinAddr: 0x2D854, symSize: 0x30 }
  - { offset: 0x6EBF6, size: 0x8, addend: 0x0, symName: '__ZN4pyo311conversions3std6string119_$LT$impl$u20$pyo3..conversion..IntoPy$LT$pyo3..instance..Py$LT$pyo3..types..any..PyAny$GT$$GT$$u20$for$u20$$RF$str$GT$7into_py17ha0a5100bec99cde5E', symObjAddr: 0x0, symBinAddr: 0x2D884, symSize: 0x34 }
  - { offset: 0x6EC83, size: 0x8, addend: 0x0, symName: '__ZN4pyo311conversions3std6string119_$LT$impl$u20$pyo3..conversion..IntoPy$LT$pyo3..instance..Py$LT$pyo3..types..any..PyAny$GT$$GT$$u20$for$u20$$RF$str$GT$7into_py17ha0a5100bec99cde5E', symObjAddr: 0x0, symBinAddr: 0x2D884, symSize: 0x34 }
  - { offset: 0x6EEFE, size: 0x8, addend: 0x0, symName: __ZN10serde_core2de5Error13missing_field17hc1ab167d0a2c5038E, symObjAddr: 0x0, symBinAddr: 0xD6BF0, symSize: 0x60 }
  - { offset: 0x6F1FB, size: 0x8, addend: 0x0, symName: __ZN10serde_core2de5Error13missing_field17hc1ab167d0a2c5038E, symObjAddr: 0x0, symBinAddr: 0xD6BF0, symSize: 0x60 }
  - { offset: 0x6F26E, size: 0x8, addend: 0x0, symName: __ZN10serde_core2de5Error15duplicate_field17hda15b138d8ee845dE, symObjAddr: 0x60, symBinAddr: 0xD6C50, symSize: 0x60 }
  - { offset: 0x6F2E1, size: 0x8, addend: 0x0, symName: __ZN10serde_core2de5Error15unknown_variant17h5154da1fe27f171cE, symObjAddr: 0xC0, symBinAddr: 0xD6CB0, symSize: 0x120 }
  - { offset: 0x6F792, size: 0x8, addend: 0x0, symName: '__ZN66_$LT$serde_yaml..error..Error$u20$as$u20$serde_core..de..Error$GT$6custom17h06848bc8c5997670E', symObjAddr: 0x1E0, symBinAddr: 0x2D8B8, symSize: 0x108 }
  - { offset: 0x6FEF3, size: 0x8, addend: 0x0, symName: __ZN4core3mem4drop17hfdc9261e7b7b5e10E, symObjAddr: 0x0, symBinAddr: 0x2D9C0, symSize: 0x14 }
  - { offset: 0x701EB, size: 0x8, addend: 0x0, symName: __ZN4core3mem4drop17hfdc9261e7b7b5e10E, symObjAddr: 0x0, symBinAddr: 0x2D9C0, symSize: 0x14 }
  - { offset: 0x70EF2, size: 0x8, addend: 0x0, symName: __ZN4core3fmt9Arguments6as_str17h050cb7a7d1df293fE, symObjAddr: 0x0, symBinAddr: 0x2D9D4, symSize: 0xAC }
  - { offset: 0x710E0, size: 0x8, addend: 0x0, symName: '__ZN53_$LT$core..fmt..Error$u20$as$u20$core..fmt..Debug$GT$3fmt17hbf723a11451e8d2bE', symObjAddr: 0xAC, symBinAddr: 0x2DA80, symSize: 0x40 }
  - { offset: 0x71413, size: 0x8, addend: 0x0, symName: __ZN4core3fmt9Arguments6as_str17h050cb7a7d1df293fE, symObjAddr: 0x0, symBinAddr: 0x2D9D4, symSize: 0xAC }
  - { offset: 0x7148C, size: 0x8, addend: 0x0, symName: '__ZN10serde_core2de5value24StrDeserializer$LT$E$GT$3new17h90bd4958db25528cE', symObjAddr: 0x0, symBinAddr: 0x2DAC0, symSize: 0x18 }
  - { offset: 0x71841, size: 0x8, addend: 0x0, symName: '__ZN96_$LT$serde_core..de..value..StrDeserializer$LT$E$GT$$u20$as$u20$serde_core..de..Deserializer$GT$15deserialize_any17h90da08a47c4a2d2fE', symObjAddr: 0x18, symBinAddr: 0x2DAD8, symSize: 0x28 }
  - { offset: 0x71890, size: 0x8, addend: 0x0, symName: '__ZN96_$LT$serde_core..de..value..StrDeserializer$LT$E$GT$$u20$as$u20$serde_core..de..Deserializer$GT$15deserialize_any17hb1590bf4f5aeeb13E', symObjAddr: 0x40, symBinAddr: 0x2DB00, symSize: 0x28 }
  - { offset: 0x718DF, size: 0x8, addend: 0x0, symName: '__ZN96_$LT$serde_core..de..value..StrDeserializer$LT$E$GT$$u20$as$u20$serde_core..de..Deserializer$GT$22deserialize_identifier17h5d8725e73bd2ca3fE', symObjAddr: 0x68, symBinAddr: 0x2DB28, symSize: 0x28 }
  - { offset: 0x7192B, size: 0x8, addend: 0x0, symName: '__ZN96_$LT$serde_core..de..value..StrDeserializer$LT$E$GT$$u20$as$u20$serde_core..de..Deserializer$GT$22deserialize_identifier17h7dccd651b919b4ebE', symObjAddr: 0x90, symBinAddr: 0x2DB50, symSize: 0x28 }
  - { offset: 0x72295, size: 0x8, addend: 0x0, symName: '__ZN10serde_core2de5value24StrDeserializer$LT$E$GT$3new17h90bd4958db25528cE', symObjAddr: 0x0, symBinAddr: 0x2DAC0, symSize: 0x18 }
  - { offset: 0x722DF, size: 0x8, addend: 0x0, symName: __ZN9hashbrown3raw11TableLayout20calculate_layout_for17habb1368551486dd6E, symObjAddr: 0x0, symBinAddr: 0x2DB78, symSize: 0x220 }
  - { offset: 0x73AE0, size: 0x8, addend: 0x0, symName: __ZN9hashbrown3raw11TableLayout20calculate_layout_for17habb1368551486dd6E, symObjAddr: 0x0, symBinAddr: 0x2DB78, symSize: 0x220 }
  - { offset: 0x740B8, size: 0x8, addend: 0x0, symName: __ZN9hashbrown3raw13RawTableInner15fix_insert_slot17h15757e6cf968cd17E, symObjAddr: 0x220, symBinAddr: 0x2DD98, symSize: 0x10C }
  - { offset: 0x7443D, size: 0x8, addend: 0x0, symName: __ZN9hashbrown3raw13RawTableInner15rehash_in_place17h0ff0cc5bf981309fE, symObjAddr: 0x32C, symBinAddr: 0x2DEA4, symSize: 0x408 }
  - { offset: 0x74BE1, size: 0x8, addend: 0x0, symName: __ZN9hashbrown3raw13RawTableInner16find_insert_slot17h39b1ae08e3b4c73eE, symObjAddr: 0x734, symBinAddr: 0x2E2AC, symSize: 0xFC }
  - { offset: 0x74DC7, size: 0x8, addend: 0x0, symName: __ZN9hashbrown3raw13RawTableInner19prepare_insert_slot17h8133ef2684b43914E, symObjAddr: 0x830, symBinAddr: 0x2E3A8, symSize: 0x74 }
  - { offset: 0x750B8, size: 0x8, addend: 0x0, symName: __ZN9hashbrown3raw13RawTableInner23prepare_rehash_in_place17h942c079b05799d8dE, symObjAddr: 0x8A4, symBinAddr: 0x2E41C, symSize: 0x218 }
  - { offset: 0x756EE, size: 0x8, addend: 0x0, symName: __ZN9hashbrown3raw13RawTableInner25find_insert_slot_in_group17ha3cfdad6dddf1790E, symObjAddr: 0xABC, symBinAddr: 0x2E634, symSize: 0x144 }
  - { offset: 0x7580E, size: 0x8, addend: 0x0, symName: __ZN4pyo35impl_10trampoline11module_init17h50ccb43ad9d4cf5cE, symObjAddr: 0x0, symBinAddr: 0x2E778, symSize: 0x28 }
  - { offset: 0x75891, size: 0x8, addend: 0x0, symName: __ZN4pyo35impl_10trampoline11module_init17h50ccb43ad9d4cf5cE, symObjAddr: 0x0, symBinAddr: 0x2E778, symSize: 0x28 }
  - { offset: 0x758BD, size: 0x8, addend: 0x0, symName: __ZN4pyo35impl_10trampoline23cfunction_with_keywords17h5a4c52c3e40e41c9E, symObjAddr: 0x28, symBinAddr: 0x2E7A0, symSize: 0x50 }
  - { offset: 0x75913, size: 0x8, addend: 0x0, symName: __ZN4pyo35impl_10trampoline6noargs17h32e3ad1af56cfd89E, symObjAddr: 0x78, symBinAddr: 0x2E7F0, symSize: 0x64 }
  - { offset: 0x760A8, size: 0x8, addend: 0x0, symName: '__ZN4core3str6traits54_$LT$impl$u20$core..cmp..PartialEq$u20$for$u20$str$GT$2eq17h5ca421d811aef92cE', symObjAddr: 0x0, symBinAddr: 0x2E854, symSize: 0xA0 }
  - { offset: 0x760ED, size: 0x8, addend: 0x0, symName: '__ZN4core3str6traits54_$LT$impl$u20$core..cmp..PartialEq$u20$for$u20$str$GT$2eq17h5ca421d811aef92cE', symObjAddr: 0x0, symBinAddr: 0x2E854, symSize: 0xA0 }
  - { offset: 0x76394, size: 0x8, addend: 0x0, symName: '__ZN10serde_core2de5impls82_$LT$impl$u20$serde_core..de..Deserialize$u20$for$u20$alloc..vec..Vec$LT$T$GT$$GT$11deserialize17h500486e300a1aa1cE', symObjAddr: 0x0, symBinAddr: 0x2E8F4, symSize: 0x1C }
  - { offset: 0x78241, size: 0x8, addend: 0x0, symName: '__ZN10serde_core2de5impls82_$LT$impl$u20$serde_core..de..Deserialize$u20$for$u20$alloc..vec..Vec$LT$T$GT$$GT$11deserialize17h500486e300a1aa1cE', symObjAddr: 0x0, symBinAddr: 0x2E8F4, symSize: 0x1C }
  - { offset: 0x782A0, size: 0x8, addend: 0x0, symName: '__ZN10serde_core2de5impls82_$LT$impl$u20$serde_core..de..Deserialize$u20$for$u20$alloc..vec..Vec$LT$T$GT$$GT$11deserialize17h69b003cf416bb4a1E', symObjAddr: 0x1C, symBinAddr: 0x2E910, symSize: 0x1C }
  - { offset: 0x782FF, size: 0x8, addend: 0x0, symName: '__ZN10serde_core2de5impls82_$LT$impl$u20$serde_core..de..Deserialize$u20$for$u20$alloc..vec..Vec$LT$T$GT$$GT$11deserialize17h9c04a62bb3328d6eE', symObjAddr: 0x38, symBinAddr: 0x2E92C, symSize: 0x1C }
  - { offset: 0x7835E, size: 0x8, addend: 0x0, symName: '__ZN10serde_core2de5impls82_$LT$impl$u20$serde_core..de..Deserialize$u20$for$u20$alloc..vec..Vec$LT$T$GT$$GT$11deserialize17haddae39096bf35e3E', symObjAddr: 0x54, symBinAddr: 0x2E948, symSize: 0x1C }
  - { offset: 0x783BD, size: 0x8, addend: 0x0, symName: '__ZN10serde_core2de5impls82_$LT$impl$u20$serde_core..de..Deserialize$u20$for$u20$alloc..vec..Vec$LT$T$GT$$GT$11deserialize17hbb09880a2cac52a2E', symObjAddr: 0x70, symBinAddr: 0x2E964, symSize: 0x24 }
  - { offset: 0x79440, size: 0x8, addend: 0x0, symName: '__ZN111_$LT$alloc..vec..Vec$LT$T$GT$$u20$as$u20$alloc..vec..spec_from_iter_nested..SpecFromIterNested$LT$T$C$I$GT$$GT$9from_iter17h281ae9ff57bf7b95E', symObjAddr: 0x94, symBinAddr: 0x2E988, symSize: 0x15C }
  - { offset: 0x7951C, size: 0x8, addend: 0x0, symName: '__ZN111_$LT$alloc..vec..Vec$LT$T$GT$$u20$as$u20$alloc..vec..spec_from_iter_nested..SpecFromIterNested$LT$T$C$I$GT$$GT$9from_iter17hff21d0d9d883b660E', symObjAddr: 0x1F0, symBinAddr: 0x2EAE4, symSize: 0x234 }
  - { offset: 0x7A3D8, size: 0x8, addend: 0x0, symName: '__ZN5alloc3vec16Vec$LT$T$C$A$GT$14extend_trusted28_$u7b$$u7b$closure$u7d$$u7d$17h17cda5f8862a17daE', symObjAddr: 0x7B0, symBinAddr: 0x2F0A4, symSize: 0x40 }
  - { offset: 0x7A49C, size: 0x8, addend: 0x0, symName: '__ZN67_$LT$alloc..vec..Vec$LT$T$GT$$u20$as$u20$core..default..Default$GT$7default17h29d94c713e5b521fE', symObjAddr: 0x1488, symBinAddr: 0x2FD7C, symSize: 0x14 }
  - { offset: 0x7A4BE, size: 0x8, addend: 0x0, symName: '__ZN67_$LT$alloc..vec..Vec$LT$T$GT$$u20$as$u20$core..default..Default$GT$7default17h29d94c713e5b521fE', symObjAddr: 0x1488, symBinAddr: 0x2FD7C, symSize: 0x14 }
  - { offset: 0x7A4D9, size: 0x8, addend: 0x0, symName: '__ZN67_$LT$alloc..vec..Vec$LT$T$GT$$u20$as$u20$core..default..Default$GT$7default17h61d6e8a838c3bf94E', symObjAddr: 0x149C, symBinAddr: 0x2FD90, symSize: 0x14 }
  - { offset: 0x7A4FB, size: 0x8, addend: 0x0, symName: '__ZN67_$LT$alloc..vec..Vec$LT$T$GT$$u20$as$u20$core..default..Default$GT$7default17h61d6e8a838c3bf94E', symObjAddr: 0x149C, symBinAddr: 0x2FD90, symSize: 0x14 }
  - { offset: 0x7A516, size: 0x8, addend: 0x0, symName: '__ZN67_$LT$alloc..vec..Vec$LT$T$GT$$u20$as$u20$core..default..Default$GT$7default17hb99418273d6da901E', symObjAddr: 0x14B0, symBinAddr: 0x2FDA4, symSize: 0x14 }
  - { offset: 0x7A538, size: 0x8, addend: 0x0, symName: '__ZN67_$LT$alloc..vec..Vec$LT$T$GT$$u20$as$u20$core..default..Default$GT$7default17hb99418273d6da901E', symObjAddr: 0x14B0, symBinAddr: 0x2FDA4, symSize: 0x14 }
  - { offset: 0x7A553, size: 0x8, addend: 0x0, symName: '__ZN67_$LT$alloc..vec..Vec$LT$T$GT$$u20$as$u20$core..default..Default$GT$7default17hd8bd6b1442437c93E', symObjAddr: 0x14C4, symBinAddr: 0x2FDB8, symSize: 0x14 }
  - { offset: 0x7A575, size: 0x8, addend: 0x0, symName: '__ZN67_$LT$alloc..vec..Vec$LT$T$GT$$u20$as$u20$core..default..Default$GT$7default17hd8bd6b1442437c93E', symObjAddr: 0x14C4, symBinAddr: 0x2FDB8, symSize: 0x14 }
  - { offset: 0x7A596, size: 0x8, addend: 0x0, symName: '__ZN72_$LT$alloc..vec..Vec$LT$T$C$A$GT$$u20$as$u20$core..ops..deref..Deref$GT$5deref17h4920ec941a95be31E', symObjAddr: 0x14D8, symBinAddr: 0x2FDCC, symSize: 0x24 }
  - { offset: 0x7A5D6, size: 0x8, addend: 0x0, symName: '__ZN72_$LT$alloc..vec..Vec$LT$T$C$A$GT$$u20$as$u20$core..ops..deref..Deref$GT$5deref17h922b323ae6cc1c89E', symObjAddr: 0x14FC, symBinAddr: 0x2FDF0, symSize: 0x24 }
  - { offset: 0x7A616, size: 0x8, addend: 0x0, symName: '__ZN72_$LT$alloc..vec..Vec$LT$T$C$A$GT$$u20$as$u20$core..ops..deref..Deref$GT$5deref17hd0382b9f4532f093E', symObjAddr: 0x1520, symBinAddr: 0x2FE14, symSize: 0x24 }
  - { offset: 0x7A656, size: 0x8, addend: 0x0, symName: '__ZN72_$LT$alloc..vec..Vec$LT$T$C$A$GT$$u20$as$u20$core..ops..deref..Deref$GT$5deref17he4f2eb997cc09d69E', symObjAddr: 0x1544, symBinAddr: 0x2FE38, symSize: 0x24 }
  - { offset: 0x7A6FC, size: 0x8, addend: 0x0, symName: '__ZN75_$LT$alloc..vec..Vec$LT$T$C$A$GT$$u20$as$u20$core..ops..deref..DerefMut$GT$9deref_mut17hb39a14c8a9784a96E', symObjAddr: 0x1568, symBinAddr: 0x2FE5C, symSize: 0x24 }
  - { offset: 0x7A742, size: 0x8, addend: 0x0, symName: '__ZN90_$LT$alloc..vec..Vec$LT$T$C$A$GT$$u20$as$u20$core..iter..traits..collect..IntoIterator$GT$9into_iter17h27519de1e9fe7753E', symObjAddr: 0x158C, symBinAddr: 0x2FE80, symSize: 0x98 }
  - { offset: 0x7A972, size: 0x8, addend: 0x0, symName: '__ZN90_$LT$alloc..vec..Vec$LT$T$C$A$GT$$u20$as$u20$core..iter..traits..collect..IntoIterator$GT$9into_iter17h29ef0473718158c2E', symObjAddr: 0x1624, symBinAddr: 0x2FF18, symSize: 0x98 }
  - { offset: 0x7ABA8, size: 0x8, addend: 0x0, symName: '__ZN94_$LT$$RF$alloc..vec..Vec$LT$T$C$A$GT$$u20$as$u20$core..iter..traits..collect..IntoIterator$GT$9into_iter17h3b0c1fe2cd16c30aE', symObjAddr: 0x16BC, symBinAddr: 0x2FFB0, symSize: 0xAC }
  - { offset: 0x7ADF2, size: 0x8, addend: 0x0, symName: '__ZN94_$LT$$RF$alloc..vec..Vec$LT$T$C$A$GT$$u20$as$u20$core..iter..traits..collect..IntoIterator$GT$9into_iter17he39a6669e92df001E', symObjAddr: 0x1768, symBinAddr: 0x3005C, symSize: 0xAC }
  - { offset: 0x7B042, size: 0x8, addend: 0x0, symName: '__ZN95_$LT$alloc..vec..Vec$LT$T$GT$$u20$as$u20$core..iter..traits..collect..FromIterator$LT$T$GT$$GT$9from_iter17h673511f0c8c90ad0E', symObjAddr: 0x1814, symBinAddr: 0x30108, symSize: 0x38 }
  - { offset: 0x7B082, size: 0x8, addend: 0x0, symName: '__ZN95_$LT$alloc..vec..Vec$LT$T$GT$$u20$as$u20$core..iter..traits..collect..FromIterator$LT$T$GT$$GT$9from_iter17hfd54ee232b4391b8E', symObjAddr: 0x184C, symBinAddr: 0x30140, symSize: 0x38 }
  - { offset: 0x7B0CD, size: 0x8, addend: 0x0, symName: '__ZN97_$LT$alloc..vec..Vec$LT$T$C$A$GT$$u20$as$u20$alloc..vec..spec_extend..SpecExtend$LT$T$C$I$GT$$GT$11spec_extend17hf222523f8f348917E', symObjAddr: 0x1884, symBinAddr: 0x30178, symSize: 0x34 }
  - { offset: 0x7B124, size: 0x8, addend: 0x0, symName: '__ZN97_$LT$alloc..vec..Vec$LT$T$C$A$GT$$u20$as$u20$alloc..vec..spec_extend..SpecExtend$LT$T$C$I$GT$$GT$11spec_extend17hf34595abe6d00011E', symObjAddr: 0x18B8, symBinAddr: 0x301AC, symSize: 0x34 }
  - { offset: 0x7B181, size: 0x8, addend: 0x0, symName: '__ZN98_$LT$alloc..vec..Vec$LT$T$GT$$u20$as$u20$alloc..vec..spec_from_iter..SpecFromIter$LT$T$C$I$GT$$GT$9from_iter17ha53e9dd869d18a49E', symObjAddr: 0x18EC, symBinAddr: 0x301E0, symSize: 0x2C }
  - { offset: 0x7B1BF, size: 0x8, addend: 0x0, symName: '__ZN98_$LT$alloc..vec..Vec$LT$T$GT$$u20$as$u20$alloc..vec..spec_from_iter..SpecFromIter$LT$T$C$I$GT$$GT$9from_iter17hf655de5cdcc2d73aE', symObjAddr: 0x1918, symBinAddr: 0x3020C, symSize: 0x2C }
  - { offset: 0x7B683, size: 0x8, addend: 0x0, symName: '__ZN5alloc3vec12Vec$LT$T$GT$13with_capacity17h1e7f40183156a759E', symObjAddr: 0x424, symBinAddr: 0x2ED18, symSize: 0x44 }
  - { offset: 0x7B75D, size: 0x8, addend: 0x0, symName: '__ZN5alloc3vec12Vec$LT$T$GT$13with_capacity17h275f77464faa83e1E', symObjAddr: 0x468, symBinAddr: 0x2ED5C, symSize: 0x44 }
  - { offset: 0x7B837, size: 0x8, addend: 0x0, symName: '__ZN5alloc3vec12Vec$LT$T$GT$13with_capacity17hb4614f052c870399E', symObjAddr: 0x4AC, symBinAddr: 0x2EDA0, symSize: 0x44 }
  - { offset: 0x7B992, size: 0x8, addend: 0x0, symName: '__ZN5alloc3vec12Vec$LT$T$GT$13with_capacity17hb96431a08d8cf177E', symObjAddr: 0x4F0, symBinAddr: 0x2EDE4, symSize: 0x44 }
  - { offset: 0x7BA6C, size: 0x8, addend: 0x0, symName: '__ZN5alloc3vec12Vec$LT$T$GT$13with_capacity17he1d0b3a7ccd7a850E', symObjAddr: 0x534, symBinAddr: 0x2EE28, symSize: 0x44 }
  - { offset: 0x7BB46, size: 0x8, addend: 0x0, symName: '__ZN5alloc3vec12Vec$LT$T$GT$13with_capacity17hecadeefa0c252a88E', symObjAddr: 0x578, symBinAddr: 0x2EE6C, symSize: 0x40 }
  - { offset: 0x7BCCA, size: 0x8, addend: 0x0, symName: '__ZN5alloc3vec12Vec$LT$T$GT$3new17h4405c98665406466E', symObjAddr: 0x5B8, symBinAddr: 0x2EEAC, symSize: 0x14 }
  - { offset: 0x7BCE7, size: 0x8, addend: 0x0, symName: '__ZN5alloc3vec12Vec$LT$T$GT$3new17h91b8a1eb8e02a92aE', symObjAddr: 0x5CC, symBinAddr: 0x2EEC0, symSize: 0x14 }
  - { offset: 0x7BD04, size: 0x8, addend: 0x0, symName: '__ZN5alloc3vec12Vec$LT$T$GT$3new17hde894cb298621415E', symObjAddr: 0x5E0, symBinAddr: 0x2EED4, symSize: 0x14 }
  - { offset: 0x7BDFC, size: 0x8, addend: 0x0, symName: '__ZN5alloc3vec16Vec$LT$T$C$A$GT$12as_mut_slice17h236b6171bb6a8c36E', symObjAddr: 0x5F4, symBinAddr: 0x2EEE8, symSize: 0x6C }
  - { offset: 0x7BFE3, size: 0x8, addend: 0x0, symName: '__ZN5alloc3vec16Vec$LT$T$C$A$GT$14extend_trusted17heb126d23d82a7743E', symObjAddr: 0x660, symBinAddr: 0x2EF54, symSize: 0x150 }
  - { offset: 0x7C305, size: 0x8, addend: 0x0, symName: '__ZN5alloc3vec16Vec$LT$T$C$A$GT$16extend_desugared17hd1584d283e063ccdE', symObjAddr: 0x7F0, symBinAddr: 0x2F0E4, symSize: 0x1C8 }
  - { offset: 0x7C5BE, size: 0x8, addend: 0x0, symName: '__ZN5alloc3vec16Vec$LT$T$C$A$GT$4push17h110eedf2620dd897E', symObjAddr: 0x9B8, symBinAddr: 0x2F2AC, symSize: 0x24 }
  - { offset: 0x7C610, size: 0x8, addend: 0x0, symName: '__ZN5alloc3vec16Vec$LT$T$C$A$GT$4push17h43217cba6caa6e4fE', symObjAddr: 0x9DC, symBinAddr: 0x2F2D0, symSize: 0x24 }
  - { offset: 0x7C662, size: 0x8, addend: 0x0, symName: '__ZN5alloc3vec16Vec$LT$T$C$A$GT$4push17h63705737ab767451E', symObjAddr: 0xA00, symBinAddr: 0x2F2F4, symSize: 0x24 }
  - { offset: 0x7C6B4, size: 0x8, addend: 0x0, symName: '__ZN5alloc3vec16Vec$LT$T$C$A$GT$4push17hb4f418adb51c5c9bE', symObjAddr: 0xA24, symBinAddr: 0x2F318, symSize: 0x24 }
  - { offset: 0x7C706, size: 0x8, addend: 0x0, symName: '__ZN5alloc3vec16Vec$LT$T$C$A$GT$4push17hbf923954f133b175E', symObjAddr: 0xA48, symBinAddr: 0x2F33C, symSize: 0x24 }
  - { offset: 0x7C758, size: 0x8, addend: 0x0, symName: '__ZN5alloc3vec16Vec$LT$T$C$A$GT$4push17hccc7ba7516197964E', symObjAddr: 0xA6C, symBinAddr: 0x2F360, symSize: 0x24 }
  - { offset: 0x7C7AA, size: 0x8, addend: 0x0, symName: '__ZN5alloc3vec16Vec$LT$T$C$A$GT$4push17he739e0ccf841168fE', symObjAddr: 0xA90, symBinAddr: 0x2F384, symSize: 0x28 }
  - { offset: 0x7C7FB, size: 0x8, addend: 0x0, symName: '__ZN5alloc3vec16Vec$LT$T$C$A$GT$4push17hec9c82f0660f274fE', symObjAddr: 0xAB8, symBinAddr: 0x2F3AC, symSize: 0x24 }
  - { offset: 0x7C90B, size: 0x8, addend: 0x0, symName: '__ZN5alloc3vec16Vec$LT$T$C$A$GT$8as_slice17h2e47e9195b037e12E', symObjAddr: 0xADC, symBinAddr: 0x2F3D0, symSize: 0x6C }
  - { offset: 0x7CA83, size: 0x8, addend: 0x0, symName: '__ZN5alloc3vec16Vec$LT$T$C$A$GT$8as_slice17h3c5ddcc0ff9ae049E', symObjAddr: 0xB48, symBinAddr: 0x2F43C, symSize: 0x6C }
  - { offset: 0x7CC08, size: 0x8, addend: 0x0, symName: '__ZN5alloc3vec16Vec$LT$T$C$A$GT$8as_slice17h7f2e34367e1c8871E', symObjAddr: 0xBB4, symBinAddr: 0x2F4A8, symSize: 0x68 }
  - { offset: 0x7CD80, size: 0x8, addend: 0x0, symName: '__ZN5alloc3vec16Vec$LT$T$C$A$GT$8as_slice17ha65f88b9cfb38aa5E', symObjAddr: 0xC1C, symBinAddr: 0x2F510, symSize: 0x6C }
  - { offset: 0x7CE6C, size: 0x8, addend: 0x0, symName: '__ZN5alloc3vec16Vec$LT$T$C$A$GT$8is_empty17h7494db494b1759ffE', symObjAddr: 0xC88, symBinAddr: 0x2F57C, symSize: 0x20 }
  - { offset: 0x7CEE4, size: 0x8, addend: 0x0, symName: '__ZN5alloc3vec16Vec$LT$T$C$A$GT$8is_empty17hc0e5e1c6f84385c1E', symObjAddr: 0xCA8, symBinAddr: 0x2F59C, symSize: 0x20 }
  - { offset: 0x7D023, size: 0x8, addend: 0x0, symName: '__ZN5alloc3vec16Vec$LT$T$C$A$GT$8push_mut17h03cde8d01fc32e20E', symObjAddr: 0xCC8, symBinAddr: 0x2F5BC, symSize: 0xC8 }
  - { offset: 0x7D2BF, size: 0x8, addend: 0x0, symName: '__ZN5alloc3vec16Vec$LT$T$C$A$GT$8push_mut17h319246739d4e697eE', symObjAddr: 0xD90, symBinAddr: 0x2F684, symSize: 0x108 }
  - { offset: 0x7D55D, size: 0x8, addend: 0x0, symName: '__ZN5alloc3vec16Vec$LT$T$C$A$GT$8push_mut17h41c71599bbfd051cE', symObjAddr: 0xE98, symBinAddr: 0x2F78C, symSize: 0x108 }
  - { offset: 0x7D821, size: 0x8, addend: 0x0, symName: '__ZN5alloc3vec16Vec$LT$T$C$A$GT$8push_mut17h79ea44ba0759b370E', symObjAddr: 0xFA0, symBinAddr: 0x2F894, symSize: 0xEC }
  - { offset: 0x7DAC0, size: 0x8, addend: 0x0, symName: '__ZN5alloc3vec16Vec$LT$T$C$A$GT$8push_mut17hc183fb21d72f3719E', symObjAddr: 0x108C, symBinAddr: 0x2F980, symSize: 0x100 }
  - { offset: 0x7DD85, size: 0x8, addend: 0x0, symName: '__ZN5alloc3vec16Vec$LT$T$C$A$GT$8push_mut17hc3e5f74bba692861E', symObjAddr: 0x118C, symBinAddr: 0x2FA80, symSize: 0x100 }
  - { offset: 0x7E023, size: 0x8, addend: 0x0, symName: '__ZN5alloc3vec16Vec$LT$T$C$A$GT$8push_mut17hd4190e1828ff7e45E', symObjAddr: 0x128C, symBinAddr: 0x2FB80, symSize: 0xF4 }
  - { offset: 0x7E2E9, size: 0x8, addend: 0x0, symName: '__ZN5alloc3vec16Vec$LT$T$C$A$GT$8push_mut17he21c36308f9919d7E', symObjAddr: 0x1380, symBinAddr: 0x2FC74, symSize: 0x108 }
  - { offset: 0x7EE21, size: 0x8, addend: 0x0, symName: '__ZN4core5slice29_$LT$impl$u20$$u5b$T$u5d$$GT$8is_empty17h950422a955e89cb2E', symObjAddr: 0x0, symBinAddr: 0x30238, symSize: 0x1C }
  - { offset: 0x7EE3D, size: 0x8, addend: 0x0, symName: '__ZN4core5slice29_$LT$impl$u20$$u5b$T$u5d$$GT$8is_empty17h950422a955e89cb2E', symObjAddr: 0x0, symBinAddr: 0x30238, symSize: 0x1C }
  - { offset: 0x7EEF6, size: 0x8, addend: 0x0, symName: '__ZN4core3ptr8non_null16NonNull$LT$T$GT$20offset_from_unsigned17h5e327c5bcc901e16E', symObjAddr: 0x0, symBinAddr: 0x30254, symSize: 0x7C }
  - { offset: 0x7F632, size: 0x8, addend: 0x0, symName: '__ZN4core3ptr8non_null16NonNull$LT$T$GT$20offset_from_unsigned17h5e327c5bcc901e16E', symObjAddr: 0x0, symBinAddr: 0x30254, symSize: 0x7C }
  - { offset: 0x7F858, size: 0x8, addend: 0x0, symName: '__ZN4core3ptr8non_null16NonNull$LT$T$GT$20offset_from_unsigned17hd4cf19ff48083752E', symObjAddr: 0x7C, symBinAddr: 0x302D0, symSize: 0x7C }
  - { offset: 0x7F94A, size: 0x8, addend: 0x0, symName: __ZN16percent_encoding14percent_encode17he0c6f0f92f253560E, symObjAddr: 0x0, symBinAddr: 0x3034C, symSize: 0x2C }
  - { offset: 0x7F95C, size: 0x8, addend: 0x0, symName: __ZN16percent_encoding14percent_encode17he0c6f0f92f253560E, symObjAddr: 0x0, symBinAddr: 0x3034C, symSize: 0x2C }
  - { offset: 0x7F996, size: 0x8, addend: 0x0, symName: __ZN16percent_encoding19utf8_percent_encode17h41b90ee9836675b2E, symObjAddr: 0x2C, symBinAddr: 0x30378, symSize: 0x3C }
  - { offset: 0x7FAA6, size: 0x8, addend: 0x0, symName: '__ZN4core3num20_$LT$impl$u20$u8$GT$11checked_sub17h74f1a7456b58860cE', symObjAddr: 0x0, symBinAddr: 0x303B4, symSize: 0x78 }
  - { offset: 0x7FB07, size: 0x8, addend: 0x0, symName: '__ZN4core3num20_$LT$impl$u20$u8$GT$11checked_sub17h74f1a7456b58860cE', symObjAddr: 0x0, symBinAddr: 0x303B4, symSize: 0x78 }
  - { offset: 0x7FB4A, size: 0x8, addend: 0x0, symName: '__ZN4core3num21_$LT$impl$u20$i64$GT$14from_str_radix17he29c336d52fbfeffE', symObjAddr: 0x78, symBinAddr: 0x3042C, symSize: 0x2C }
  - { offset: 0x7FB87, size: 0x8, addend: 0x0, symName: '__ZN4core3num21_$LT$impl$u20$i64$GT$16from_ascii_radix17hee8dda2ad3003956E', symObjAddr: 0xA4, symBinAddr: 0x30458, symSize: 0x7D4 }
  - { offset: 0x801CB, size: 0x8, addend: 0x0, symName: '__ZN4core3num21_$LT$impl$u20$u64$GT$14from_str_radix17headc0f25353cb586E', symObjAddr: 0x878, symBinAddr: 0x30C2C, symSize: 0x2C }
  - { offset: 0x80208, size: 0x8, addend: 0x0, symName: '__ZN4core3num21_$LT$impl$u20$u64$GT$16from_ascii_radix17ha6b5158c1bca18a1E', symObjAddr: 0x8A4, symBinAddr: 0x30C58, symSize: 0x4C0 }
  - { offset: 0x8056F, size: 0x8, addend: 0x0, symName: '__ZN4core3num22_$LT$impl$u20$i128$GT$14from_str_radix17he401b53ac815d946E', symObjAddr: 0xD64, symBinAddr: 0x31118, symSize: 0x2C }
  - { offset: 0x805AC, size: 0x8, addend: 0x0, symName: '__ZN4core3num22_$LT$impl$u20$i128$GT$16from_ascii_radix17hb0e23a44a90672cbE', symObjAddr: 0xD90, symBinAddr: 0x31144, symSize: 0x990 }
  - { offset: 0x80BF1, size: 0x8, addend: 0x0, symName: '__ZN4core3num22_$LT$impl$u20$u128$GT$14from_str_radix17h43a93a3bbb66117dE', symObjAddr: 0x1720, symBinAddr: 0x31AD4, symSize: 0x2C }
  - { offset: 0x80C2E, size: 0x8, addend: 0x0, symName: '__ZN4core3num22_$LT$impl$u20$u128$GT$16from_ascii_radix17h37bff6649d364ef5E', symObjAddr: 0x174C, symBinAddr: 0x31B00, symSize: 0x59C }
  - { offset: 0x80FC6, size: 0x8, addend: 0x0, symName: '__ZN4core3num23_$LT$impl$u20$usize$GT$13unchecked_add18precondition_check17h69fd5ba0fe6b4fd1E', symObjAddr: 0x1CE8, symBinAddr: 0x3209C, symSize: 0xB0 }
  - { offset: 0x81DC7, size: 0x8, addend: 0x0, symName: '__ZN4core6option15Option$LT$T$GT$7is_some17he0f029cb324695fbE', symObjAddr: 0x8768, symBinAddr: 0x32168, symSize: 0x2C }
  - { offset: 0x8242E, size: 0x8, addend: 0x0, symName: '__ZN4core3fmt2rt38_$LT$impl$u20$core..fmt..Arguments$GT$6new_v117hbc0586e27f5d366dE', symObjAddr: 0x2AC, symBinAddr: 0x32194, symSize: 0x50 }
  - { offset: 0x824C0, size: 0x8, addend: 0x0, symName: '__ZN4core6option15Option$LT$T$GT$9unwrap_or17hc697bf7872345734E', symObjAddr: 0x1DEC, symBinAddr: 0x321E4, symSize: 0x44 }
  - { offset: 0x82703, size: 0x8, addend: 0x0, symName: '__ZN72_$LT$core..option..Option$LT$T$GT$$u20$as$u20$core..default..Default$GT$7default17h5ac5e637e2ad414cE', symObjAddr: 0x2A4C, symBinAddr: 0x32228, symSize: 0x10 }
  - { offset: 0x82D73, size: 0x8, addend: 0x0, symName: __ZN4core5slice3raw14from_raw_parts18precondition_check17h62fafffc1016183dE, symObjAddr: 0x3CC4, symBinAddr: 0x32238, symSize: 0x1D8 }
  - { offset: 0x84302, size: 0x8, addend: 0x0, symName: '__ZN4core6option15Option$LT$T$GT$8as_deref17hd38fbaa78b0916f5E', symObjAddr: 0x3538, symBinAddr: 0x32410, symSize: 0x78 }
  - { offset: 0x84A28, size: 0x8, addend: 0x0, symName: '__ZN65_$LT$alloc..string..String$u20$as$u20$core..ops..deref..Deref$GT$5deref17h8a24fbfb05fe8d30E', symObjAddr: 0x192C, symBinAddr: 0x324F8, symSize: 0x24 }
  - { offset: 0x84DAD, size: 0x8, addend: 0x0, symName: __ZN5alloc6string6String6as_str17h5a804488e45a95cdE, symObjAddr: 0x1198, symBinAddr: 0x32488, symSize: 0x70 }
  - { offset: 0x85511, size: 0x8, addend: 0x0, symName: '__ZN4core3ptr78drop_in_place$LT$core..option..Option$LT$alloc..borrow..Cow$LT$str$GT$$GT$$GT$17hb1a0d0623fce496dE', symObjAddr: 0x3148, symBinAddr: 0x3251C, symSize: 0x48 }
  - { offset: 0x86DC9, size: 0x8, addend: 0x0, symName: '__ZN4core3ptr42drop_in_place$LT$alloc..string..String$GT$17h6ac12a61a8b056e5E', symObjAddr: 0x37C8, symBinAddr: 0x32564, symSize: 0x24 }
  - { offset: 0x86DF8, size: 0x8, addend: 0x0, symName: '__ZN4core3ptr46drop_in_place$LT$alloc..vec..Vec$LT$u8$GT$$GT$17hdcc816b6118b7909E', symObjAddr: 0x37EC, symBinAddr: 0x32588, symSize: 0x5C }
  - { offset: 0x86E27, size: 0x8, addend: 0x0, symName: '__ZN4core3ptr50drop_in_place$LT$alloc..borrow..Cow$LT$str$GT$$GT$17h78a26087227fdc58E', symObjAddr: 0x386C, symBinAddr: 0x325E4, symSize: 0x48 }
  - { offset: 0x86E56, size: 0x8, addend: 0x0, symName: '__ZN4core3ptr53drop_in_place$LT$alloc..raw_vec..RawVec$LT$u8$GT$$GT$17hdb3029d93c7debebE', symObjAddr: 0x3920, symBinAddr: 0x3262C, symSize: 0x24 }
  - { offset: 0x88722, size: 0x8, addend: 0x0, symName: __ZN4core5slice3raw14from_raw_parts18precondition_check17h51ffc5b95804ee53E, symObjAddr: 0x13F8, symBinAddr: 0x32650, symSize: 0x1D8 }
  - { offset: 0x89E91, size: 0x8, addend: 0x0, symName: __ZN4core4hash11BuildHasher8hash_one17h638b4a8d5bca732fE, symObjAddr: 0xC44, symBinAddr: 0x32828, symSize: 0x84 }
  - { offset: 0x8A1D6, size: 0x8, addend: 0x0, symName: '__ZN71_$LT$std..hash..random..DefaultHasher$u20$as$u20$core..hash..Hasher$GT$6finish17h46cadda21b273af3E', symObjAddr: 0x3864, symBinAddr: 0x328AC, symSize: 0x20 }
  - { offset: 0x8A21E, size: 0x8, addend: 0x0, symName: '__ZN71_$LT$std..hash..random..DefaultHasher$u20$as$u20$core..hash..Hasher$GT$9write_str17hf3b12e152622af00E', symObjAddr: 0x3884, symBinAddr: 0x328CC, symSize: 0x2C }
  - { offset: 0x8A27E, size: 0x8, addend: 0x0, symName: '__ZN74_$LT$std..hash..random..RandomState$u20$as$u20$core..hash..BuildHasher$GT$12build_hasher17ha682574fea4c3e94E', symObjAddr: 0x38B0, symBinAddr: 0x328F8, symSize: 0xCC }
  - { offset: 0x8A5E1, size: 0x8, addend: 0x0, symName: '__ZN4core4hash5impls52_$LT$impl$u20$core..hash..Hash$u20$for$u20$$RF$T$GT$4hash17h696956ac50f93f9cE', symObjAddr: 0x193C, symBinAddr: 0x329C4, symSize: 0x30 }
  - { offset: 0x8A729, size: 0x8, addend: 0x0, symName: '__ZN71_$LT$core..hash..sip..Hasher$LT$S$GT$$u20$as$u20$core..hash..Hasher$GT$9write_str17h2782de92a4353a2cE', symObjAddr: 0x550C, symBinAddr: 0x32A7C, symSize: 0x5C }
  - { offset: 0x8AA1E, size: 0x8, addend: 0x0, symName: '__ZN58_$LT$alloc..string..String$u20$as$u20$core..hash..Hash$GT$4hash17h16d20213940169e2E', symObjAddr: 0x277C, symBinAddr: 0x329F4, symSize: 0x88 }
  - { offset: 0x8B028, size: 0x8, addend: 0x0, symName: '__ZN4core5slice4iter13Iter$LT$T$GT$3new17h0fc582c7b62abbbaE', symObjAddr: 0x6C6C, symBinAddr: 0x32AD8, symSize: 0x50 }
  - { offset: 0x8B1F6, size: 0x8, addend: 0x0, symName: '__ZN4core5slice29_$LT$impl$u20$$u5b$T$u5d$$GT$4iter17hc31fa049df9e1a61E', symObjAddr: 0x3894, symBinAddr: 0x32B28, symSize: 0x28 }
  - { offset: 0x8CCB9, size: 0x8, addend: 0x0, symName: '__ZN45_$LT$T$u20$as$u20$alloc..string..ToString$GT$9to_string17h63600db3175277e0E', symObjAddr: 0x2AAC, symBinAddr: 0x32B50, symSize: 0x28 }
  - { offset: 0x8CD45, size: 0x8, addend: 0x0, symName: '__ZN51_$LT$str$u20$as$u20$alloc..string..SpecToString$GT$14spec_to_string17h9f05c28de087f4eeE', symObjAddr: 0x4834, symBinAddr: 0x32B78, symSize: 0x50 }
  - { offset: 0x8D2FB, size: 0x8, addend: 0x0, symName: '__ZN4core6option15Option$LT$T$GT$7is_none17h22299091a34e83dbE', symObjAddr: 0x2CA8, symBinAddr: 0x32BC8, symSize: 0x24 }
  - { offset: 0x8D531, size: 0x8, addend: 0x0, symName: __ZN4core3ptr19copy_nonoverlapping18precondition_check17he2ef0d29fd46ab28E, symObjAddr: 0x1164, symBinAddr: 0x32BEC, symSize: 0x358 }
  - { offset: 0x8DC33, size: 0x8, addend: 0x0, symName: __ZN4core9ub_checks23maybe_is_nonoverlapping7runtime17hbc830587d5aabf01E, symObjAddr: 0x2AC4, symBinAddr: 0x32F44, symSize: 0xD8 }
  - { offset: 0x8E2F9, size: 0x8, addend: 0x0, symName: __ZN4core4hash3sip9u8to64_le17h5d1cbbf1f75eb6b2E, symObjAddr: 0x3378, symBinAddr: 0x330A8, symSize: 0x240 }
  - { offset: 0x8E4B6, size: 0x8, addend: 0x0, symName: '__ZN69_$LT$core..hash..sip..Sip13Rounds$u20$as$u20$core..hash..sip..Sip$GT$8c_rounds17h6af0656a82181348E', symObjAddr: 0x6CAC, symBinAddr: 0x332E8, symSize: 0x170 }
  - { offset: 0x8E62C, size: 0x8, addend: 0x0, symName: '__ZN69_$LT$core..hash..sip..Sip13Rounds$u20$as$u20$core..hash..sip..Sip$GT$8d_rounds17hb3d2e452065b4cd9E', symObjAddr: 0x6E1C, symBinAddr: 0x33458, symSize: 0x408 }
  - { offset: 0x8EA64, size: 0x8, addend: 0x0, symName: '__ZN71_$LT$core..hash..sip..Hasher$LT$S$GT$$u20$as$u20$core..hash..Hasher$GT$5write17h41a96cd4d58fbd65E', symObjAddr: 0x7494, symBinAddr: 0x33860, symSize: 0x230 }
  - { offset: 0x8EBDA, size: 0x8, addend: 0x0, symName: '__ZN71_$LT$core..hash..sip..Hasher$LT$S$GT$$u20$as$u20$core..hash..Hasher$GT$6finish17h3c5850e1daa466b3E', symObjAddr: 0x76C4, symBinAddr: 0x33A90, symSize: 0xA0 }
  - { offset: 0x8ED9A, size: 0x8, addend: 0x0, symName: '__ZN4core4hash3sip15Hasher$LT$S$GT$5reset17h306554bf8954cb49E', symObjAddr: 0x32EC, symBinAddr: 0x3301C, symSize: 0x8C }
  - { offset: 0x8F17C, size: 0x8, addend: 0x0, symName: '__ZN75_$LT$usize$u20$as$u20$core..slice..index..SliceIndex$LT$$u5b$T$u5d$$GT$$GT$13get_unchecked18precondition_check17hea1d013c8e7ab63aE', symObjAddr: 0x746C, symBinAddr: 0x33B30, symSize: 0xAC }
  - { offset: 0x8F5B5, size: 0x8, addend: 0x0, symName: '__ZN58_$LT$alloc..string..String$u20$as$u20$core..fmt..Write$GT$10write_char17hb8ae34a3f0f6b801E', symObjAddr: 0xBF0, symBinAddr: 0x33C00, symSize: 0x30 }
  - { offset: 0x8F5F2, size: 0x8, addend: 0x0, symName: '__ZN58_$LT$alloc..string..String$u20$as$u20$core..fmt..Write$GT$9write_str17h7cb2807d99f36710E', symObjAddr: 0xC20, symBinAddr: 0x33C30, symSize: 0x38 }
  - { offset: 0x8FC7E, size: 0x8, addend: 0x0, symName: __ZN4core3fmt5Write9write_fmt17hf26f85cac7ef0c0aE, symObjAddr: 0x3D8, symBinAddr: 0x33BDC, symSize: 0x24 }
  - { offset: 0x8FCCC, size: 0x8, addend: 0x0, symName: '__ZN75_$LT$$RF$mut$u20$W$u20$as$u20$core..fmt..Write..write_fmt..SpecWriteFmt$GT$14spec_write_fmt17hecf6d37ee0ba25c2E', symObjAddr: 0x25CC, symBinAddr: 0x33DCC, symSize: 0x13C }
  - { offset: 0x9047C, size: 0x8, addend: 0x0, symName: __ZN5alloc6string6String4push17hf5b48191a3ff294dE, symObjAddr: 0x17CC, symBinAddr: 0x33C68, symSize: 0x114 }
  - { offset: 0x9076F, size: 0x8, addend: 0x0, symName: __ZN5alloc6string6String8push_str17hff4b7dd862feaf99E, symObjAddr: 0x1D94, symBinAddr: 0x33D7C, symSize: 0x50 }
  - { offset: 0x90FAF, size: 0x8, addend: 0x0, symName: '__ZN72_$LT$alloc..vec..Vec$LT$T$C$A$GT$$u20$as$u20$core..ops..deref..Deref$GT$5deref17h6f722e255600c0d3E', symObjAddr: 0x430C, symBinAddr: 0x341C8, symSize: 0x24 }
  - { offset: 0x91046, size: 0x8, addend: 0x0, symName: '__ZN5alloc3vec10partial_eq117_$LT$impl$u20$core..cmp..PartialEq$LT$alloc..vec..Vec$LT$U$C$A2$GT$$GT$$u20$for$u20$alloc..vec..Vec$LT$T$C$A1$GT$$GT$2eq17hbcaeabf1364a3216E', symObjAddr: 0x2F0C, symBinAddr: 0x33F08, symSize: 0xDC }
  - { offset: 0x913BF, size: 0x8, addend: 0x0, symName: '__ZN5alloc3vec16Vec$LT$T$C$A$GT$7set_len18precondition_check17hc1289d2f2144490dE', symObjAddr: 0x3918, symBinAddr: 0x3408C, symSize: 0xAC }
  - { offset: 0x9142E, size: 0x8, addend: 0x0, symName: '__ZN70_$LT$alloc..vec..Vec$LT$T$C$A$GT$$u20$as$u20$core..ops..drop..Drop$GT$4drop17h3c1d9f90012c9c2bE', symObjAddr: 0x42C4, symBinAddr: 0x341A4, symSize: 0x24 }
  - { offset: 0x92AD3, size: 0x8, addend: 0x0, symName: '__ZN5alloc3vec16Vec$LT$T$C$A$GT$7reserve17h224701bf72578f87E', symObjAddr: 0x3870, symBinAddr: 0x33FE4, symSize: 0xA8 }
  - { offset: 0x92CA3, size: 0x8, addend: 0x0, symName: '__ZN5alloc3vec16Vec$LT$T$C$A$GT$8as_slice17h1ea8aadbb94795c6E', symObjAddr: 0x39C4, symBinAddr: 0x34138, symSize: 0x6C }
  - { offset: 0x931A1, size: 0x8, addend: 0x0, symName: '__ZN53_$LT$core..fmt..Error$u20$as$u20$core..fmt..Debug$GT$3fmt17h0299b7205f000549E', symObjAddr: 0x287C, symBinAddr: 0x341EC, symSize: 0x40 }
  - { offset: 0x9361A, size: 0x8, addend: 0x0, symName: '__ZN4core3ptr8non_null16NonNull$LT$T$GT$20offset_from_unsigned17hce953e95b7270ed2E', symObjAddr: 0x1218, symBinAddr: 0x3422C, symSize: 0x7C }
  - { offset: 0x93B9A, size: 0x8, addend: 0x0, symName: '__ZN4core3ptr51drop_in_place$LT$alloc..vec..Vec$LT$$RF$str$GT$$GT$17h01e1dad27125b265E', symObjAddr: 0x11BC, symBinAddr: 0x342D4, symSize: 0x5C }
  - { offset: 0x93BC9, size: 0x8, addend: 0x0, symName: '__ZN4core3ptr58drop_in_place$LT$alloc..raw_vec..RawVec$LT$$RF$str$GT$$GT$17h3dfb18b02e912693E', symObjAddr: 0x1260, symBinAddr: 0x34330, symSize: 0x24 }
  - { offset: 0x93F64, size: 0x8, addend: 0x0, symName: __ZN4core3ops8function6FnOnce9call_once17h06de6d58802c57e3E, symObjAddr: 0xE04, symBinAddr: 0x342A8, symSize: 0x2C }
  - { offset: 0x94089, size: 0x8, addend: 0x0, symName: __ZN4core5slice3raw14from_raw_parts18precondition_check17hf514951c2bd328a9E, symObjAddr: 0x1838, symBinAddr: 0x34354, symSize: 0x1D8 }
  - { offset: 0x946E7, size: 0x8, addend: 0x0, symName: '__ZN4core6option15Option$LT$T$GT$11map_or_else17h8af9b6db87d7595bE', symObjAddr: 0x1C48, symBinAddr: 0x3452C, symSize: 0xCC }
  - { offset: 0x94792, size: 0x8, addend: 0x0, symName: '__ZN4core6result19Result$LT$T$C$E$GT$6expect17ha7afa9412acfe607E', symObjAddr: 0x299C, symBinAddr: 0x345F8, symSize: 0x78 }
  - { offset: 0x94B03, size: 0x8, addend: 0x0, symName: '__ZN77_$LT$alloc..raw_vec..RawVec$LT$T$C$A$GT$$u20$as$u20$core..ops..drop..Drop$GT$4drop17h681c740318c63e3bE', symObjAddr: 0x2D5C, symBinAddr: 0x34848, symSize: 0x34 }
  - { offset: 0x94C1B, size: 0x8, addend: 0x0, symName: '__ZN5alloc3str56_$LT$impl$u20$alloc..borrow..ToOwned$u20$for$u20$str$GT$8to_owned17h1411e51c2a4a12a5E', symObjAddr: 0x28B0, symBinAddr: 0x347F8, symSize: 0x50 }
  - { offset: 0x951EA, size: 0x8, addend: 0x0, symName: __ZN4core4char7methods25encode_utf8_raw_unchecked17ha613de394cf976bfE, symObjAddr: 0x2510, symBinAddr: 0x34670, symSize: 0x188 }
  - { offset: 0x959D4, size: 0x8, addend: 0x0, symName: '__ZN4core3ptr9const_ptr33_$LT$impl$u20$$BP$const$u20$T$GT$20offset_from_unsigned18precondition_check17ha40d4d292f86cbe3E', symObjAddr: 0x14E8, symBinAddr: 0x3487C, symSize: 0xAC }
  - { offset: 0x960B6, size: 0x8, addend: 0x0, symName: '__ZN5alloc3fmt6format28_$u7b$$u7b$closure$u7d$$u7d$17h36f7efe0f9257168E', symObjAddr: 0x1DA8, symBinAddr: 0x34928, symSize: 0x48 }
  - { offset: 0x96BA3, size: 0x8, addend: 0x0, symName: '__ZN132_$LT$alloc..vec..Vec$LT$T$C$A$GT$$u20$as$u20$alloc..vec..spec_extend..SpecExtend$LT$$RF$T$C$core..slice..iter..Iter$LT$T$GT$$GT$$GT$11spec_extend17h06411ae6adac8cddE', symObjAddr: 0xE8, symBinAddr: 0x34970, symSize: 0xA4 }
  - { offset: 0x96E24, size: 0x8, addend: 0x0, symName: '__ZN70_$LT$alloc..vec..Vec$LT$T$C$A$GT$$u20$as$u20$core..ops..drop..Drop$GT$4drop17h8e60aa1d4024dfc7E', symObjAddr: 0x3ED4, symBinAddr: 0x34B88, symSize: 0x24 }
  - { offset: 0x97265, size: 0x8, addend: 0x0, symName: '__ZN5alloc3vec16Vec$LT$T$C$A$GT$15append_elements17h70600ba50f825780E', symObjAddr: 0x3734, symBinAddr: 0x34A14, symSize: 0xD4 }
  - { offset: 0x97527, size: 0x8, addend: 0x0, symName: '__ZN5alloc3vec16Vec$LT$T$C$A$GT$7reserve17h6703b2d141f0a2e8E', symObjAddr: 0x3958, symBinAddr: 0x34AE8, symSize: 0xA0 }
  - { offset: 0x9782B, size: 0x8, addend: 0x0, symName: '__ZN4core3ptr9const_ptr33_$LT$impl$u20$$BP$const$u20$T$GT$20offset_from_unsigned18precondition_check17hc55cc2fb5c3e4785E', symObjAddr: 0x1EB0, symBinAddr: 0x35070, symSize: 0xAC }
  - { offset: 0x9789B, size: 0x8, addend: 0x0, symName: __ZN4core3ptr11write_bytes18precondition_check17h72888c3f1e715683E, symObjAddr: 0x1090, symBinAddr: 0x34BAC, symSize: 0x16C }
  - { offset: 0x979EF, size: 0x8, addend: 0x0, symName: __ZN4core3ptr19copy_nonoverlapping18precondition_check17h3af7d06afb44a94fE, symObjAddr: 0x11FC, symBinAddr: 0x34D18, symSize: 0x358 }
  - { offset: 0x98181, size: 0x8, addend: 0x0, symName: __ZN4core4hint16assert_unchecked18precondition_check17h0f31dbdda1d18fa0E, symObjAddr: 0x25F4, symBinAddr: 0x3511C, symSize: 0xA4 }
  - { offset: 0x99BBB, size: 0x8, addend: 0x0, symName: __ZN4core5alloc6layout6Layout25from_size_align_unchecked18precondition_check17h034a156e432e2099E, symObjAddr: 0x1B74, symBinAddr: 0x351C0, symSize: 0xBC }
  - { offset: 0x99D27, size: 0x8, addend: 0x0, symName: __ZN4core5slice3raw14from_raw_parts18precondition_check17h663b895c29c77946E, symObjAddr: 0x247C, symBinAddr: 0x353A4, symSize: 0x1D8 }
  - { offset: 0x99F8B, size: 0x8, addend: 0x0, symName: __ZN4core9ub_checks23maybe_is_nonoverlapping7runtime17ha6123c0b17f3f34fE, symObjAddr: 0x2B78, symBinAddr: 0x3557C, symSize: 0xD8 }
  - { offset: 0x9A39F, size: 0x8, addend: 0x0, symName: '__ZN5alloc7raw_vec20RawVecInner$LT$A$GT$7reserve21do_reserve_and_handle17hcb30d90b2d0d689cE', symObjAddr: 0x3770, symBinAddr: 0xD7054, symSize: 0x68 }
  - { offset: 0x9A46A, size: 0x8, addend: 0x0, symName: '__ZN77_$LT$alloc..raw_vec..RawVec$LT$T$C$A$GT$$u20$as$u20$core..ops..drop..Drop$GT$4drop17h89382c639fdcb714E', symObjAddr: 0x38C0, symBinAddr: 0x35E08, symSize: 0x30 }
  - { offset: 0x9A855, size: 0x8, addend: 0x0, symName: __ZN4core5alloc6layout6Layout6repeat17hb8e74a1daf607864E, symObjAddr: 0x1C48, symBinAddr: 0x3527C, symSize: 0x128 }
  - { offset: 0x9AB72, size: 0x8, addend: 0x0, symName: '__ZN5alloc7raw_vec20RawVecInner$LT$A$GT$10deallocate17h6338a489962b713cE', symObjAddr: 0x2D38, symBinAddr: 0x35654, symSize: 0x70 }
  - { offset: 0x9AD0E, size: 0x8, addend: 0x0, symName: '__ZN5alloc7raw_vec20RawVecInner$LT$A$GT$11finish_grow17h08cb2f57fa68502bE', symObjAddr: 0x2DA8, symBinAddr: 0xD6DD0, symSize: 0x284 }
  - { offset: 0x9B03A, size: 0x8, addend: 0x0, symName: '__ZN5alloc7raw_vec20RawVecInner$LT$A$GT$14current_memory17ha7c1d29676646223E', symObjAddr: 0x302C, symBinAddr: 0x356C4, symSize: 0x10C }
  - { offset: 0x9B1DB, size: 0x8, addend: 0x0, symName: '__ZN5alloc7raw_vec20RawVecInner$LT$A$GT$14grow_amortized17hcfbaa53dafa5837bE', symObjAddr: 0x3138, symBinAddr: 0x357D0, symSize: 0x2CC }
  - { offset: 0x9B647, size: 0x8, addend: 0x0, symName: '__ZN5alloc7raw_vec20RawVecInner$LT$A$GT$15try_allocate_in17hc4fcb902b683920bE', symObjAddr: 0x3404, symBinAddr: 0x35A9C, symSize: 0x27C }
  - { offset: 0x9B8AF, size: 0x8, addend: 0x0, symName: '__ZN5alloc7raw_vec20RawVecInner$LT$A$GT$16with_capacity_in17h6b7f56ce6cd3d7e9E', symObjAddr: 0x3680, symBinAddr: 0x35D18, symSize: 0xF0 }
  - { offset: 0x9BE3D, size: 0x8, addend: 0x0, symName: '__ZN4core3ptr8non_null16NonNull$LT$T$GT$13new_unchecked18precondition_check17h6988ec99243a29d7E', symObjAddr: 0x1A44, symBinAddr: 0x35F88, symSize: 0xA4 }
  - { offset: 0x9C0FF, size: 0x8, addend: 0x0, symName: '__ZN4core3ptr42drop_in_place$LT$alloc..string..String$GT$17h96eaf1d783f0e21cE', symObjAddr: 0x16A8, symBinAddr: 0x35EE4, symSize: 0x24 }
  - { offset: 0x9C12E, size: 0x8, addend: 0x0, symName: '__ZN4core3ptr46drop_in_place$LT$alloc..vec..Vec$LT$u8$GT$$GT$17hca791a728730e727E', symObjAddr: 0x16F0, symBinAddr: 0x35F08, symSize: 0x5C }
  - { offset: 0x9C15D, size: 0x8, addend: 0x0, symName: '__ZN4core3ptr53drop_in_place$LT$alloc..raw_vec..RawVec$LT$u8$GT$$GT$17h55c4185e22341d98E', symObjAddr: 0x1770, symBinAddr: 0x35F64, symSize: 0x24 }
  - { offset: 0x9CB40, size: 0x8, addend: 0x0, symName: '__ZN4core3num23_$LT$impl$u20$usize$GT$13unchecked_mul18precondition_check17h637fe9f1cd58d6edE', symObjAddr: 0xDE4, symBinAddr: 0x35E38, symSize: 0xAC }
  - { offset: 0x9CFF8, size: 0x8, addend: 0x0, symName: '__ZN4core3ptr8non_null16NonNull$LT$T$GT$20offset_from_unsigned17h551c12392ede639bE', symObjAddr: 0x1AE8, symBinAddr: 0x3602C, symSize: 0x7C }
  - { offset: 0x9D196, size: 0x8, addend: 0x0, symName: '__ZN63_$LT$alloc..alloc..Global$u20$as$u20$core..alloc..Allocator$GT$10deallocate17h8801bc9bf55f666dE', symObjAddr: 0x29AC, symBinAddr: 0x36594, symSize: 0x58 }
  - { offset: 0x9D222, size: 0x8, addend: 0x0, symName: '__ZN63_$LT$alloc..alloc..Global$u20$as$u20$core..alloc..Allocator$GT$15allocate_zeroed17hd3b8ef9ba9565f2cE', symObjAddr: 0x2A04, symBinAddr: 0x365EC, symSize: 0x34 }
  - { offset: 0x9D25F, size: 0x8, addend: 0x0, symName: '__ZN63_$LT$alloc..alloc..Global$u20$as$u20$core..alloc..Allocator$GT$4grow17hcca7740405fad156E', symObjAddr: 0x2A38, symBinAddr: 0x36620, symSize: 0x44 }
  - { offset: 0x9D2BA, size: 0x8, addend: 0x0, symName: '__ZN63_$LT$alloc..alloc..Global$u20$as$u20$core..alloc..Allocator$GT$8allocate17hac2ae2d755e0fed5E', symObjAddr: 0x2A7C, symBinAddr: 0x36664, symSize: 0x34 }
  - { offset: 0x9D593, size: 0x8, addend: 0x0, symName: __ZN5alloc5alloc6Global10alloc_impl17h1ac9c516ad46bb1dE, symObjAddr: 0x23DC, symBinAddr: 0x360A8, symSize: 0x198 }
  - { offset: 0x9DA3A, size: 0x8, addend: 0x0, symName: __ZN5alloc5alloc6Global9grow_impl17h2d76d7559c3c3777E, symObjAddr: 0x2574, symBinAddr: 0x36240, symSize: 0x354 }
  - { offset: 0x9E02A, size: 0x8, addend: 0x0, symName: '__ZN73_$LT$$u5b$A$u5d$$u20$as$u20$core..slice..cmp..SlicePartialEq$LT$B$GT$$GT$5equal17hdde8646e97ab0086E', symObjAddr: 0xF1C, symBinAddr: 0x36698, symSize: 0x88 }
  - { offset: 0x9ECCB, size: 0x8, addend: 0x0, symName: '__ZN4core3fmt2rt38_$LT$impl$u20$core..fmt..Arguments$GT$6new_v117h5a3d1513c083e823E', symObjAddr: 0x2774, symBinAddr: 0x36720, symSize: 0x54 }
  - { offset: 0x9EDE0, size: 0x8, addend: 0x0, symName: __ZN4core3cmp3Ord3max17h10e528a05dcd1f31E, symObjAddr: 0x4, symBinAddr: 0x36774, symSize: 0x80 }
  - { offset: 0x9EED7, size: 0x8, addend: 0x0, symName: '__ZN44_$LT$$RF$T$u20$as$u20$core..fmt..Display$GT$3fmt17hbf78149e6133de26E', symObjAddr: 0x0, symBinAddr: 0x367F4, symSize: 0x3C }
  - { offset: 0x9EEF3, size: 0x8, addend: 0x0, symName: '__ZN44_$LT$$RF$T$u20$as$u20$core..fmt..Display$GT$3fmt17hbf78149e6133de26E', symObjAddr: 0x0, symBinAddr: 0x367F4, symSize: 0x3C }
  - { offset: 0x9F506, size: 0x8, addend: 0x0, symName: '__ZN4core3fmt2rt38_$LT$impl$u20$core..fmt..Arguments$GT$6new_v117h57fb7d7da75332acE', symObjAddr: 0xBC, symBinAddr: 0x36830, symSize: 0x50 }
  - { offset: 0x9F56A, size: 0x8, addend: 0x0, symName: '__ZN4core3fmt2rt38_$LT$impl$u20$core..fmt..Arguments$GT$6new_v117hc660277d8aa44ddeE', symObjAddr: 0x10C, symBinAddr: 0x36880, symSize: 0x50 }
  - { offset: 0x9F59A, size: 0x8, addend: 0x0, symName: '__ZN4core3fmt2rt38_$LT$impl$u20$core..fmt..Arguments$GT$9new_const17h6fd0cbcb0466545fE', symObjAddr: 0x15C, symBinAddr: 0x368D0, symSize: 0x48 }
  - { offset: 0x9F656, size: 0x8, addend: 0x0, symName: __ZN4core3fmt2rt8Argument11new_display17hb908dc68c55f3672E, symObjAddr: 0x1D0, symBinAddr: 0x36918, symSize: 0x2C }
  - { offset: 0x9F68E, size: 0x8, addend: 0x0, symName: __ZN4core3fmt2rt8Argument11new_display17hec599d8f8d42dac8E, symObjAddr: 0x1FC, symBinAddr: 0x36944, symSize: 0x2C }
  - { offset: 0x9FD1A, size: 0x8, addend: 0x0, symName: __ZN4core3ptr19copy_nonoverlapping18precondition_check17hafcec60a0b617638E, symObjAddr: 0x5E8, symBinAddr: 0x36970, symSize: 0x358 }
  - { offset: 0xA0E0C, size: 0x8, addend: 0x0, symName: '__ZN5alloc7raw_vec20RawVecInner$LT$A$GT$16with_capacity_in17hefe6ff0ebc7991d0E', symObjAddr: 0x1C78, symBinAddr: 0x36CC8, symSize: 0xF0 }
  - { offset: 0xA1A8F, size: 0x8, addend: 0x0, symName: __ZN4core4hint16assert_unchecked18precondition_check17h19dea59a5bc61a9dE, symObjAddr: 0x1424, symBinAddr: 0x36DB8, symSize: 0xA4 }
  - { offset: 0xA1B28, size: 0x8, addend: 0x0, symName: __ZN4core9ub_checks23maybe_is_nonoverlapping7runtime17h667bc442fe73bbbaE, symObjAddr: 0x2A24, symBinAddr: 0x36E5C, symSize: 0xD8 }
  - { offset: 0xA220E, size: 0x8, addend: 0x0, symName: '__ZN5alloc3vec16Vec$LT$T$C$A$GT$7set_len18precondition_check17hb294c5d10f4442fcE', symObjAddr: 0x329C, symBinAddr: 0x36F34, symSize: 0xAC }
  - { offset: 0xA228D, size: 0x8, addend: 0x0, symName: '__ZN87_$LT$T$u20$as$u20$alloc..slice..$LT$impl$u20$$u5b$T$u5d$$GT$..to_vec_in..ConvertVec$GT$6to_vec17h1a7f3cf57237fb2bE', symObjAddr: 0x45D8, symBinAddr: 0x36FE0, symSize: 0xFC }
  - { offset: 0xA29E3, size: 0x8, addend: 0x0, symName: '__ZN280_$LT$alloc..collections..btree..node..Handle$LT$alloc..collections..btree..node..NodeRef$LT$alloc..collections..btree..node..marker..Dying$C$K$C$V$C$NodeType$GT$$C$alloc..collections..btree..node..marker..KV$GT$..drop_key_val..Dropper$LT$T$GT$$u20$as$u20$core..ops..drop..Drop$GT$4drop17h48b3cef4e6d2a048E', symObjAddr: 0x0, symBinAddr: 0x370DC, symSize: 0x1C }
  - { offset: 0xA85CC, size: 0x8, addend: 0x0, symName: '__ZN280_$LT$alloc..collections..btree..node..Handle$LT$alloc..collections..btree..node..NodeRef$LT$alloc..collections..btree..node..marker..Dying$C$K$C$V$C$NodeType$GT$$C$alloc..collections..btree..node..marker..KV$GT$..drop_key_val..Dropper$LT$T$GT$$u20$as$u20$core..ops..drop..Drop$GT$4drop17h48b3cef4e6d2a048E', symObjAddr: 0x0, symBinAddr: 0x370DC, symSize: 0x1C }
  - { offset: 0xAA938, size: 0x8, addend: 0x0, symName: '__ZN5alloc11collections5btree4node127NodeRef$LT$alloc..collections..btree..node..marker..Owned$C$K$C$V$C$alloc..collections..btree..node..marker..LeafOrInternal$GT$19push_internal_level28_$u7b$$u7b$closure$u7d$$u7d$17h9a3bde652ad25641E', symObjAddr: 0x12F8, symBinAddr: 0x383D4, symSize: 0x34 }
  - { offset: 0xAA991, size: 0x8, addend: 0x0, symName: '__ZN5alloc11collections5btree4node127NodeRef$LT$alloc..collections..btree..node..marker..Owned$C$K$C$V$C$alloc..collections..btree..node..marker..LeafOrInternal$GT$19push_internal_level28_$u7b$$u7b$closure$u7d$$u7d$17hcba98ff7f0c95f63E', symObjAddr: 0x132C, symBinAddr: 0x38408, symSize: 0x34 }
  - { offset: 0xAA9EC, size: 0x8, addend: 0x0, symName: __ZN5alloc11collections5btree4node12slice_insert17h709a8f1b39ebf1d7E, symObjAddr: 0x1360, symBinAddr: 0x3843C, symSize: 0x114 }
  - { offset: 0xAAB52, size: 0x8, addend: 0x0, symName: __ZN5alloc11collections5btree4node12slice_insert17hbffad9d12f50090aE, symObjAddr: 0x1474, symBinAddr: 0x38550, symSize: 0x114 }
  - { offset: 0xAACB8, size: 0x8, addend: 0x0, symName: __ZN5alloc11collections5btree4node12slice_insert17hc753b6bfb26aabecE, symObjAddr: 0x1588, symBinAddr: 0x38664, symSize: 0x11C }
  - { offset: 0xAAE20, size: 0x8, addend: 0x0, symName: __ZN5alloc11collections5btree4node12slice_insert17hebfb698daaa1dffcE, symObjAddr: 0x16A4, symBinAddr: 0x38780, symSize: 0x114 }
  - { offset: 0xAAF86, size: 0x8, addend: 0x0, symName: __ZN5alloc11collections5btree4node13move_to_slice17h19444ce1510b66ceE, symObjAddr: 0x17B8, symBinAddr: 0x38894, symSize: 0xB0 }
  - { offset: 0xAB032, size: 0x8, addend: 0x0, symName: __ZN5alloc11collections5btree4node13move_to_slice17h294a6f7d5ddfb335E, symObjAddr: 0x1868, symBinAddr: 0x38944, symSize: 0xB0 }
  - { offset: 0xAB0DE, size: 0x8, addend: 0x0, symName: __ZN5alloc11collections5btree4node13move_to_slice17hac5aec93c7ae0744E, symObjAddr: 0x1918, symBinAddr: 0x389F4, symSize: 0xB0 }
  - { offset: 0xAB18A, size: 0x8, addend: 0x0, symName: __ZN5alloc11collections5btree4node13move_to_slice17hbf4f5ec204994242E, symObjAddr: 0x19C8, symBinAddr: 0x38AA4, symSize: 0xB4 }
  - { offset: 0xAEF1A, size: 0x8, addend: 0x0, symName: '__ZN5alloc11collections5btree4node115NodeRef$LT$alloc..collections..btree..node..marker..Mut$C$K$C$V$C$alloc..collections..btree..node..marker..Leaf$GT$16push_with_handle17h471765d1c643cb52E', symObjAddr: 0x1C, symBinAddr: 0x370F8, symSize: 0x1C8 }
  - { offset: 0xAF414, size: 0x8, addend: 0x0, symName: '__ZN5alloc11collections5btree4node115NodeRef$LT$alloc..collections..btree..node..marker..Mut$C$K$C$V$C$alloc..collections..btree..node..marker..Leaf$GT$16push_with_handle17ha5d1d5a7197293cbE', symObjAddr: 0x1E4, symBinAddr: 0x372C0, symSize: 0x1B8 }
  - { offset: 0xAF7EF, size: 0x8, addend: 0x0, symName: '__ZN5alloc11collections5btree4node117NodeRef$LT$alloc..collections..btree..node..marker..Owned$C$K$C$V$C$alloc..collections..btree..node..marker..Leaf$GT$13from_new_leaf17h66b9c92b0316a034E', symObjAddr: 0x39C, symBinAddr: 0x37478, symSize: 0x58 }
  - { offset: 0xAF90B, size: 0x8, addend: 0x0, symName: '__ZN5alloc11collections5btree4node117NodeRef$LT$alloc..collections..btree..node..marker..Owned$C$K$C$V$C$alloc..collections..btree..node..marker..Leaf$GT$13from_new_leaf17h776958c5c3a221ecE', symObjAddr: 0x3F4, symBinAddr: 0x374D0, symSize: 0x58 }
  - { offset: 0xAFA66, size: 0x8, addend: 0x0, symName: '__ZN5alloc11collections5btree4node119NodeRef$LT$alloc..collections..btree..node..marker..Mut$C$K$C$V$C$alloc..collections..btree..node..marker..Internal$GT$30correct_childrens_parent_links17h08e769c5e1f143d8E', symObjAddr: 0x44C, symBinAddr: 0x37528, symSize: 0xB4 }
  - { offset: 0xAFBAA, size: 0x8, addend: 0x0, symName: '__ZN5alloc11collections5btree4node119NodeRef$LT$alloc..collections..btree..node..marker..Mut$C$K$C$V$C$alloc..collections..btree..node..marker..Internal$GT$30correct_childrens_parent_links17h482e8eb3ab06da9cE', symObjAddr: 0x500, symBinAddr: 0x375DC, symSize: 0xB4 }
  - { offset: 0xAFCE0, size: 0x8, addend: 0x0, symName: '__ZN5alloc11collections5btree4node119NodeRef$LT$alloc..collections..btree..node..marker..Mut$C$K$C$V$C$alloc..collections..btree..node..marker..Internal$GT$30correct_childrens_parent_links17h7382b4053a8b23d4E', symObjAddr: 0x5B4, symBinAddr: 0x37690, symSize: 0xB4 }
  - { offset: 0xAFE16, size: 0x8, addend: 0x0, symName: '__ZN5alloc11collections5btree4node119NodeRef$LT$alloc..collections..btree..node..marker..Mut$C$K$C$V$C$alloc..collections..btree..node..marker..Internal$GT$30correct_childrens_parent_links17ha13be70fc33e456eE', symObjAddr: 0x668, symBinAddr: 0x37744, symSize: 0xB4 }
  - { offset: 0xB021C, size: 0x8, addend: 0x0, symName: '__ZN5alloc11collections5btree4node119NodeRef$LT$alloc..collections..btree..node..marker..Mut$C$K$C$V$C$alloc..collections..btree..node..marker..Internal$GT$4push17h092037a989a449d7E', symObjAddr: 0x71C, symBinAddr: 0x377F8, symSize: 0x2B4 }
  - { offset: 0xB09B4, size: 0x8, addend: 0x0, symName: '__ZN5alloc11collections5btree4node119NodeRef$LT$alloc..collections..btree..node..marker..Mut$C$K$C$V$C$alloc..collections..btree..node..marker..Internal$GT$4push17hf96d5da883c2fdf9E', symObjAddr: 0x9D0, symBinAddr: 0x37AAC, symSize: 0x2C0 }
  - { offset: 0xB0E8E, size: 0x8, addend: 0x0, symName: '__ZN5alloc11collections5btree4node121NodeRef$LT$alloc..collections..btree..node..marker..Owned$C$K$C$V$C$alloc..collections..btree..node..marker..Internal$GT$12new_internal17h027a7de089bdb546E', symObjAddr: 0xC90, symBinAddr: 0x37D6C, symSize: 0xF8 }
  - { offset: 0xB0FB5, size: 0x8, addend: 0x0, symName: '__ZN5alloc11collections5btree4node121NodeRef$LT$alloc..collections..btree..node..marker..Owned$C$K$C$V$C$alloc..collections..btree..node..marker..Internal$GT$12new_internal17h2f1e9b85a9628005E', symObjAddr: 0xD88, symBinAddr: 0x37E64, symSize: 0xF8 }
  - { offset: 0xB11D7, size: 0x8, addend: 0x0, symName: '__ZN5alloc11collections5btree4node121NodeRef$LT$alloc..collections..btree..node..marker..Owned$C$K$C$V$C$alloc..collections..btree..node..marker..Internal$GT$17from_new_internal17h36566cdd726b30dfE', symObjAddr: 0xE80, symBinAddr: 0x37F5C, symSize: 0xC8 }
  - { offset: 0xB14F0, size: 0x8, addend: 0x0, symName: '__ZN5alloc11collections5btree4node121NodeRef$LT$alloc..collections..btree..node..marker..Owned$C$K$C$V$C$alloc..collections..btree..node..marker..Internal$GT$17from_new_internal17ha27c60b954a5735fE', symObjAddr: 0xF48, symBinAddr: 0x38024, symSize: 0xC8 }
  - { offset: 0xB179E, size: 0x8, addend: 0x0, symName: '__ZN5alloc11collections5btree4node127NodeRef$LT$alloc..collections..btree..node..marker..Dying$C$K$C$V$C$alloc..collections..btree..node..marker..LeafOrInternal$GT$21deallocate_and_ascend17h06a66af578386558E', symObjAddr: 0x1010, symBinAddr: 0x380EC, symSize: 0x174 }
  - { offset: 0xB1A19, size: 0x8, addend: 0x0, symName: '__ZN5alloc11collections5btree4node127NodeRef$LT$alloc..collections..btree..node..marker..Dying$C$K$C$V$C$alloc..collections..btree..node..marker..LeafOrInternal$GT$21deallocate_and_ascend17h536c9b60aa914b99E', symObjAddr: 0x1184, symBinAddr: 0x38260, symSize: 0x174 }
  - { offset: 0xB1D64, size: 0x8, addend: 0x0, symName: '__ZN5alloc11collections5btree4node171Handle$LT$alloc..collections..btree..node..NodeRef$LT$alloc..collections..btree..node..marker..Mut$C$K$C$V$C$NodeType$GT$$C$alloc..collections..btree..node..marker..KV$GT$12into_val_mut17h1636adc373cc7eecE', symObjAddr: 0x1A7C, symBinAddr: 0x38B58, symSize: 0x8C }
  - { offset: 0xB1ED0, size: 0x8, addend: 0x0, symName: '__ZN5alloc11collections5btree4node171Handle$LT$alloc..collections..btree..node..NodeRef$LT$alloc..collections..btree..node..marker..Mut$C$K$C$V$C$NodeType$GT$$C$alloc..collections..btree..node..marker..KV$GT$12into_val_mut17had291c2fbfeee42aE', symObjAddr: 0x1B08, symBinAddr: 0x38BE4, symSize: 0x8C }
  - { offset: 0xB2284, size: 0x8, addend: 0x0, symName: '__ZN5alloc11collections5btree4node171Handle$LT$alloc..collections..btree..node..NodeRef$LT$alloc..collections..btree..node..marker..Mut$C$K$C$V$C$NodeType$GT$$C$alloc..collections..btree..node..marker..KV$GT$15split_leaf_data17h497266e8e2d3613fE', symObjAddr: 0x1B94, symBinAddr: 0x38C70, symSize: 0x3D8 }
  - { offset: 0xB2CFF, size: 0x8, addend: 0x0, symName: '__ZN5alloc11collections5btree4node171Handle$LT$alloc..collections..btree..node..NodeRef$LT$alloc..collections..btree..node..marker..Mut$C$K$C$V$C$NodeType$GT$$C$alloc..collections..btree..node..marker..KV$GT$15split_leaf_data17h49bbb9d3fafa207fE', symObjAddr: 0x1F6C, symBinAddr: 0x39048, symSize: 0x3C8 }
  - { offset: 0xB376A, size: 0x8, addend: 0x0, symName: '__ZN5alloc11collections5btree4node171Handle$LT$alloc..collections..btree..node..NodeRef$LT$alloc..collections..btree..node..marker..Mut$C$K$C$V$C$NodeType$GT$$C$alloc..collections..btree..node..marker..KV$GT$15split_leaf_data17h5232792baa0b529eE', symObjAddr: 0x2334, symBinAddr: 0x39410, symSize: 0x3C8 }
  - { offset: 0xB420D, size: 0x8, addend: 0x0, symName: '__ZN5alloc11collections5btree4node171Handle$LT$alloc..collections..btree..node..NodeRef$LT$alloc..collections..btree..node..marker..Mut$C$K$C$V$C$NodeType$GT$$C$alloc..collections..btree..node..marker..KV$GT$15split_leaf_data17h6e6e83e3b849eea3E', symObjAddr: 0x26FC, symBinAddr: 0x397D8, symSize: 0x3D8 }
  - { offset: 0xB4B2C, size: 0x8, addend: 0x0, symName: '__ZN5alloc11collections5btree4node171Handle$LT$alloc..collections..btree..node..NodeRef$LT$alloc..collections..btree..node..marker..Mut$C$K$C$V$C$NodeType$GT$$C$alloc..collections..btree..node..marker..KV$GT$6kv_mut17h47a3be0d0bba61b8E', symObjAddr: 0x2AD4, symBinAddr: 0x39BB0, symSize: 0xE4 }
  - { offset: 0xB4DB9, size: 0x8, addend: 0x0, symName: '__ZN5alloc11collections5btree4node171Handle$LT$alloc..collections..btree..node..NodeRef$LT$alloc..collections..btree..node..marker..Mut$C$K$C$V$C$NodeType$GT$$C$alloc..collections..btree..node..marker..KV$GT$6kv_mut17hc04a70b73c80fae0E', symObjAddr: 0x2BB8, symBinAddr: 0x39C94, symSize: 0xF4 }
  - { offset: 0xB5018, size: 0x8, addend: 0x0, symName: '__ZN5alloc11collections5btree4node173Handle$LT$alloc..collections..btree..node..NodeRef$LT$alloc..collections..btree..node..marker..Dying$C$K$C$V$C$NodeType$GT$$C$alloc..collections..btree..node..marker..KV$GT$12drop_key_val17h28586b201041200eE', symObjAddr: 0x2CAC, symBinAddr: 0x39D88, symSize: 0xE4 }
  - { offset: 0xB529E, size: 0x8, addend: 0x0, symName: '__ZN5alloc11collections5btree4node173Handle$LT$alloc..collections..btree..node..NodeRef$LT$alloc..collections..btree..node..marker..Dying$C$K$C$V$C$NodeType$GT$$C$alloc..collections..btree..node..marker..KV$GT$12drop_key_val17he8be513a74832c8fE', symObjAddr: 0x2D90, symBinAddr: 0x39E6C, symSize: 0x104 }
  - { offset: 0xB55BA, size: 0x8, addend: 0x0, symName: '__ZN5alloc11collections5btree4node173Handle$LT$alloc..collections..btree..node..NodeRef$LT$alloc..collections..btree..node..marker..Immut$C$K$C$V$C$NodeType$GT$$C$alloc..collections..btree..node..marker..KV$GT$7into_kv17h8e65c3722adce521E', symObjAddr: 0x2E94, symBinAddr: 0x39F70, symSize: 0xE4 }
  - { offset: 0xB58F0, size: 0x8, addend: 0x0, symName: '__ZN5alloc11collections5btree4node173Handle$LT$alloc..collections..btree..node..NodeRef$LT$alloc..collections..btree..node..marker..Immut$C$K$C$V$C$NodeType$GT$$C$alloc..collections..btree..node..marker..KV$GT$7into_kv17he7403b10a933f461E', symObjAddr: 0x2F78, symBinAddr: 0x3A054, symSize: 0xD8 }
  - { offset: 0xB5BB6, size: 0x8, addend: 0x0, symName: '__ZN5alloc11collections5btree4node180Handle$LT$alloc..collections..btree..node..NodeRef$LT$BorrowType$C$K$C$V$C$alloc..collections..btree..node..marker..Internal$GT$$C$alloc..collections..btree..node..marker..Edge$GT$7descend17h0c8c128e2e59a200E', symObjAddr: 0x3050, symBinAddr: 0x3A12C, symSize: 0x94 }
  - { offset: 0xB5DAF, size: 0x8, addend: 0x0, symName: '__ZN5alloc11collections5btree4node180Handle$LT$alloc..collections..btree..node..NodeRef$LT$BorrowType$C$K$C$V$C$alloc..collections..btree..node..marker..Internal$GT$$C$alloc..collections..btree..node..marker..Edge$GT$7descend17h12d3a49a87ba6354E', symObjAddr: 0x30E4, symBinAddr: 0x3A1C0, symSize: 0x94 }
  - { offset: 0xB5F70, size: 0x8, addend: 0x0, symName: '__ZN5alloc11collections5btree4node180Handle$LT$alloc..collections..btree..node..NodeRef$LT$BorrowType$C$K$C$V$C$alloc..collections..btree..node..marker..Internal$GT$$C$alloc..collections..btree..node..marker..Edge$GT$7descend17h501df7a7527b5764E', symObjAddr: 0x3178, symBinAddr: 0x3A254, symSize: 0x94 }
  - { offset: 0xB6124, size: 0x8, addend: 0x0, symName: '__ZN5alloc11collections5btree4node180Handle$LT$alloc..collections..btree..node..NodeRef$LT$BorrowType$C$K$C$V$C$alloc..collections..btree..node..marker..Internal$GT$$C$alloc..collections..btree..node..marker..Edge$GT$7descend17h787be9b5a6b1c668E', symObjAddr: 0x320C, symBinAddr: 0x3A2E8, symSize: 0x94 }
  - { offset: 0xB62D8, size: 0x8, addend: 0x0, symName: '__ZN5alloc11collections5btree4node180Handle$LT$alloc..collections..btree..node..NodeRef$LT$BorrowType$C$K$C$V$C$alloc..collections..btree..node..marker..Internal$GT$$C$alloc..collections..btree..node..marker..Edge$GT$7descend17h99b0efab23f9dea5E', symObjAddr: 0x32A0, symBinAddr: 0x3A37C, symSize: 0x94 }
  - { offset: 0xB6499, size: 0x8, addend: 0x0, symName: '__ZN5alloc11collections5btree4node180Handle$LT$alloc..collections..btree..node..NodeRef$LT$BorrowType$C$K$C$V$C$alloc..collections..btree..node..marker..Internal$GT$$C$alloc..collections..btree..node..marker..Edge$GT$7descend17h9a90f799a677d313E', symObjAddr: 0x3334, symBinAddr: 0x3A410, symSize: 0x94 }
  - { offset: 0xB65E7, size: 0x8, addend: 0x0, symName: '__ZN5alloc11collections5btree4node208Handle$LT$alloc..collections..btree..node..NodeRef$LT$alloc..collections..btree..node..marker..Mut$C$K$C$V$C$alloc..collections..btree..node..marker..Leaf$GT$$C$alloc..collections..btree..node..marker..KV$GT$5split17h3bad5df201de3cfeE', symObjAddr: 0x33C8, symBinAddr: 0x3A4A4, symSize: 0x100 }
  - { offset: 0xB667F, size: 0x8, addend: 0x0, symName: '__ZN5alloc11collections5btree4node208Handle$LT$alloc..collections..btree..node..NodeRef$LT$alloc..collections..btree..node..marker..Mut$C$K$C$V$C$alloc..collections..btree..node..marker..Leaf$GT$$C$alloc..collections..btree..node..marker..KV$GT$5split17ha7331c3ccbcdf0f4E', symObjAddr: 0x34C8, symBinAddr: 0x3A5A4, symSize: 0x104 }
  - { offset: 0xB6862, size: 0x8, addend: 0x0, symName: '__ZN5alloc11collections5btree4node210Handle$LT$alloc..collections..btree..node..NodeRef$LT$alloc..collections..btree..node..marker..Mut$C$K$C$V$C$alloc..collections..btree..node..marker..Leaf$GT$$C$alloc..collections..btree..node..marker..Edge$GT$10insert_fit17h9d767f1a8f551256E', symObjAddr: 0x35CC, symBinAddr: 0x3A6A8, symSize: 0x1B4 }
  - { offset: 0xB6C54, size: 0x8, addend: 0x0, symName: '__ZN5alloc11collections5btree4node210Handle$LT$alloc..collections..btree..node..NodeRef$LT$alloc..collections..btree..node..marker..Mut$C$K$C$V$C$alloc..collections..btree..node..marker..Leaf$GT$$C$alloc..collections..btree..node..marker..Edge$GT$10insert_fit17he0b5422cedd1fad9E', symObjAddr: 0x3780, symBinAddr: 0x3A85C, symSize: 0x1B0 }
  - { offset: 0xB6FDE, size: 0x8, addend: 0x0, symName: '__ZN5alloc11collections5btree4node210Handle$LT$alloc..collections..btree..node..NodeRef$LT$alloc..collections..btree..node..marker..Mut$C$K$C$V$C$alloc..collections..btree..node..marker..Leaf$GT$$C$alloc..collections..btree..node..marker..Edge$GT$16insert_recursing17h8f3ffa8e0321bb90E', symObjAddr: 0x3930, symBinAddr: 0x3AA0C, symSize: 0x43C }
  - { offset: 0xB7316, size: 0x8, addend: 0x0, symName: '__ZN5alloc11collections5btree4node210Handle$LT$alloc..collections..btree..node..NodeRef$LT$alloc..collections..btree..node..marker..Mut$C$K$C$V$C$alloc..collections..btree..node..marker..Leaf$GT$$C$alloc..collections..btree..node..marker..Edge$GT$16insert_recursing17hf0ec29248449280aE', symObjAddr: 0x3D6C, symBinAddr: 0x3AE48, symSize: 0x4AC }
  - { offset: 0xB7793, size: 0x8, addend: 0x0, symName: '__ZN5alloc11collections5btree4node210Handle$LT$alloc..collections..btree..node..NodeRef$LT$alloc..collections..btree..node..marker..Mut$C$K$C$V$C$alloc..collections..btree..node..marker..Leaf$GT$$C$alloc..collections..btree..node..marker..Edge$GT$6insert17h46a90aea7bae0c0bE', symObjAddr: 0x4218, symBinAddr: 0x3B2F4, symSize: 0x3E4 }
  - { offset: 0xB7C0C, size: 0x8, addend: 0x0, symName: '__ZN5alloc11collections5btree4node210Handle$LT$alloc..collections..btree..node..NodeRef$LT$alloc..collections..btree..node..marker..Mut$C$K$C$V$C$alloc..collections..btree..node..marker..Leaf$GT$$C$alloc..collections..btree..node..marker..Edge$GT$6insert17h9f740eeb6c100471E', symObjAddr: 0x45FC, symBinAddr: 0x3B6D8, symSize: 0x404 }
  - { offset: 0xB7FF0, size: 0x8, addend: 0x0, symName: '__ZN5alloc11collections5btree4node212Handle$LT$alloc..collections..btree..node..NodeRef$LT$alloc..collections..btree..node..marker..Mut$C$K$C$V$C$alloc..collections..btree..node..marker..Internal$GT$$C$alloc..collections..btree..node..marker..KV$GT$5split17h227285b644abfc79E', symObjAddr: 0x4A00, symBinAddr: 0x3BADC, symSize: 0x2AC }
  - { offset: 0xB84D6, size: 0x8, addend: 0x0, symName: '__ZN5alloc11collections5btree4node212Handle$LT$alloc..collections..btree..node..NodeRef$LT$alloc..collections..btree..node..marker..Mut$C$K$C$V$C$alloc..collections..btree..node..marker..Internal$GT$$C$alloc..collections..btree..node..marker..KV$GT$5split17hbf7b32d74ecaed1eE', symObjAddr: 0x4CAC, symBinAddr: 0x3BD88, symSize: 0x2B0 }
  - { offset: 0xB8A78, size: 0x8, addend: 0x0, symName: '__ZN5alloc11collections5btree4node214Handle$LT$alloc..collections..btree..node..NodeRef$LT$alloc..collections..btree..node..marker..Mut$C$K$C$V$C$alloc..collections..btree..node..marker..Internal$GT$$C$alloc..collections..btree..node..marker..Edge$GT$10insert_fit17h8fbea223cb2d2574E', symObjAddr: 0x4F5C, symBinAddr: 0x3C038, symSize: 0x244 }
  - { offset: 0xB9102, size: 0x8, addend: 0x0, symName: '__ZN5alloc11collections5btree4node214Handle$LT$alloc..collections..btree..node..NodeRef$LT$alloc..collections..btree..node..marker..Mut$C$K$C$V$C$alloc..collections..btree..node..marker..Internal$GT$$C$alloc..collections..btree..node..marker..Edge$GT$10insert_fit17hc03bb0909d0ec1b2E', symObjAddr: 0x51A0, symBinAddr: 0x3C27C, symSize: 0x248 }
  - { offset: 0xB9627, size: 0x8, addend: 0x0, symName: '__ZN5alloc11collections5btree4node214Handle$LT$alloc..collections..btree..node..NodeRef$LT$alloc..collections..btree..node..marker..Mut$C$K$C$V$C$alloc..collections..btree..node..marker..Internal$GT$$C$alloc..collections..btree..node..marker..Edge$GT$19correct_parent_link17h42bc35a5450ebb1bE', symObjAddr: 0x53E8, symBinAddr: 0x3C4C4, symSize: 0x8C }
  - { offset: 0xB97AD, size: 0x8, addend: 0x0, symName: '__ZN5alloc11collections5btree4node214Handle$LT$alloc..collections..btree..node..NodeRef$LT$alloc..collections..btree..node..marker..Mut$C$K$C$V$C$alloc..collections..btree..node..marker..Internal$GT$$C$alloc..collections..btree..node..marker..Edge$GT$19correct_parent_link17h5074bab3517a3d92E', symObjAddr: 0x5474, symBinAddr: 0x3C550, symSize: 0x8C }
  - { offset: 0xB99ED, size: 0x8, addend: 0x0, symName: '__ZN5alloc11collections5btree4node214Handle$LT$alloc..collections..btree..node..NodeRef$LT$alloc..collections..btree..node..marker..Mut$C$K$C$V$C$alloc..collections..btree..node..marker..Internal$GT$$C$alloc..collections..btree..node..marker..Edge$GT$6insert17h18ba74a69f6aaea4E', symObjAddr: 0x5500, symBinAddr: 0x3C5DC, symSize: 0x42C }
  - { offset: 0xB9D4E, size: 0x8, addend: 0x0, symName: '__ZN5alloc11collections5btree4node214Handle$LT$alloc..collections..btree..node..NodeRef$LT$alloc..collections..btree..node..marker..Mut$C$K$C$V$C$alloc..collections..btree..node..marker..Internal$GT$$C$alloc..collections..btree..node..marker..Edge$GT$6insert17h80b47c3609869c36E', symObjAddr: 0x592C, symBinAddr: 0x3CA08, symSize: 0x45C }
  - { offset: 0xBA027, size: 0x8, addend: 0x0, symName: '__ZN5alloc11collections5btree4node21LeafNode$LT$K$C$V$GT$3new17ha399015950115c66E', symObjAddr: 0x5D88, symBinAddr: 0x3CE64, symSize: 0x70 }
  - { offset: 0xBA296, size: 0x8, addend: 0x0, symName: '__ZN5alloc11collections5btree4node21LeafNode$LT$K$C$V$GT$3new17hf6229c893421f364E', symObjAddr: 0x5DF8, symBinAddr: 0x3CED4, symSize: 0x70 }
  - { offset: 0xBA4CF, size: 0x8, addend: 0x0, symName: '__ZN5alloc11collections5btree4node25InternalNode$LT$K$C$V$GT$3new17h3c2a4b405e4d070eE', symObjAddr: 0x5E68, symBinAddr: 0x3CF44, symSize: 0x70 }
  - { offset: 0xBA6EB, size: 0x8, addend: 0x0, symName: '__ZN5alloc11collections5btree4node25InternalNode$LT$K$C$V$GT$3new17hb5b961c1851797e1E', symObjAddr: 0x5ED8, symBinAddr: 0x3CFB4, symSize: 0x70 }
  - { offset: 0xBA998, size: 0x8, addend: 0x0, symName: '__ZN5alloc11collections5btree4node40NodeRef$LT$BorrowType$C$K$C$V$C$Type$GT$6ascend17h100122bd1d673ac1E', symObjAddr: 0x5F48, symBinAddr: 0x3D024, symSize: 0x154 }
  - { offset: 0xBAC4E, size: 0x8, addend: 0x0, symName: '__ZN5alloc11collections5btree4node40NodeRef$LT$BorrowType$C$K$C$V$C$Type$GT$6ascend17h2bb332e4d1400f99E', symObjAddr: 0x609C, symBinAddr: 0x3D178, symSize: 0x154 }
  - { offset: 0xBAEDD, size: 0x8, addend: 0x0, symName: '__ZN5alloc11collections5btree4node40NodeRef$LT$BorrowType$C$K$C$V$C$Type$GT$6ascend17h808b15bf1c1a806dE', symObjAddr: 0x61F0, symBinAddr: 0x3D2CC, symSize: 0x154 }
  - { offset: 0xBB16C, size: 0x8, addend: 0x0, symName: '__ZN5alloc11collections5btree4node40NodeRef$LT$BorrowType$C$K$C$V$C$Type$GT$6ascend17haa734fb6c495fc68E', symObjAddr: 0x6344, symBinAddr: 0x3D420, symSize: 0x154 }
  - { offset: 0xBB3AE, size: 0x8, addend: 0x0, symName: '__ZN5alloc11collections5btree4node76NodeRef$LT$alloc..collections..btree..node..marker..Immut$C$K$C$V$C$Type$GT$4keys17ha7f1df5d55c80409E', symObjAddr: 0x6498, symBinAddr: 0x3D574, symSize: 0xA4 }
  - { offset: 0xBB5B6, size: 0x8, addend: 0x0, symName: '__ZN5alloc11collections5btree4node76NodeRef$LT$alloc..collections..btree..node..marker..Immut$C$K$C$V$C$Type$GT$4keys17he8875fed0c0369a9E', symObjAddr: 0x653C, symBinAddr: 0x3D618, symSize: 0xA8 }
  - { offset: 0xBB89E, size: 0x8, addend: 0x0, symName: '__ZN5alloc11collections5btree6search142_$LT$impl$u20$alloc..collections..btree..node..NodeRef$LT$BorrowType$C$K$C$V$C$alloc..collections..btree..node..marker..LeafOrInternal$GT$$GT$11search_tree17h13ea93b4636ceae5E', symObjAddr: 0x65E4, symBinAddr: 0x3D6C0, symSize: 0x240 }
  - { offset: 0xBBBF3, size: 0x8, addend: 0x0, symName: '__ZN5alloc11collections5btree6search142_$LT$impl$u20$alloc..collections..btree..node..NodeRef$LT$BorrowType$C$K$C$V$C$alloc..collections..btree..node..marker..LeafOrInternal$GT$$GT$11search_tree17h1f1af1e2d57ab6deE', symObjAddr: 0x6824, symBinAddr: 0x3D900, symSize: 0x240 }
  - { offset: 0xBBF48, size: 0x8, addend: 0x0, symName: '__ZN5alloc11collections5btree6search142_$LT$impl$u20$alloc..collections..btree..node..NodeRef$LT$BorrowType$C$K$C$V$C$alloc..collections..btree..node..marker..LeafOrInternal$GT$$GT$11search_tree17h561e0bed5c69b669E', symObjAddr: 0x6A64, symBinAddr: 0x3DB40, symSize: 0x240 }
  - { offset: 0xBC29D, size: 0x8, addend: 0x0, symName: '__ZN5alloc11collections5btree6search142_$LT$impl$u20$alloc..collections..btree..node..NodeRef$LT$BorrowType$C$K$C$V$C$alloc..collections..btree..node..marker..LeafOrInternal$GT$$GT$11search_tree17h8cbc7df03c0208d1E', symObjAddr: 0x6CA4, symBinAddr: 0x3DD80, symSize: 0x240 }
  - { offset: 0xBC589, size: 0x8, addend: 0x0, symName: '__ZN5alloc11collections5btree6search91_$LT$impl$u20$alloc..collections..btree..node..NodeRef$LT$BorrowType$C$K$C$V$C$Type$GT$$GT$14find_key_index17h161a1d22d39f9ed3E', symObjAddr: 0x6EE4, symBinAddr: 0x3DFC0, symSize: 0x1DC }
  - { offset: 0xBC9AB, size: 0x8, addend: 0x0, symName: '__ZN5alloc11collections5btree6search91_$LT$impl$u20$alloc..collections..btree..node..NodeRef$LT$BorrowType$C$K$C$V$C$Type$GT$$GT$14find_key_index17h2c1a75528c295f73E', symObjAddr: 0x70C0, symBinAddr: 0x3E19C, symSize: 0x1DC }
  - { offset: 0xBCDF8, size: 0x8, addend: 0x0, symName: '__ZN5alloc11collections5btree6search91_$LT$impl$u20$alloc..collections..btree..node..NodeRef$LT$BorrowType$C$K$C$V$C$Type$GT$$GT$14find_key_index17h89d727b9f91abe4eE', symObjAddr: 0x729C, symBinAddr: 0x3E378, symSize: 0x1DC }
  - { offset: 0xBD21A, size: 0x8, addend: 0x0, symName: '__ZN5alloc11collections5btree6search91_$LT$impl$u20$alloc..collections..btree..node..NodeRef$LT$BorrowType$C$K$C$V$C$Type$GT$$GT$14find_key_index17hed41cd930bc0f0d9E', symObjAddr: 0x7478, symBinAddr: 0x3E554, symSize: 0x1DC }
  - { offset: 0xBD784, size: 0x8, addend: 0x0, symName: '__ZN5alloc11collections5btree8navigate235_$LT$impl$u20$alloc..collections..btree..node..Handle$LT$alloc..collections..btree..node..NodeRef$LT$BorrowType$C$K$C$V$C$alloc..collections..btree..node..marker..LeafOrInternal$GT$$C$alloc..collections..btree..node..marker..KV$GT$$GT$14next_leaf_edge17h7cbbf62a9f7678cdE', symObjAddr: 0x7654, symBinAddr: 0x3E730, symSize: 0x1F0 }
  - { offset: 0xBDC09, size: 0x8, addend: 0x0, symName: '__ZN5alloc11collections5btree8navigate235_$LT$impl$u20$alloc..collections..btree..node..Handle$LT$alloc..collections..btree..node..NodeRef$LT$BorrowType$C$K$C$V$C$alloc..collections..btree..node..marker..LeafOrInternal$GT$$C$alloc..collections..btree..node..marker..KV$GT$$GT$14next_leaf_edge17hca413b4593e2c118E', symObjAddr: 0x7844, symBinAddr: 0x3E920, symSize: 0x1F0 }
  - { offset: 0xBDF1C, size: 0x8, addend: 0x0, symName: '__ZN5alloc11collections5btree8navigate263_$LT$impl$u20$alloc..collections..btree..node..Handle$LT$alloc..collections..btree..node..NodeRef$LT$alloc..collections..btree..node..marker..Dying$C$K$C$V$C$alloc..collections..btree..node..marker..Leaf$GT$$C$alloc..collections..btree..node..marker..Edge$GT$$GT$16deallocating_end17h7ec3c75d10cd4657E', symObjAddr: 0x7A34, symBinAddr: 0x3EB10, symSize: 0xAC }
  - { offset: 0xBE0C2, size: 0x8, addend: 0x0, symName: '__ZN5alloc11collections5btree8navigate263_$LT$impl$u20$alloc..collections..btree..node..Handle$LT$alloc..collections..btree..node..NodeRef$LT$alloc..collections..btree..node..marker..Dying$C$K$C$V$C$alloc..collections..btree..node..marker..Leaf$GT$$C$alloc..collections..btree..node..marker..Edge$GT$$GT$16deallocating_end17he58769f0ab1b7307E', symObjAddr: 0x7AE0, symBinAddr: 0x3EBBC, symSize: 0xAC }
  - { offset: 0xBE362, size: 0x8, addend: 0x0, symName: '__ZN5alloc11collections5btree8navigate263_$LT$impl$u20$alloc..collections..btree..node..Handle$LT$alloc..collections..btree..node..NodeRef$LT$alloc..collections..btree..node..marker..Dying$C$K$C$V$C$alloc..collections..btree..node..marker..Leaf$GT$$C$alloc..collections..btree..node..marker..Edge$GT$$GT$17deallocating_next17h6e1c4b1d5612e451E', symObjAddr: 0x7B8C, symBinAddr: 0x3EC68, symSize: 0x22C }
  - { offset: 0xBE6C6, size: 0x8, addend: 0x0, symName: '__ZN5alloc11collections5btree8navigate263_$LT$impl$u20$alloc..collections..btree..node..Handle$LT$alloc..collections..btree..node..NodeRef$LT$alloc..collections..btree..node..marker..Dying$C$K$C$V$C$alloc..collections..btree..node..marker..Leaf$GT$$C$alloc..collections..btree..node..marker..Edge$GT$$GT$17deallocating_next17hdbef62c5913dc3bcE', symObjAddr: 0x7DB8, symBinAddr: 0x3EE94, symSize: 0x22C }
  - { offset: 0xC04FD, size: 0x8, addend: 0x0, symName: '__ZN72_$LT$alloc..vec..Vec$LT$T$C$A$GT$$u20$as$u20$core..ops..deref..Deref$GT$5deref17h736e5a306b878cabE', symObjAddr: 0x29EC, symBinAddr: 0x3F62C, symSize: 0x24 }
  - { offset: 0xC0892, size: 0x8, addend: 0x0, symName: '__ZN5alloc3vec16Vec$LT$T$C$A$GT$7set_len18precondition_check17h6707e74641ff997aE', symObjAddr: 0x1E7C, symBinAddr: 0x3F238, symSize: 0xAC }
  - { offset: 0xC0901, size: 0x8, addend: 0x0, symName: '__ZN70_$LT$alloc..vec..Vec$LT$T$C$A$GT$$u20$as$u20$core..ops..drop..Drop$GT$4drop17h06468a8b95f4fbcaE', symObjAddr: 0x28D8, symBinAddr: 0x3F5D0, symSize: 0x38 }
  - { offset: 0xC09B1, size: 0x8, addend: 0x0, symName: '__ZN70_$LT$alloc..vec..Vec$LT$T$C$A$GT$$u20$as$u20$core..ops..drop..Drop$GT$4drop17h9a0f0437e9e604e0E', symObjAddr: 0x296C, symBinAddr: 0x3F608, symSize: 0x24 }
  - { offset: 0xC1255, size: 0x8, addend: 0x0, symName: '__ZN5alloc5slice98_$LT$impl$u20$core..borrow..Borrow$LT$$u5b$T$u5d$$GT$$u20$for$u20$alloc..vec..Vec$LT$T$C$A$GT$$GT$6borrow17he33bda62ff521c8cE', symObjAddr: 0x24E4, symBinAddr: 0x3F560, symSize: 0x70 }
  - { offset: 0xC18E9, size: 0x8, addend: 0x0, symName: '__ZN5alloc3vec12Vec$LT$T$GT$3new17hb50b0dab30dd777fE', symObjAddr: 0x9F8, symBinAddr: 0x3F0C0, symSize: 0x14 }
  - { offset: 0xC197B, size: 0x8, addend: 0x0, symName: '__ZN5alloc3vec12Vec$LT$T$GT$3new17hbd9054d1fbc35474E', symObjAddr: 0xA0C, symBinAddr: 0x3F0D4, symSize: 0x14 }
  - { offset: 0xC1998, size: 0x8, addend: 0x0, symName: '__ZN5alloc3vec12Vec$LT$T$GT$3new17hd4c7e0692f1517e7E', symObjAddr: 0xA20, symBinAddr: 0x3F0E8, symSize: 0x14 }
  - { offset: 0xC1A78, size: 0x8, addend: 0x0, symName: '__ZN5alloc3vec16Vec$LT$T$C$A$GT$3len17h6795a74a7751acfaE', symObjAddr: 0x17EC, symBinAddr: 0x3F0FC, symSize: 0x18 }
  - { offset: 0xC1C07, size: 0x8, addend: 0x0, symName: '__ZN5alloc3vec16Vec$LT$T$C$A$GT$3pop17h3e27458ff1fe43d2E', symObjAddr: 0x181C, symBinAddr: 0x3F114, symSize: 0xD8 }
  - { offset: 0xC1D9A, size: 0x8, addend: 0x0, symName: '__ZN5alloc3vec16Vec$LT$T$C$A$GT$4push17h76f6dd4210e0e216E', symObjAddr: 0x1B1C, symBinAddr: 0x3F1EC, symSize: 0x28 }
  - { offset: 0xC1DEB, size: 0x8, addend: 0x0, symName: '__ZN5alloc3vec16Vec$LT$T$C$A$GT$4push17h80082929d9a8272bE', symObjAddr: 0x1B44, symBinAddr: 0x3F214, symSize: 0x24 }
  - { offset: 0xC1F70, size: 0x8, addend: 0x0, symName: '__ZN5alloc3vec16Vec$LT$T$C$A$GT$8as_slice17he53a6d0b4ca1d8f4E', symObjAddr: 0x2000, symBinAddr: 0x3F2E4, symSize: 0x6C }
  - { offset: 0xC204F, size: 0x8, addend: 0x0, symName: '__ZN5alloc3vec16Vec$LT$T$C$A$GT$8is_empty17hcf3e82d6f6764a6cE', symObjAddr: 0x20A4, symBinAddr: 0x3F350, symSize: 0x20 }
  - { offset: 0xC20C7, size: 0x8, addend: 0x0, symName: '__ZN5alloc3vec16Vec$LT$T$C$A$GT$8is_empty17hdfe6a20073b1704eE', symObjAddr: 0x20C4, symBinAddr: 0x3F370, symSize: 0x20 }
  - { offset: 0xC2206, size: 0x8, addend: 0x0, symName: '__ZN5alloc3vec16Vec$LT$T$C$A$GT$8push_mut17h3c88948dec203c30E', symObjAddr: 0x20E4, symBinAddr: 0x3F390, symSize: 0xC8 }
  - { offset: 0xC24A2, size: 0x8, addend: 0x0, symName: '__ZN5alloc3vec16Vec$LT$T$C$A$GT$8push_mut17he0536051ebc6bdd7E', symObjAddr: 0x227C, symBinAddr: 0x3F458, symSize: 0x108 }
  - { offset: 0xC2CB6, size: 0x8, addend: 0x0, symName: '__ZN5alloc11collections5btree3map5entry28VacantEntry$LT$K$C$V$C$A$GT$12insert_entry28_$u7b$$u7b$closure$u7d$$u7d$17h40586d8bca2fe472E', symObjAddr: 0x1FEC, symBinAddr: 0x3FCE0, symSize: 0x134 }
  - { offset: 0xC2E15, size: 0x8, addend: 0x0, symName: '__ZN5alloc11collections5btree3map5entry28VacantEntry$LT$K$C$V$C$A$GT$12insert_entry28_$u7b$$u7b$closure$u7d$$u7d$17h82054c179622ede1E', symObjAddr: 0x2120, symBinAddr: 0x3FE14, symSize: 0x148 }
  - { offset: 0xC4166, size: 0x8, addend: 0x0, symName: '__ZN5alloc11collections5btree8navigate263_$LT$impl$u20$alloc..collections..btree..node..Handle$LT$alloc..collections..btree..node..NodeRef$LT$alloc..collections..btree..node..marker..Dying$C$K$C$V$C$alloc..collections..btree..node..marker..Leaf$GT$$C$alloc..collections..btree..node..marker..Edge$GT$$GT$27deallocating_next_unchecked28_$u7b$$u7b$closure$u7d$$u7d$17h273a5a386e36d3f8E', symObjAddr: 0x23E8, symBinAddr: 0x400DC, symSize: 0x58 }
  - { offset: 0xC41D6, size: 0x8, addend: 0x0, symName: '__ZN5alloc11collections5btree8navigate263_$LT$impl$u20$alloc..collections..btree..node..Handle$LT$alloc..collections..btree..node..NodeRef$LT$alloc..collections..btree..node..marker..Dying$C$K$C$V$C$alloc..collections..btree..node..marker..Leaf$GT$$C$alloc..collections..btree..node..marker..Edge$GT$$GT$27deallocating_next_unchecked28_$u7b$$u7b$closure$u7d$$u7d$17ha9d70966ef3c06a5E', symObjAddr: 0x2440, symBinAddr: 0x40134, symSize: 0x58 }
  - { offset: 0xC57BB, size: 0x8, addend: 0x0, symName: __ZN4core4char7convert18from_u32_unchecked18precondition_check17h8100f69770bd56edE, symObjAddr: 0x488, symBinAddr: 0x3F650, symSize: 0xC8 }
  - { offset: 0xC5AD2, size: 0x8, addend: 0x0, symName: __ZN4core9ub_checks23maybe_is_nonoverlapping7runtime17h2ee3dc9bc0717229E, symObjAddr: 0x19DC, symBinAddr: 0x3F718, symSize: 0xD8 }
  - { offset: 0xC6172, size: 0x8, addend: 0x0, symName: '__ZN5alloc11collections5btree3map5entry28VacantEntry$LT$K$C$V$C$A$GT$12insert_entry17h7ecb5f50101842adE', symObjAddr: 0x1AFC, symBinAddr: 0x3F7F0, symSize: 0x28C }
  - { offset: 0xC662C, size: 0x8, addend: 0x0, symName: '__ZN5alloc11collections5btree3map5entry28VacantEntry$LT$K$C$V$C$A$GT$12insert_entry17hc5c15edbf42e0535E', symObjAddr: 0x1D88, symBinAddr: 0x3FA7C, symSize: 0x264 }
  - { offset: 0xC6A5A, size: 0x8, addend: 0x0, symName: '__ZN5alloc11collections5btree3map5entry30OccupiedEntry$LT$K$C$V$C$A$GT$6insert17h34621cca12afe58dE', symObjAddr: 0x2268, symBinAddr: 0x3FF5C, symSize: 0x68 }
  - { offset: 0xC6B1E, size: 0x8, addend: 0x0, symName: '__ZN5alloc11collections5btree3map5entry30OccupiedEntry$LT$K$C$V$C$A$GT$6insert17hac4e44d7a1a453daE', symObjAddr: 0x22D0, symBinAddr: 0x3FFC4, symSize: 0x68 }
  - { offset: 0xC6BA7, size: 0x8, addend: 0x0, symName: '__ZN5alloc11collections5btree3map5entry30OccupiedEntry$LT$K$C$V$C$A$GT$8into_mut17h6d177fe4e0977f62E', symObjAddr: 0x2338, symBinAddr: 0x4002C, symSize: 0x58 }
  - { offset: 0xC6BE6, size: 0x8, addend: 0x0, symName: '__ZN5alloc11collections5btree3map5entry30OccupiedEntry$LT$K$C$V$C$A$GT$8into_mut17hea0d903b0fb9c2aaE', symObjAddr: 0x2390, symBinAddr: 0x40084, symSize: 0x58 }
  - { offset: 0xC6E87, size: 0x8, addend: 0x0, symName: '__ZN5alloc11collections5btree8navigate39LazyLeafRange$LT$BorrowType$C$K$C$V$GT$10init_front17h3ef51f126bd9dbc5E', symObjAddr: 0x2498, symBinAddr: 0x4018C, symSize: 0x190 }
  - { offset: 0xC718B, size: 0x8, addend: 0x0, symName: '__ZN5alloc11collections5btree8navigate39LazyLeafRange$LT$BorrowType$C$K$C$V$GT$10init_front17heaf26bf336d84e28E', symObjAddr: 0x2628, symBinAddr: 0x4031C, symSize: 0x190 }
  - { offset: 0xC7491, size: 0x8, addend: 0x0, symName: '__ZN5alloc11collections5btree8navigate75LazyLeafRange$LT$alloc..collections..btree..node..marker..Dying$C$K$C$V$GT$10take_front17h20fbc6d6e832fe06E', symObjAddr: 0x27B8, symBinAddr: 0x404AC, symSize: 0x194 }
  - { offset: 0xC780B, size: 0x8, addend: 0x0, symName: '__ZN5alloc11collections5btree8navigate75LazyLeafRange$LT$alloc..collections..btree..node..marker..Dying$C$K$C$V$GT$10take_front17hc117f289f94a6df8E', symObjAddr: 0x294C, symBinAddr: 0x40640, symSize: 0x194 }
  - { offset: 0xC7A0D, size: 0x8, addend: 0x0, symName: '__ZN5alloc11collections5btree8navigate75LazyLeafRange$LT$alloc..collections..btree..node..marker..Dying$C$K$C$V$GT$16deallocating_end17h9398ef0cdeb266f0E', symObjAddr: 0x2AE0, symBinAddr: 0x407D4, symSize: 0x98 }
  - { offset: 0xC7A6D, size: 0x8, addend: 0x0, symName: '__ZN5alloc11collections5btree8navigate75LazyLeafRange$LT$alloc..collections..btree..node..marker..Dying$C$K$C$V$GT$16deallocating_end17hd2fb7a42c73a1edaE', symObjAddr: 0x2B78, symBinAddr: 0x4086C, symSize: 0x98 }
  - { offset: 0xC7B32, size: 0x8, addend: 0x0, symName: '__ZN5alloc11collections5btree8navigate75LazyLeafRange$LT$alloc..collections..btree..node..marker..Dying$C$K$C$V$GT$27deallocating_next_unchecked17h3cf56912f24c8f77E', symObjAddr: 0x2C10, symBinAddr: 0x40904, symSize: 0xA8 }
  - { offset: 0xC7C39, size: 0x8, addend: 0x0, symName: '__ZN5alloc11collections5btree8navigate75LazyLeafRange$LT$alloc..collections..btree..node..marker..Dying$C$K$C$V$GT$27deallocating_next_unchecked17h70f4c588884cb455E', symObjAddr: 0x2CB8, symBinAddr: 0x409AC, symSize: 0xA8 }
  - { offset: 0xC7D13, size: 0x8, addend: 0x0, symName: '__ZN106_$LT$core..ops..range..Range$LT$usize$GT$$u20$as$u20$core..slice..index..SliceIndex$LT$$u5b$T$u5d$$GT$$GT$3get17hd6eae17288be6432E', symObjAddr: 0x0, symBinAddr: 0x40A54, symSize: 0xC0 }
  - { offset: 0xC890B, size: 0x8, addend: 0x0, symName: '__ZN106_$LT$core..ops..range..Range$LT$usize$GT$$u20$as$u20$core..slice..index..SliceIndex$LT$$u5b$T$u5d$$GT$$GT$3get17hd6eae17288be6432E', symObjAddr: 0x0, symBinAddr: 0x40A54, symSize: 0xC0 }
  - { offset: 0xC89FE, size: 0x8, addend: 0x0, symName: '__ZN110_$LT$core..ops..range..RangeFrom$LT$usize$GT$$u20$as$u20$core..slice..index..SliceIndex$LT$$u5b$T$u5d$$GT$$GT$5index17hab3e88b4bbce7ce1E', symObjAddr: 0x71C, symBinAddr: 0x40F84, symSize: 0x70 }
  - { offset: 0xC8DC1, size: 0x8, addend: 0x0, symName: '__ZN107_$LT$core..ops..range..RangeInclusive$LT$T$GT$$u20$as$u20$core..iter..range..RangeInclusiveIteratorImpl$GT$9spec_next17hfeea14aaa34c77cbE', symObjAddr: 0xC0, symBinAddr: 0x40B14, symSize: 0xF8 }
  - { offset: 0xC8EE9, size: 0x8, addend: 0x0, symName: '__ZN4core4iter5range101_$LT$impl$u20$core..iter..traits..iterator..Iterator$u20$for$u20$core..ops..range..Range$LT$A$GT$$GT$4next17hbcca485f40ed4f37E', symObjAddr: 0x13B0, symBinAddr: 0x41524, symSize: 0x24 }
  - { offset: 0xC8F65, size: 0x8, addend: 0x0, symName: '__ZN4core4iter5range110_$LT$impl$u20$core..iter..traits..iterator..Iterator$u20$for$u20$core..ops..range..RangeInclusive$LT$A$GT$$GT$4next17h1cf298cb34820f90E', symObjAddr: 0x145C, symBinAddr: 0x41548, symSize: 0x24 }
  - { offset: 0xC8FA2, size: 0x8, addend: 0x0, symName: '__ZN89_$LT$core..ops..range..Range$LT$T$GT$$u20$as$u20$core..iter..range..RangeIteratorImpl$GT$9spec_next17h14ecea00c37a9248E', symObjAddr: 0x3544, symBinAddr: 0x41FA4, symSize: 0x94 }
  - { offset: 0xC902E, size: 0x8, addend: 0x0, symName: '__ZN146_$LT$core..ops..range..Range$LT$usize$GT$$u20$as$u20$core..iter..adapters..step_by..SpecRangeSetup$LT$core..ops..range..Range$LT$usize$GT$$GT$$GT$5setup17h2d418889aeedd720E', symObjAddr: 0x804, symBinAddr: 0x40FF4, symSize: 0x110 }
  - { offset: 0xC9353, size: 0x8, addend: 0x0, symName: '__ZN4core3str6traits112_$LT$impl$u20$core..slice..index..SliceIndex$LT$str$GT$$u20$for$u20$core..ops..range..RangeFrom$LT$usize$GT$$GT$3get17hdb5f661826c52c7dE', symObjAddr: 0xFE0, symBinAddr: 0x41188, symSize: 0x150 }
  - { offset: 0xC94CE, size: 0x8, addend: 0x0, symName: '__ZN4core3str6traits112_$LT$impl$u20$core..slice..index..SliceIndex$LT$str$GT$$u20$for$u20$core..ops..range..RangeFrom$LT$usize$GT$$GT$5index17h98df3f7e965fc57bE', symObjAddr: 0x1130, symBinAddr: 0x412D8, symSize: 0x88 }
  - { offset: 0xC95CF, size: 0x8, addend: 0x0, symName: __ZN4core3str7pattern7Pattern12is_prefix_of17hca7fa56a141b82daE, symObjAddr: 0x11B8, symBinAddr: 0x41360, symSize: 0xA0 }
  - { offset: 0xC9612, size: 0x8, addend: 0x0, symName: __ZN4core3str7pattern7Pattern15strip_prefix_of17h202131a91444b820E, symObjAddr: 0x1258, symBinAddr: 0x41400, symSize: 0x124 }
  - { offset: 0xC97F8, size: 0x8, addend: 0x0, symName: '__ZN55_$LT$$RF$str$u20$as$u20$core..str..pattern..Pattern$GT$15strip_prefix_of17hd8bc5319a664623cE', symObjAddr: 0x2714, symBinAddr: 0x41648, symSize: 0xE8 }
  - { offset: 0xC9982, size: 0x8, addend: 0x0, symName: '__ZN52_$LT$char$u20$as$u20$core..str..pattern..Pattern$GT$12is_prefix_of17hc27907a944c1ec81E', symObjAddr: 0x24C4, symBinAddr: 0x4156C, symSize: 0x78 }
  - { offset: 0xC9A29, size: 0x8, addend: 0x0, symName: '__ZN52_$LT$char$u20$as$u20$core..str..pattern..Pattern$GT$15strip_prefix_of17hfed2d5014b33b126E', symObjAddr: 0x253C, symBinAddr: 0x415E4, symSize: 0x64 }
  - { offset: 0xC9A92, size: 0x8, addend: 0x0, symName: '__ZN73_$LT$$u5b$char$u3b$$u20$N$u5d$$u20$as$u20$core..str..pattern..Pattern$GT$12is_prefix_of17h76509eb27e06095dE', symObjAddr: 0x342C, symBinAddr: 0x41EC0, symSize: 0x48 }
  - { offset: 0xC9ACF, size: 0x8, addend: 0x0, symName: '__ZN73_$LT$$u5b$char$u3b$$u20$N$u5d$$u20$as$u20$core..str..pattern..Pattern$GT$15strip_prefix_of17h0962f914245f42e9E', symObjAddr: 0x3474, symBinAddr: 0x41F08, symSize: 0x48 }
  - { offset: 0xC9B12, size: 0x8, addend: 0x0, symName: '__ZN77_$LT$$u5b$char$u3b$$u20$N$u5d$$u20$as$u20$core..str..pattern..MultiCharEq$GT$7matches17h0297814bd6076440E', symObjAddr: 0x34BC, symBinAddr: 0x41F50, symSize: 0x54 }
  - { offset: 0xC9B7B, size: 0x8, addend: 0x0, symName: '__ZN95_$LT$core..str..pattern..MultiCharEqPattern$LT$C$GT$$u20$as$u20$core..str..pattern..Pattern$GT$13into_searcher17h452eaca08fe2185bE', symObjAddr: 0x360C, symBinAddr: 0x42044, symSize: 0xB8 }
  - { offset: 0xC9BDD, size: 0x8, addend: 0x0, symName: '__ZN97_$LT$core..str..pattern..MultiCharEqSearcher$LT$C$GT$$u20$as$u20$core..str..pattern..Searcher$GT$4next17hadd4e8d279ae56d0E', symObjAddr: 0x36C4, symBinAddr: 0x420FC, symSize: 0x128 }
  - { offset: 0xCA092, size: 0x8, addend: 0x0, symName: '__ZN71_$LT$serde_yaml..libyaml..error..Mark$u20$as$u20$core..fmt..Display$GT$3fmt17h3f1154c6fbbe6dd9E', symObjAddr: 0x2FA4, symBinAddr: 0x41A38, symSize: 0x17C }
  - { offset: 0xCA148, size: 0x8, addend: 0x0, symName: '__ZN72_$LT$serde_yaml..libyaml..error..Error$u20$as$u20$core..fmt..Display$GT$3fmt17h4d9f9a38e8a1c643E', symObjAddr: 0x3120, symBinAddr: 0x41BB4, symSize: 0x30C }
  - { offset: 0xCB481, size: 0x8, addend: 0x0, symName: __ZN10serde_yaml7libyaml5error4Mark4line17h9a7cfc5d8056cd99E, symObjAddr: 0x1B8, symBinAddr: 0x40C0C, symSize: 0x18 }
  - { offset: 0xCB4A3, size: 0x8, addend: 0x0, symName: __ZN10serde_yaml7libyaml5error4Mark6column17hc4d07466993a19cdE, symObjAddr: 0x1E8, symBinAddr: 0x40C24, symSize: 0x18 }
  - { offset: 0xCB637, size: 0x8, addend: 0x0, symName: __ZN10serde_yaml7libyaml5error5Error11parse_error17h65d640287471b5b8E, symObjAddr: 0x3D4, symBinAddr: 0x40C3C, symSize: 0x320 }
  - { offset: 0xCB6A0, size: 0x8, addend: 0x0, symName: __ZN10serde_yaml7libyaml5error5Error4mark17h8b489f668aac3e7fE, symObjAddr: 0x6F4, symBinAddr: 0x40F5C, symSize: 0x28 }
  - { offset: 0xCBB9A, size: 0x8, addend: 0x0, symName: __ZN5alloc11collections5btree3mem7replace17h288fc164802c1437E, symObjAddr: 0x27FC, symBinAddr: 0x41730, symSize: 0x90 }
  - { offset: 0xCBC83, size: 0x8, addend: 0x0, symName: __ZN5alloc11collections5btree3mem7replace17h58cb85c472c50c93E, symObjAddr: 0x288C, symBinAddr: 0x417C0, symSize: 0xCC }
  - { offset: 0xCBD73, size: 0x8, addend: 0x0, symName: __ZN5alloc11collections5btree3mem7replace17h6b8aeb91bea90205E, symObjAddr: 0x2958, symBinAddr: 0x4188C, symSize: 0x90 }
  - { offset: 0xCBE5C, size: 0x8, addend: 0x0, symName: __ZN5alloc11collections5btree3mem7replace17h98e883b1793dba65E, symObjAddr: 0x29E8, symBinAddr: 0x4191C, symSize: 0xCC }
  - { offset: 0xCBF51, size: 0x8, addend: 0x0, symName: '__ZN5alloc11collections5btree3mem8take_mut28_$u7b$$u7b$closure$u7d$$u7d$17h09833819b3add778E', symObjAddr: 0x2AB4, symBinAddr: 0x419E8, symSize: 0x28 }
  - { offset: 0xCBF9E, size: 0x8, addend: 0x0, symName: '__ZN5alloc11collections5btree3mem8take_mut28_$u7b$$u7b$closure$u7d$$u7d$17h64fb87ef8c20e238E', symObjAddr: 0x2ADC, symBinAddr: 0x41A10, symSize: 0x28 }
  - { offset: 0xCC01C, size: 0x8, addend: 0x0, symName: '__ZN93_$LT$alloc..collections..btree..mem..replace..PanicGuard$u20$as$u20$core..ops..drop..Drop$GT$4drop17hb08f97ed876b1006E', symObjAddr: 0x35D8, symBinAddr: 0x42038, symSize: 0xC }
  - { offset: 0xCC097, size: 0x8, addend: 0x0, symName: __ZN4core3str5error9Utf8Error11valid_up_to17h08507ff52ac8ba40E, symObjAddr: 0xCC4, symBinAddr: 0x41104, symSize: 0x18 }
  - { offset: 0xCC0B9, size: 0x8, addend: 0x0, symName: __ZN4core3str5error9Utf8Error9error_len17h8013141b17faa5bfE, symObjAddr: 0xCDC, symBinAddr: 0x4111C, symSize: 0x6C }
  - { offset: 0xCCCF8, size: 0x8, addend: 0x0, symName: '__ZN4core3ptr8non_null16NonNull$LT$T$GT$13new_unchecked18precondition_check17he2505aa2de0de9a0E', symObjAddr: 0x1CE4, symBinAddr: 0x42ECC, symSize: 0xA4 }
  - { offset: 0xCCEC5, size: 0x8, addend: 0x0, symName: '__ZN90_$LT$core..ptr..non_null..NonNull$LT$T$GT$$u20$as$u20$core..convert..From$LT$$RF$T$GT$$GT$4from17h4e215354d79206f2E', symObjAddr: 0x3A14, symBinAddr: 0x437E4, symSize: 0x18 }
  - { offset: 0xCD958, size: 0x8, addend: 0x0, symName: __ZN4core9panicking13assert_failed17h68d2d284a66c864dE, symObjAddr: 0x2A14, symBinAddr: 0xD7228, symSize: 0x3C }
  - { offset: 0xCD9F8, size: 0x8, addend: 0x0, symName: '__ZN81_$LT$core..str..iter..Bytes$u20$as$u20$core..iter..traits..iterator..Iterator$GT$3all17hfeead99e594e63b6E', symObjAddr: 0x37B8, symBinAddr: 0x436A8, symSize: 0x24 }
  - { offset: 0xCDAA4, size: 0x8, addend: 0x0, symName: '__ZN87_$LT$core..str..iter..CharIndices$u20$as$u20$core..iter..traits..iterator..Iterator$GT$4next17hbada8fe49b0195edE', symObjAddr: 0x38CC, symBinAddr: 0x436CC, symSize: 0x118 }
  - { offset: 0xCDFBD, size: 0x8, addend: 0x0, symName: '__ZN106_$LT$core..ops..range..Range$LT$usize$GT$$u20$as$u20$core..slice..index..SliceIndex$LT$$u5b$T$u5d$$GT$$GT$13get_unchecked18precondition_check17hfa02803f5a19c65bE', symObjAddr: 0x680, symBinAddr: 0x422A8, symSize: 0xCC }
  - { offset: 0xCE039, size: 0x8, addend: 0x0, symName: '__ZN106_$LT$core..ops..range..Range$LT$usize$GT$$u20$as$u20$core..slice..index..SliceIndex$LT$$u5b$T$u5d$$GT$$GT$17get_unchecked_mut18precondition_check17hf37860bacbf59a02E', symObjAddr: 0x74C, symBinAddr: 0x42374, symSize: 0xCC }
  - { offset: 0xCE0BB, size: 0x8, addend: 0x0, symName: '__ZN75_$LT$usize$u20$as$u20$core..slice..index..SliceIndex$LT$$u5b$T$u5d$$GT$$GT$13get_unchecked18precondition_check17h8b76432b34482550E', symObjAddr: 0x3448, symBinAddr: 0x434FC, symSize: 0xAC }
  - { offset: 0xCE129, size: 0x8, addend: 0x0, symName: '__ZN75_$LT$usize$u20$as$u20$core..slice..index..SliceIndex$LT$$u5b$T$u5d$$GT$$GT$17get_unchecked_mut18precondition_check17h46702da55e24b0f3E', symObjAddr: 0x34F4, symBinAddr: 0x435A8, symSize: 0xAC }
  - { offset: 0xCE192, size: 0x8, addend: 0x0, symName: '__ZN75_$LT$usize$u20$as$u20$core..slice..index..SliceIndex$LT$$u5b$T$u5d$$GT$$GT$3get17hd88934b9c7b52a62E', symObjAddr: 0x35F4, symBinAddr: 0x43654, symSize: 0x54 }
  - { offset: 0xCE1E1, size: 0x8, addend: 0x0, symName: '__ZN4core5slice3cmp81_$LT$impl$u20$core..cmp..PartialEq$LT$$u5b$U$u5d$$GT$$u20$for$u20$$u5b$T$u5d$$GT$2eq17hd22cdb18cbc19c97E', symObjAddr: 0x27A4, symBinAddr: 0x43100, symSize: 0x34 }
  - { offset: 0xCE233, size: 0x8, addend: 0x0, symName: '__ZN56_$LT$char$u20$as$u20$core..slice..cmp..SliceContains$GT$14slice_contains17ha738c61a8c68a021E', symObjAddr: 0x2D9C, symBinAddr: 0x4315C, symSize: 0x140 }
  - { offset: 0xCE4EA, size: 0x8, addend: 0x0, symName: '__ZN56_$LT$char$u20$as$u20$core..slice..cmp..SliceContains$GT$14slice_contains28_$u7b$$u7b$closure$u7d$$u7d$17h6e5100ba19044825E', symObjAddr: 0x2EDC, symBinAddr: 0x4329C, symSize: 0x38 }
  - { offset: 0xCE539, size: 0x8, addend: 0x0, symName: '__ZN56_$LT$char$u20$as$u20$core..slice..cmp..SliceContains$GT$14slice_contains28_$u7b$$u7b$closure$u7d$$u7d$17ha953010dcd15e60dE', symObjAddr: 0x2F14, symBinAddr: 0x432D4, symSize: 0x30 }
  - { offset: 0xCE580, size: 0x8, addend: 0x0, symName: '__ZN73_$LT$$u5b$A$u5d$$u20$as$u20$core..slice..cmp..SlicePartialEq$LT$B$GT$$GT$5equal17hcdd68a6306756467E', symObjAddr: 0x33C0, symBinAddr: 0x43474, symSize: 0x88 }
  - { offset: 0xCE8F6, size: 0x8, addend: 0x0, symName: '__ZN50_$LT$T$u20$as$u20$core..convert..Into$LT$U$GT$$GT$4into17he5d0633fe62265b4E', symObjAddr: 0x2B70, symBinAddr: 0x43134, symSize: 0x28 }
  - { offset: 0xCFD95, size: 0x8, addend: 0x0, symName: '__ZN105_$LT$serde_yaml..error..Error$u20$as$u20$core..convert..From$LT$serde_yaml..libyaml..error..Error$GT$$GT$4from17hbd7c69959b68c0c4E', symObjAddr: 0x5FC, symBinAddr: 0x42224, symSize: 0x84 }
  - { offset: 0xCFDE0, size: 0x8, addend: 0x0, symName: __ZN10serde_yaml5error3new17h4f2fd2ff286c245aE, symObjAddr: 0xA0C, symBinAddr: 0x42440, symSize: 0x78 }
  - { offset: 0xCFEEB, size: 0x8, addend: 0x0, symName: __ZN10serde_yaml5error6shared17hb1718b0e08c45112E, symObjAddr: 0xC60, symBinAddr: 0x42618, symSize: 0x84 }
  - { offset: 0xCFF34, size: 0x8, addend: 0x0, symName: __ZN10serde_yaml5error8fix_mark17habef651532313cb6E, symObjAddr: 0xDC4, symBinAddr: 0x4269C, symSize: 0x144 }
  - { offset: 0xCFF98, size: 0x8, addend: 0x0, symName: '__ZN63_$LT$serde_yaml..error..Error$u20$as$u20$core..fmt..Display$GT$3fmt17hfb3d1d1b18471c1bE', symObjAddr: 0x3250, symBinAddr: 0x43304, symSize: 0x80 }
  - { offset: 0xCFFD8, size: 0x8, addend: 0x0, symName: '__ZN66_$LT$serde_yaml..error..Error$u20$as$u20$serde_core..de..Error$GT$6custom17h1939df263fede31aE', symObjAddr: 0x32D0, symBinAddr: 0x43384, symSize: 0xF0 }
  - { offset: 0xD0529, size: 0x8, addend: 0x0, symName: __ZN10serde_core2de5Error12invalid_type17ha503349174b25e3bE, symObjAddr: 0x8A0, symBinAddr: 0xD70BC, symSize: 0x74 }
  - { offset: 0xD05A8, size: 0x8, addend: 0x0, symName: __ZN10serde_core2de5Error13invalid_value17h11eaea040db57fb5E, symObjAddr: 0x914, symBinAddr: 0xD7130, symSize: 0x74 }
  - { offset: 0xD0627, size: 0x8, addend: 0x0, symName: __ZN10serde_core2de5Error14invalid_length17h70227fc0439b0ebcE, symObjAddr: 0x988, symBinAddr: 0xD71A4, symSize: 0x84 }
  - { offset: 0xD08B2, size: 0x8, addend: 0x0, symName: __ZN10serde_yaml5error5Error6shared17ha9869622b48b7e04E, symObjAddr: 0xA84, symBinAddr: 0x424B8, symSize: 0x160 }
  - { offset: 0xD0910, size: 0x8, addend: 0x0, symName: __ZN10serde_yaml5error9ErrorImpl15message_no_mark17hc5700be8952851c4E, symObjAddr: 0xF08, symBinAddr: 0x427E0, symSize: 0x3B0 }
  - { offset: 0xD0A52, size: 0x8, addend: 0x0, symName: __ZN10serde_yaml5error9ErrorImpl4mark17h8e3c788dfb81e53fE, symObjAddr: 0x12B8, symBinAddr: 0x42B90, symSize: 0x15C }
  - { offset: 0xD0AF9, size: 0x8, addend: 0x0, symName: __ZN10serde_yaml5error9ErrorImpl7display17h9278813c5df22427E, symObjAddr: 0x1818, symBinAddr: 0x42CEC, symSize: 0x1A4 }
  - { offset: 0xD0D76, size: 0x8, addend: 0x0, symName: '__ZN4core3ptr8non_null16NonNull$LT$T$GT$13new_unchecked17ha48181ab619c4b2fE', symObjAddr: 0x1CA8, symBinAddr: 0x42E90, symSize: 0x3C }
  - { offset: 0xD0DF0, size: 0x8, addend: 0x0, symName: '__ZN4core3ptr8non_null16NonNull$LT$T$GT$20offset_from_unsigned17h38b84165e2a3aa79E', symObjAddr: 0x1D88, symBinAddr: 0x42F70, symSize: 0x7C }
  - { offset: 0xD0EE0, size: 0x8, addend: 0x0, symName: '__ZN4core3ptr8non_null16NonNull$LT$T$GT$20offset_from_unsigned17h3ee9dd74af31fdedE', symObjAddr: 0x1E04, symBinAddr: 0x42FEC, symSize: 0x7C }
  - { offset: 0xD0FF6, size: 0x8, addend: 0x0, symName: '__ZN4core3ptr8non_null16NonNull$LT$T$GT$3new17h73b4b0ccd29dce4bE', symObjAddr: 0x204C, symBinAddr: 0x43068, symSize: 0x58 }
  - { offset: 0xD1045, size: 0x8, addend: 0x0, symName: '__ZN4core3ptr8non_null16NonNull$LT$T$GT$4cast17h6dbd04d21ceb9365E', symObjAddr: 0x20CC, symBinAddr: 0x430C0, symSize: 0x14 }
  - { offset: 0xD107A, size: 0x8, addend: 0x0, symName: '__ZN4core3ptr8non_null16NonNull$LT$T$GT$4cast17h7d8939a8ccd505b8E', symObjAddr: 0x20E0, symBinAddr: 0x430D4, symSize: 0x14 }
  - { offset: 0xD10AF, size: 0x8, addend: 0x0, symName: '__ZN4core3ptr8non_null16NonNull$LT$T$GT$4cast17hb8d65215e8f20330E', symObjAddr: 0x20F4, symBinAddr: 0x430E8, symSize: 0x18 }
  - { offset: 0xD1575, size: 0x8, addend: 0x0, symName: __ZN10serde_yaml7libyaml4cstr13display_lossy17hf4b920770cb7d8aaE, symObjAddr: 0x604, symBinAddr: 0x437FC, symSize: 0x220 }
  - { offset: 0xD17A6, size: 0x8, addend: 0x0, symName: '__ZN70_$LT$serde_yaml..libyaml..cstr..CStr$u20$as$u20$core..fmt..Display$GT$3fmt17h53bf9bddfea49245E', symObjAddr: 0x1094, symBinAddr: 0x43E30, symSize: 0x6C }
  - { offset: 0xD19D9, size: 0x8, addend: 0x0, symName: '__ZN4core3num7nonzero16NonZero$LT$T$GT$13new_unchecked18precondition_check17h7f0f1ed6a2c8eefdE', symObjAddr: 0xB48, symBinAddr: 0x43BFC, symSize: 0x84 }
  - { offset: 0xD1E91, size: 0x8, addend: 0x0, symName: '__ZN44_$LT$$RF$T$u20$as$u20$core..fmt..Display$GT$3fmt17h223e162e842ae1feE', symObjAddr: 0xA54, symBinAddr: 0x43BCC, symSize: 0x30 }
  - { offset: 0xD21B7, size: 0x8, addend: 0x0, symName: '__ZN4core3str6traits108_$LT$impl$u20$core..slice..index..SliceIndex$LT$str$GT$$u20$for$u20$core..ops..range..Range$LT$usize$GT$$GT$13get_unchecked18precondition_check17he6df71f25d684908E', symObjAddr: 0xBEC, symBinAddr: 0x43C80, symSize: 0xCC }
  - { offset: 0xD2234, size: 0x8, addend: 0x0, symName: '__ZN4core3str6traits54_$LT$impl$u20$core..cmp..PartialEq$u20$for$u20$str$GT$2eq17h4e196fb3bcaecdb0E', symObjAddr: 0xDA0, symBinAddr: 0x43D4C, symSize: 0xA0 }
  - { offset: 0xD2345, size: 0x8, addend: 0x0, symName: '__ZN4core3str6traits66_$LT$impl$u20$core..ops..index..Index$LT$I$GT$$u20$for$u20$str$GT$5index17h41e54f93c8d787e0E', symObjAddr: 0xE40, symBinAddr: 0x43DEC, symSize: 0x44 }
  - { offset: 0xD2485, size: 0x8, addend: 0x0, symName: __ZN10serde_yaml7libyaml4cstr4CStr19from_bytes_with_nul17hcf35cd4aefa6106fE, symObjAddr: 0x824, symBinAddr: 0x43A1C, symSize: 0xA4 }
  - { offset: 0xD2521, size: 0x8, addend: 0x0, symName: __ZN10serde_yaml7libyaml4cstr4CStr3len17hf3bca6f65b88ab02E, symObjAddr: 0x8C8, symBinAddr: 0x43AC0, symSize: 0xA0 }
  - { offset: 0xD25C4, size: 0x8, addend: 0x0, symName: __ZN10serde_yaml7libyaml4cstr4CStr8from_ptr17h2d1eed2d163ee2cdE, symObjAddr: 0x968, symBinAddr: 0x43B60, symSize: 0x24 }
  - { offset: 0xD25E6, size: 0x8, addend: 0x0, symName: __ZN10serde_yaml7libyaml4cstr4CStr8to_bytes17h728273b1a2794e82E, symObjAddr: 0x98C, symBinAddr: 0x43B84, symSize: 0x48 }
  - { offset: 0xD2AEB, size: 0x8, addend: 0x0, symName: '__ZN10serde_core2de5impls66_$LT$impl$u20$serde_core..de..Deserialize$u20$for$u20$$LP$$RP$$GT$11deserialize17hc905988e7308ffc8E', symObjAddr: 0x38, symBinAddr: 0x43E9C, symSize: 0x24 }
  - { offset: 0xD2B26, size: 0x8, addend: 0x0, symName: '__ZN78_$LT$serde_core..de..impls..UnitVisitor$u20$as$u20$serde_core..de..Visitor$GT$10visit_unit17h2575f81129626491E', symObjAddr: 0x5070, symBinAddr: 0x455D0, symSize: 0x10 }
  - { offset: 0xD2B75, size: 0x8, addend: 0x0, symName: '__ZN46_$LT$T$u20$as$u20$serde_core..de..Expected$GT$3fmt17h0a960829322db5c5E', symObjAddr: 0xED0, symBinAddr: 0x43EC0, symSize: 0x2C }
  - { offset: 0xD4AB8, size: 0x8, addend: 0x0, symName: '__ZN4core3ptr100drop_in_place$LT$alloc..vec..Vec$LT$serde_yaml..de..DeserializerFromEvents..ignore_any..Nest$GT$$GT$17h970aa546fd39c7e0E', symObjAddr: 0x163C, symBinAddr: 0x44018, symSize: 0x5C }
  - { offset: 0xD4AE7, size: 0x8, addend: 0x0, symName: '__ZN4core3ptr101drop_in_place$LT$alloc..sync..Weak$LT$serde_yaml..error..ErrorImpl$C$$RF$alloc..alloc..Global$GT$$GT$17hffbc7dcce182e050E', symObjAddr: 0x1698, symBinAddr: 0x44074, symSize: 0x24 }
  - { offset: 0xD4B16, size: 0x8, addend: 0x0, symName: '__ZN4core3ptr101drop_in_place$LT$core..option..Option$LT$alloc..sync..Arc$LT$serde_yaml..error..ErrorImpl$GT$$GT$$GT$17ha5de42cc6f8424a5E', symObjAddr: 0x16BC, symBinAddr: 0x44098, symSize: 0x44 }
  - { offset: 0xD4B45, size: 0x8, addend: 0x0, symName: '__ZN4core3ptr101drop_in_place$LT$std..io..error..ErrorData$LT$alloc..boxed..Box$LT$std..io..error..Custom$GT$$GT$$GT$17hf70bdfc7ca47895aE', symObjAddr: 0x175C, symBinAddr: 0x440DC, symSize: 0x48 }
  - { offset: 0xD4B74, size: 0x8, addend: 0x0, symName: '__ZN4core3ptr102drop_in_place$LT$serde_yaml..libyaml..util..Owned$LT$serde_yaml..libyaml..parser..ParserPinned$GT$$GT$17h68ddfdd6cfbf1735E', symObjAddr: 0x17A4, symBinAddr: 0x44124, symSize: 0x24 }
  - { offset: 0xD4BA3, size: 0x8, addend: 0x0, symName: '__ZN4core3ptr107drop_in_place$LT$alloc..raw_vec..RawVec$LT$serde_yaml..de..DeserializerFromEvents..ignore_any..Nest$GT$$GT$17h1b80cb0ff684605eE', symObjAddr: 0x18D4, symBinAddr: 0x44148, symSize: 0x24 }
  - { offset: 0xD4BD2, size: 0x8, addend: 0x0, symName: '__ZN4core3ptr108drop_in_place$LT$alloc..boxed..Box$LT$alloc..collections..btree..node..LeafNode$LT$usize$C$usize$GT$$GT$$GT$17h9bac8c9e31b7de19E', symObjAddr: 0x18F8, symBinAddr: 0x4416C, symSize: 0x2C }
  - { offset: 0xD4C01, size: 0x8, addend: 0x0, symName: '__ZN4core3ptr108drop_in_place$LT$alloc..vec..Vec$LT$$LP$serde_yaml..de..Event$C$serde_yaml..libyaml..error..Mark$RP$$GT$$GT$17hcab11c8cbf788839E', symObjAddr: 0x1924, symBinAddr: 0x44198, symSize: 0x5C }
  - { offset: 0xD4C30, size: 0x8, addend: 0x0, symName: '__ZN4core3ptr110drop_in_place$LT$core..result..Result$LT$serde_yaml..de..invalid_type..Void$C$serde_yaml..error..Error$GT$$GT$17h984f743441c1f0d6E', symObjAddr: 0x19A4, symBinAddr: 0x441F4, symSize: 0x30 }
  - { offset: 0xD4C5F, size: 0x8, addend: 0x0, symName: '__ZN4core3ptr112drop_in_place$LT$alloc..boxed..Box$LT$alloc..collections..btree..node..InternalNode$LT$usize$C$usize$GT$$GT$$GT$17hb94a8db77e435068E', symObjAddr: 0x1A30, symBinAddr: 0x44224, symSize: 0x2C }
  - { offset: 0xD4C8E, size: 0x8, addend: 0x0, symName: '__ZN4core3ptr112drop_in_place$LT$alloc..collections..btree..map..BTreeMap$LT$serde_yaml..libyaml..parser..Anchor$C$usize$GT$$GT$17hc42d2ddb8dd4d7d6E', symObjAddr: 0x1A5C, symBinAddr: 0x44250, symSize: 0x24 }
  - { offset: 0xD4CBD, size: 0x8, addend: 0x0, symName: '__ZN4core3ptr112drop_in_place$LT$alloc..collections..btree..map..IntoIter$LT$serde_yaml..libyaml..parser..Anchor$C$usize$GT$$GT$17h6f3bb2808ec467baE', symObjAddr: 0x1A80, symBinAddr: 0x44274, symSize: 0x24 }
  - { offset: 0xD4CEC, size: 0x8, addend: 0x0, symName: '__ZN4core3ptr115drop_in_place$LT$alloc..raw_vec..RawVec$LT$$LP$serde_yaml..de..Event$C$serde_yaml..libyaml..error..Mark$RP$$GT$$GT$17h69f0273da0928f21E', symObjAddr: 0x1AA4, symBinAddr: 0x44298, symSize: 0x24 }
  - { offset: 0xD4D1B, size: 0x8, addend: 0x0, symName: '__ZN4core3ptr118drop_in_place$LT$alloc..boxed..Box$LT$dyn$u20$core..error..Error$u2b$core..marker..Sync$u2b$core..marker..Send$GT$$GT$17h2417d365dbff019cE', symObjAddr: 0x1AC8, symBinAddr: 0x442BC, symSize: 0x80 }
  - { offset: 0xD4D4A, size: 0x8, addend: 0x0, symName: '__ZN4core3ptr131drop_in_place$LT$alloc..boxed..Box$LT$core..mem..maybe_uninit..MaybeUninit$LT$serde_yaml..libyaml..parser..ParserPinned$GT$$GT$$GT$17h8a34a93aabe57f33E', symObjAddr: 0x1C18, symBinAddr: 0x4433C, symSize: 0x2C }
  - { offset: 0xD4D79, size: 0x8, addend: 0x0, symName: '__ZN4core3ptr138drop_in_place$LT$alloc..boxed..Box$LT$alloc..collections..btree..node..LeafNode$LT$serde_yaml..libyaml..parser..Anchor$C$usize$GT$$GT$$GT$17h65b3984c43a26ad2E', symObjAddr: 0x1C94, symBinAddr: 0x44368, symSize: 0x2C }
  - { offset: 0xD4DA8, size: 0x8, addend: 0x0, symName: '__ZN4core3ptr142drop_in_place$LT$alloc..boxed..Box$LT$alloc..collections..btree..node..InternalNode$LT$serde_yaml..libyaml..parser..Anchor$C$usize$GT$$GT$$GT$17h2303f8285882b9ebE', symObjAddr: 0x1D2C, symBinAddr: 0x44394, symSize: 0x2C }
  - { offset: 0xD4DD7, size: 0x8, addend: 0x0, symName: '__ZN4core3ptr147drop_in_place$LT$alloc..boxed..Box$LT$core..mem..manually_drop..ManuallyDrop$LT$serde_yaml..error..ErrorImpl$GT$$C$$RF$alloc..alloc..Global$GT$$GT$17hfa578a511d2b50ecE', symObjAddr: 0x1D7C, symBinAddr: 0x443C0, symSize: 0x2C }
  - { offset: 0xD4E06, size: 0x8, addend: 0x0, symName: '__ZN4core3ptr164drop_in_place$LT$alloc..collections..btree..node..SplitResult$LT$serde_yaml..libyaml..parser..Anchor$C$usize$C$alloc..collections..btree..node..marker..Leaf$GT$$GT$17h7c215cceca4f164dE', symObjAddr: 0x1F54, symBinAddr: 0x443EC, symSize: 0x24 }
  - { offset: 0xD4E35, size: 0x8, addend: 0x0, symName: '__ZN4core3ptr168drop_in_place$LT$alloc..collections..btree..node..SplitResult$LT$serde_yaml..libyaml..parser..Anchor$C$usize$C$alloc..collections..btree..node..marker..Internal$GT$$GT$17hd38bcf86e92000c3E', symObjAddr: 0x1F78, symBinAddr: 0x44410, symSize: 0x24 }
  - { offset: 0xD4E64, size: 0x8, addend: 0x0, symName: '__ZN4core3ptr180drop_in_place$LT$$LT$alloc..collections..btree..map..IntoIter$LT$K$C$V$C$A$GT$$u20$as$u20$core..ops..drop..Drop$GT$..drop..DropGuard$LT$usize$C$usize$C$alloc..alloc..Global$GT$$GT$17hc0d6cdafaad68dfdE', symObjAddr: 0x1FC0, symBinAddr: 0x44434, symSize: 0x24 }
  - { offset: 0xD4E93, size: 0x8, addend: 0x0, symName: '__ZN4core3ptr182drop_in_place$LT$core..result..Result$LT$core..result..Result$LT$serde_yaml..de..invalid_type..Void$C$serde_yaml..error..Error$GT$$C$serde_yaml..de..invalid_type..InvalidType$GT$$GT$17h03d52e81d1cd1c9aE', symObjAddr: 0x202C, symBinAddr: 0x44458, symSize: 0x48 }
  - { offset: 0xD4EC2, size: 0x8, addend: 0x0, symName: '__ZN4core3ptr190drop_in_place$LT$serde_yaml..libyaml..util..Owned$LT$core..mem..maybe_uninit..MaybeUninit$LT$serde_yaml..libyaml..parser..ParserPinned$GT$$C$serde_yaml..libyaml..parser..ParserPinned$GT$$GT$17h8fb86a01b3452626E', symObjAddr: 0x20BC, symBinAddr: 0x444A0, symSize: 0x24 }
  - { offset: 0xD4EF1, size: 0x8, addend: 0x0, symName: '__ZN4core3ptr210drop_in_place$LT$$LT$alloc..collections..btree..map..IntoIter$LT$K$C$V$C$A$GT$$u20$as$u20$core..ops..drop..Drop$GT$..drop..DropGuard$LT$serde_yaml..libyaml..parser..Anchor$C$usize$C$alloc..alloc..Global$GT$$GT$17hcf6f4dc7c4e93a19E', symObjAddr: 0x2128, symBinAddr: 0x444C4, symSize: 0x24 }
  - { offset: 0xD4F20, size: 0x8, addend: 0x0, symName: '__ZN4core3ptr263drop_in_place$LT$alloc..collections..btree..node..Handle$LT$alloc..collections..btree..node..NodeRef$LT$alloc..collections..btree..node..marker..Dying$C$K$C$V$C$NodeType$GT$$C$alloc..collections..btree..node..marker..KV$GT$..drop_key_val..Dropper$LT$usize$GT$$GT$17h2491bf69f6a8160cE', symObjAddr: 0x21B8, symBinAddr: 0x444E8, symSize: 0x24 }
  - { offset: 0xD4F4F, size: 0x8, addend: 0x0, symName: '__ZN4core3ptr42drop_in_place$LT$serde_yaml..de..Event$GT$17h67adf88ca7eab076E', symObjAddr: 0x22FC, symBinAddr: 0x4450C, symSize: 0x94 }
  - { offset: 0xD4F7E, size: 0x8, addend: 0x0, symName: '__ZN4core3ptr42drop_in_place$LT$std..io..error..Error$GT$17h89e3bbc728008b6dE', symObjAddr: 0x2390, symBinAddr: 0x445A0, symSize: 0x24 }
  - { offset: 0xD4FAD, size: 0x8, addend: 0x0, symName: '__ZN4core3ptr43drop_in_place$LT$serde_yaml..error..Pos$GT$17h64ecc665280677abE', symObjAddr: 0x23FC, symBinAddr: 0x445C4, symSize: 0x24 }
  - { offset: 0xD4FDC, size: 0x8, addend: 0x0, symName: '__ZN4core3ptr43drop_in_place$LT$std..io..error..Custom$GT$17ha23ee583266e871bE', symObjAddr: 0x2420, symBinAddr: 0x445E8, symSize: 0x24 }
  - { offset: 0xD500B, size: 0x8, addend: 0x0, symName: '__ZN4core3ptr45drop_in_place$LT$serde_yaml..de..Progress$GT$17h54be0d4bea5bb18fE', symObjAddr: 0x2468, symBinAddr: 0x4460C, symSize: 0xC0 }
  - { offset: 0xD503A, size: 0x8, addend: 0x0, symName: '__ZN4core3ptr45drop_in_place$LT$serde_yaml..error..Error$GT$17hb230da4f151eb129E', symObjAddr: 0x2528, symBinAddr: 0x446CC, symSize: 0x24 }
  - { offset: 0xD5069, size: 0x8, addend: 0x0, symName: '__ZN4core3ptr47drop_in_place$LT$serde_yaml..loader..Loader$GT$17h70420a29d6c45d18E', symObjAddr: 0x260C, symBinAddr: 0x446F0, symSize: 0x24 }
  - { offset: 0xD5098, size: 0x8, addend: 0x0, symName: '__ZN4core3ptr49drop_in_place$LT$alloc..string..FromUtf8Error$GT$17hab29b7fceddcdcf2E', symObjAddr: 0x2654, symBinAddr: 0x44714, symSize: 0x24 }
  - { offset: 0xD50C7, size: 0x8, addend: 0x0, symName: '__ZN4core3ptr49drop_in_place$LT$serde_yaml..error..ErrorImpl$GT$17hff5656937b7db09aE', symObjAddr: 0x2678, symBinAddr: 0x44738, symSize: 0xF4 }
  - { offset: 0xD50F6, size: 0x8, addend: 0x0, symName: '__ZN4core3ptr49drop_in_place$LT$serde_yaml..loader..Document$GT$17h33ec276f9494c576E', symObjAddr: 0x276C, symBinAddr: 0x4482C, symSize: 0x90 }
  - { offset: 0xD5125, size: 0x8, addend: 0x0, symName: '__ZN4core3ptr50drop_in_place$LT$serde_yaml..libyaml..tag..Tag$GT$17hccf5e9dd884f05acE', symObjAddr: 0x2868, symBinAddr: 0x448BC, symSize: 0x24 }
  - { offset: 0xD5154, size: 0x8, addend: 0x0, symName: '__ZN4core3ptr55drop_in_place$LT$serde_yaml..libyaml..parser..Event$GT$17h1058a6731179aeceE', symObjAddr: 0x2998, symBinAddr: 0x448E0, symSize: 0xB4 }
  - { offset: 0xD5183, size: 0x8, addend: 0x0, symName: '__ZN4core3ptr56drop_in_place$LT$serde_yaml..libyaml..parser..Anchor$GT$17h42cec6b8b21c4f7aE', symObjAddr: 0x2A4C, symBinAddr: 0x44994, symSize: 0x24 }
  - { offset: 0xD51B2, size: 0x8, addend: 0x0, symName: '__ZN4core3ptr56drop_in_place$LT$serde_yaml..libyaml..parser..Parser$GT$17h676e4a40ad03e6c8E', symObjAddr: 0x2A70, symBinAddr: 0x449B8, symSize: 0x24 }
  - { offset: 0xD51E1, size: 0x8, addend: 0x0, symName: '__ZN4core3ptr56drop_in_place$LT$serde_yaml..libyaml..parser..Scalar$GT$17h46baf2d97ea5776cE', symObjAddr: 0x2A94, symBinAddr: 0x449DC, symSize: 0x8C }
  - { offset: 0xD5210, size: 0x8, addend: 0x0, symName: '__ZN4core3ptr57drop_in_place$LT$std..io..error..repr_bitpacked..Repr$GT$17hb94f6f26e44babd0E', symObjAddr: 0x2B44, symBinAddr: 0x44A68, symSize: 0x24 }
  - { offset: 0xD523F, size: 0x8, addend: 0x0, symName: '__ZN4core3ptr58drop_in_place$LT$alloc..boxed..Box$LT$$u5b$u8$u5d$$GT$$GT$17hbf45f0d462f7cbcfE', symObjAddr: 0x2B68, symBinAddr: 0x44A8C, symSize: 0x2C }
  - { offset: 0xD526E, size: 0x8, addend: 0x0, symName: '__ZN4core3ptr59drop_in_place$LT$alloc..borrow..Cow$LT$$u5b$u8$u5d$$GT$$GT$17h7e4cdf5950a4d3f6E', symObjAddr: 0x2C00, symBinAddr: 0x44AB8, symSize: 0x48 }
  - { offset: 0xD529D, size: 0x8, addend: 0x0, symName: '__ZN4core3ptr62drop_in_place$LT$serde_yaml..libyaml..parser..MappingStart$GT$17hd84b9b4bf3354230E', symObjAddr: 0x2CF0, symBinAddr: 0x44B00, symSize: 0x60 }
  - { offset: 0xD52CC, size: 0x8, addend: 0x0, symName: '__ZN4core3ptr62drop_in_place$LT$serde_yaml..libyaml..parser..ParserPinned$GT$17h99608cd6d52b2918E', symObjAddr: 0x2D50, symBinAddr: 0x44B60, symSize: 0x5C }
  - { offset: 0xD52FB, size: 0x8, addend: 0x0, symName: '__ZN4core3ptr63drop_in_place$LT$serde_yaml..libyaml..parser..SequenceStart$GT$17h6b49d77ec80407d9E', symObjAddr: 0x2DAC, symBinAddr: 0x44BBC, symSize: 0x60 }
  - { offset: 0xD532A, size: 0x8, addend: 0x0, symName: '__ZN4core3ptr67drop_in_place$LT$alloc..boxed..Box$LT$dyn$u20$std..io..Read$GT$$GT$17h5290f93a2ba45a96E', symObjAddr: 0x2EC8, symBinAddr: 0x44C1C, symSize: 0x80 }
  - { offset: 0xD5359, size: 0x8, addend: 0x0, symName: '__ZN4core3ptr68drop_in_place$LT$alloc..boxed..Box$LT$std..io..error..Custom$GT$$GT$17h185d342f50e97c14E', symObjAddr: 0x2FEC, symBinAddr: 0x44C9C, symSize: 0x60 }
  - { offset: 0xD5388, size: 0x8, addend: 0x0, symName: '__ZN4core3ptr71drop_in_place$LT$core..option..Option$LT$serde_yaml..error..Pos$GT$$GT$17h317d226781b88d5cE', symObjAddr: 0x3158, symBinAddr: 0x44CFC, symSize: 0x48 }
  - { offset: 0xD53B7, size: 0x8, addend: 0x0, symName: '__ZN4core3ptr72drop_in_place$LT$$LP$serde_yaml..libyaml..parser..Anchor$C$usize$RP$$GT$17hbe47033e04a3c809E', symObjAddr: 0x31A0, symBinAddr: 0x44D44, symSize: 0x24 }
  - { offset: 0xD53E6, size: 0x8, addend: 0x0, symName: '__ZN4core3ptr72drop_in_place$LT$alloc..collections..btree..mem..replace..PanicGuard$GT$17h754113ad630f8855E', symObjAddr: 0x31C4, symBinAddr: 0x44D68, symSize: 0x24 }
  - { offset: 0xD5415, size: 0x8, addend: 0x0, symName: '__ZN4core3ptr73drop_in_place$LT$alloc..sync..Arc$LT$serde_yaml..error..ErrorImpl$GT$$GT$17h5aac3e0d50e00482E', symObjAddr: 0x31E8, symBinAddr: 0x44D8C, symSize: 0x24 }
  - { offset: 0xD5444, size: 0x8, addend: 0x0, symName: '__ZN4core3ptr74drop_in_place$LT$alloc..boxed..Box$LT$serde_yaml..error..ErrorImpl$GT$$GT$17h8aec1c0549b0dc74E', symObjAddr: 0x3254, symBinAddr: 0x44DB0, symSize: 0x60 }
  - { offset: 0xD5473, size: 0x8, addend: 0x0, symName: '__ZN4core3ptr78drop_in_place$LT$core..option..Option$LT$serde_yaml..libyaml..tag..Tag$GT$$GT$17h2201046646560742E', symObjAddr: 0x3344, symBinAddr: 0x44E10, symSize: 0x44 }
  - { offset: 0xD54A2, size: 0x8, addend: 0x0, symName: '__ZN4core3ptr82drop_in_place$LT$alloc..collections..btree..map..BTreeMap$LT$usize$C$usize$GT$$GT$17h28fe79aed0fb988cE', symObjAddr: 0x33E4, symBinAddr: 0x44E54, symSize: 0x24 }
  - { offset: 0xD54D1, size: 0x8, addend: 0x0, symName: '__ZN4core3ptr82drop_in_place$LT$alloc..collections..btree..map..IntoIter$LT$usize$C$usize$GT$$GT$17h07ef8d3ce93ce7f9E', symObjAddr: 0x3408, symBinAddr: 0x44E78, symSize: 0x24 }
  - { offset: 0xD5500, size: 0x8, addend: 0x0, symName: '__ZN4core3ptr84drop_in_place$LT$core..option..Option$LT$serde_yaml..libyaml..parser..Anchor$GT$$GT$17h2479e38aa408fe15E', symObjAddr: 0x34B0, symBinAddr: 0x44E9C, symSize: 0x44 }
  - { offset: 0xD552F, size: 0x8, addend: 0x0, symName: '__ZN4core3ptr84drop_in_place$LT$core..option..Option$LT$serde_yaml..libyaml..parser..Parser$GT$$GT$17h92c8bcd5cc6dbf06E', symObjAddr: 0x34F4, symBinAddr: 0x44EE0, symSize: 0x44 }
  - { offset: 0xD555E, size: 0x8, addend: 0x0, symName: '__ZN4core3ptr85drop_in_place$LT$$LP$serde_yaml..de..Event$C$serde_yaml..libyaml..error..Mark$RP$$GT$17hb029a9158f50cdfcE', symObjAddr: 0x355C, symBinAddr: 0x44F24, symSize: 0x24 }
  - { offset: 0xD558D, size: 0x8, addend: 0x0, symName: '__ZN4core3ptr87drop_in_place$LT$alloc..boxed..Box$LT$serde_yaml..libyaml..parser..ParserPinned$GT$$GT$17hd0dbcbc218e26d5fE', symObjAddr: 0x3580, symBinAddr: 0x44F48, symSize: 0x60 }
  - { offset: 0xD55BC, size: 0x8, addend: 0x0, symName: '__ZN4core3ptr95drop_in_place$LT$$u5b$$LP$serde_yaml..de..Event$C$serde_yaml..libyaml..error..Mark$RP$$u5d$$GT$17h541e4544e2735486E', symObjAddr: 0x36AC, symBinAddr: 0x44FA8, symSize: 0xC4 }
  - { offset: 0xD5CE8, size: 0x8, addend: 0x0, symName: '__ZN49_$LT$usize$u20$as$u20$core..iter..range..Step$GT$17forward_unchecked17h1290c13a9258a196E', symObjAddr: 0xF88, symBinAddr: 0x43EEC, symSize: 0x50 }
  - { offset: 0xD5D90, size: 0x8, addend: 0x0, symName: __ZN4core3fmt5Write10write_char17h4f052f9dd3ed54f0E, symObjAddr: 0xFD8, symBinAddr: 0x43F3C, symSize: 0x70 }
  - { offset: 0xD5DF8, size: 0x8, addend: 0x0, symName: __ZN4core3fmt5Write9write_fmt17h7b66200b820d5446E, symObjAddr: 0x1048, symBinAddr: 0x43FAC, symSize: 0x24 }
  - { offset: 0xD5E46, size: 0x8, addend: 0x0, symName: '__ZN75_$LT$$RF$mut$u20$W$u20$as$u20$core..fmt..Write..write_fmt..SpecWriteFmt$GT$14spec_write_fmt17hdda564f236cd45bbE', symObjAddr: 0x4C48, symBinAddr: 0x45494, symSize: 0x13C }
  - { offset: 0xD6110, size: 0x8, addend: 0x0, symName: __ZN4core3ops8function6FnOnce9call_once17h2b460bb15ec32669E, symObjAddr: 0x13A4, symBinAddr: 0x43FD0, symSize: 0x2C }
  - { offset: 0xD6154, size: 0x8, addend: 0x0, symName: __ZN4core3ops8function6FnOnce9call_once17h608bf7822dce32adE, symObjAddr: 0x14B4, symBinAddr: 0x43FFC, symSize: 0x1C }
  - { offset: 0xD61AA, size: 0x8, addend: 0x0, symName: __ZN4core5slice3raw14from_raw_parts18precondition_check17hd13cb7946c59509dE, symObjAddr: 0x3C2C, symBinAddr: 0x4506C, symSize: 0x1D8 }
  - { offset: 0xD6348, size: 0x8, addend: 0x0, symName: __ZN4core5slice3raw18from_raw_parts_mut18precondition_check17h966d3f55c03d4dc6E, symObjAddr: 0x3E04, symBinAddr: 0x45244, symSize: 0x1D8 }
  - { offset: 0xD6BB6, size: 0x8, addend: 0x0, symName: '__ZN71_$LT$alloc..borrow..Cow$LT$B$GT$$u20$as$u20$core..ops..deref..Deref$GT$5deref17hae6783f9ed703605E', symObjAddr: 0x48A4, symBinAddr: 0x4541C, symSize: 0x78 }
  - { offset: 0xD84E6, size: 0x8, addend: 0x0, symName: '__ZN59_$LT$alloc..alloc..Global$u20$as$u20$core..clone..Clone$GT$5clone17h9a84b16c60be1d45E', symObjAddr: 0x3CD0, symBinAddr: 0x45A64, symSize: 0x10 }
  - { offset: 0xD853C, size: 0x8, addend: 0x0, symName: '__ZN63_$LT$alloc..alloc..Global$u20$as$u20$core..alloc..Allocator$GT$10deallocate17h39fe2c8e9af4b229E', symObjAddr: 0x4174, symBinAddr: 0x45CB8, symSize: 0x58 }
  - { offset: 0xD85C8, size: 0x8, addend: 0x0, symName: '__ZN63_$LT$alloc..alloc..Global$u20$as$u20$core..alloc..Allocator$GT$8allocate17h25aedd1ca0e99eb0E', symObjAddr: 0x41CC, symBinAddr: 0x45D10, symSize: 0x34 }
  - { offset: 0xD8603, size: 0x8, addend: 0x0, symName: __ZN5alloc5alloc15exchange_malloc17h5b9a16927b9a7144E, symObjAddr: 0x3CE0, symBinAddr: 0x45A74, symSize: 0xAC }
  - { offset: 0xD9386, size: 0x8, addend: 0x0, symName: '__ZN48_$LT$$RF$A$u20$as$u20$core..alloc..Allocator$GT$10deallocate17h3713d352619c3938E', symObjAddr: 0x2CFC, symBinAddr: 0x455E0, symSize: 0x38 }
  - { offset: 0xD945B, size: 0x8, addend: 0x0, symName: '__ZN4core3f6421_$LT$impl$u20$f64$GT$8copysign17h365573dfb060457aE', symObjAddr: 0x2E00, symBinAddr: 0x45618, symSize: 0x4C }
  - { offset: 0xD94B6, size: 0x8, addend: 0x0, symName: '__ZN4core3f6421_$LT$impl$u20$f64$GT$9is_finite17hcd08119dd494c0f0E', symObjAddr: 0x2E4C, symBinAddr: 0x45664, symSize: 0x2C }
  - { offset: 0xD9560, size: 0x8, addend: 0x0, symName: __ZN4core4char7methods15encode_utf8_raw17h2e80aa0eb752613aE, symObjAddr: 0x2E78, symBinAddr: 0x45690, symSize: 0x100 }
  - { offset: 0xD9681, size: 0x8, addend: 0x0, symName: '__ZN4core4char7methods22_$LT$impl$u20$char$GT$8to_digit17h0d7f20cf606e14f8E', symObjAddr: 0x3328, symBinAddr: 0x45790, symSize: 0x14C }
  - { offset: 0xD974D, size: 0x8, addend: 0x0, symName: __ZN4core4char7methods25encode_utf8_raw_unchecked17h0ac888d5982efb5bE, symObjAddr: 0x3474, symBinAddr: 0x458DC, symSize: 0x188 }
  - { offset: 0xD9D3A, size: 0x8, addend: 0x0, symName: __ZN5alloc5alloc6Global10alloc_impl17h30ae39488f4be728E, symObjAddr: 0x3DC4, symBinAddr: 0x45B20, symSize: 0x198 }
  - { offset: 0xDA27C, size: 0x8, addend: 0x0, symName: '__ZN45_$LT$T$u20$as$u20$alloc..string..ToString$GT$9to_string17ha0805ce6b95cbed0E', symObjAddr: 0xDB8, symBinAddr: 0x45DF8, symSize: 0x24 }
  - { offset: 0xDA2B9, size: 0x8, addend: 0x0, symName: '__ZN76_$LT$alloc..string..String$u20$as$u20$core..convert..From$LT$$RF$str$GT$$GT$4from17h9d5817883da9f54eE', symObjAddr: 0x3B54, symBinAddr: 0x466E8, symSize: 0x50 }
  - { offset: 0xDA3C4, size: 0x8, addend: 0x0, symName: '__ZN65_$LT$alloc..string..String$u20$as$u20$core..ops..deref..Deref$GT$5deref17hb86f1195fca0109aE', symObjAddr: 0x25B0, symBinAddr: 0x4643C, symSize: 0x24 }
  - { offset: 0xDA3F8, size: 0x8, addend: 0x0, symName: '__ZN58_$LT$alloc..string..String$u20$as$u20$core..fmt..Write$GT$10write_char17h695c7bcbb3b3e806E', symObjAddr: 0x1F58, symBinAddr: 0x46074, symSize: 0x30 }
  - { offset: 0xDA435, size: 0x8, addend: 0x0, symName: '__ZN58_$LT$alloc..string..String$u20$as$u20$core..fmt..Write$GT$9write_str17hf6edd067c1d76f3fE', symObjAddr: 0x1F88, symBinAddr: 0x460A4, symSize: 0x38 }
  - { offset: 0xDA4B2, size: 0x8, addend: 0x0, symName: '__ZN60_$LT$alloc..string..String$u20$as$u20$core..fmt..Display$GT$3fmt17h2d8ab600de1210bdE', symObjAddr: 0x2448, symBinAddr: 0x463BC, symSize: 0x80 }
  - { offset: 0xDA617, size: 0x8, addend: 0x0, symName: '__ZN68_$LT$core..fmt..Arguments$u20$as$u20$alloc..string..SpecToString$GT$14spec_to_string17h752ee0fbd863ff0cE', symObjAddr: 0x2864, symBinAddr: 0x46460, symSize: 0x48 }
  - { offset: 0xDA64B, size: 0x8, addend: 0x0, symName: '__ZN73_$LT$alloc..string..String$u20$as$u20$core..cmp..PartialEq$LT$str$GT$$GT$2ne17h83f6c17a2400c04dE', symObjAddr: 0x3878, symBinAddr: 0x464A8, symSize: 0x104 }
  - { offset: 0xDACED, size: 0x8, addend: 0x0, symName: __ZN5alloc3fmt6format17hf27f375c66479886E, symObjAddr: 0x2048, symBinAddr: 0x460DC, symSize: 0xC4 }
  - { offset: 0xDAD52, size: 0x8, addend: 0x0, symName: '__ZN5alloc3fmt6format28_$u7b$$u7b$closure$u7d$$u7d$17ha02d30e0dfbfaf13E', symObjAddr: 0x210C, symBinAddr: 0x461A0, symSize: 0x48 }
  - { offset: 0xDB075, size: 0x8, addend: 0x0, symName: '__ZN4core3cmp5impls69_$LT$impl$u20$core..cmp..PartialEq$LT$$RF$B$GT$$u20$for$u20$$RF$A$GT$2ne17h467bea07036840a8E', symObjAddr: 0xE6C, symBinAddr: 0x45E1C, symSize: 0x3C }
  - { offset: 0xDB159, size: 0x8, addend: 0x0, symName: '__ZN104_$LT$core..iter..adapters..copied..Copied$LT$I$GT$$u20$as$u20$core..iter..traits..iterator..Iterator$GT$8try_fold17ha7bd0cc2024b479eE', symObjAddr: 0x1AC, symBinAddr: 0x45D44, symSize: 0x24 }
  - { offset: 0xDB1D4, size: 0x8, addend: 0x0, symName: '__ZN4core4iter8adapters6copied13copy_try_fold28_$u7b$$u7b$closure$u7d$$u7d$17hc3f4ab09ac8235f2E', symObjAddr: 0x1724, symBinAddr: 0x46000, symSize: 0x34 }
  - { offset: 0xDB28B, size: 0x8, addend: 0x0, symName: __ZN4core4iter6traits8iterator8Iterator3all17h3310453d1f74465fE, symObjAddr: 0x10D0, symBinAddr: 0x45FC4, symSize: 0x3C }
  - { offset: 0xDB5B1, size: 0x8, addend: 0x0, symName: '__ZN42_$LT$$RF$T$u20$as$u20$core..fmt..Debug$GT$3fmt17hff243eeca7f28287E', symObjAddr: 0xC5C, symBinAddr: 0x45D68, symSize: 0x30 }
  - { offset: 0xDB5FD, size: 0x8, addend: 0x0, symName: '__ZN44_$LT$$RF$T$u20$as$u20$core..fmt..Display$GT$3fmt17h1b3619743ab11b93E', symObjAddr: 0xC8C, symBinAddr: 0x45D98, symSize: 0x30 }
  - { offset: 0xDB643, size: 0x8, addend: 0x0, symName: '__ZN44_$LT$$RF$T$u20$as$u20$core..fmt..Display$GT$3fmt17h4263a9b173f55561E', symObjAddr: 0xCBC, symBinAddr: 0x45DC8, symSize: 0x30 }
  - { offset: 0xDB8B1, size: 0x8, addend: 0x0, symName: __ZN4core3fmt5Write9write_fmt17h4618f4fb6fab37e4E, symObjAddr: 0xEF0, symBinAddr: 0x45E58, symSize: 0x24 }
  - { offset: 0xDB8FF, size: 0x8, addend: 0x0, symName: '__ZN75_$LT$$RF$mut$u20$W$u20$as$u20$core..fmt..Write..write_fmt..SpecWriteFmt$GT$14spec_write_fmt17h0218c950b6920615E', symObjAddr: 0x3A18, symBinAddr: 0x465AC, symSize: 0x13C }
  - { offset: 0xDB9C1, size: 0x8, addend: 0x0, symName: '__ZN53_$LT$core..fmt..Error$u20$as$u20$core..fmt..Debug$GT$3fmt17h8aaa32f8029fd4d4E', symObjAddr: 0x1E6C, symBinAddr: 0x46034, symSize: 0x40 }
  - { offset: 0xDBDD6, size: 0x8, addend: 0x0, symName: __ZN4core3fmt9Formatter9write_fmt17h0efef707af1b5ed9E, symObjAddr: 0xF14, symBinAddr: 0x45E7C, symSize: 0x148 }
  - { offset: 0xDC0BE, size: 0x8, addend: 0x0, symName: __ZN5alloc6string6String4push17h7005516490a36c53E, symObjAddr: 0x2154, symBinAddr: 0x461E8, symSize: 0x114 }
  - { offset: 0xDC381, size: 0x8, addend: 0x0, symName: __ZN5alloc6string6String6as_str17h2a26fd20e1443da8E, symObjAddr: 0x2268, symBinAddr: 0x462FC, symSize: 0x70 }
  - { offset: 0xDC542, size: 0x8, addend: 0x0, symName: __ZN5alloc6string6String8push_str17h30787b8d2d135715E, symObjAddr: 0x22F8, symBinAddr: 0x4636C, symSize: 0x50 }
  - { offset: 0xDC90C, size: 0x8, addend: 0x0, symName: '__ZN85_$LT$serde_yaml..de..invalid_type..InvalidType$u20$as$u20$serde_core..de..Visitor$GT$9expecting17h3b32685e6f50a5d0E', symObjAddr: 0x6290, symBinAddr: 0x4BF3C, symSize: 0x3C }
  - { offset: 0xDC979, size: 0x8, addend: 0x0, symName: '__ZN109_$LT$serde_yaml..de..DeserializerFromEvents..end_mapping..ExpectedMap$u20$as$u20$serde_core..de..Expected$GT$3fmt17hc34dd569d03a495cE', symObjAddr: 0x24, symBinAddr: 0x46738, symSize: 0xC0 }
  - { offset: 0xDCA13, size: 0x8, addend: 0x0, symName: '__ZN110_$LT$serde_yaml..de..DeserializerFromEvents..end_sequence..ExpectedSeq$u20$as$u20$serde_core..de..Expected$GT$3fmt17hcc6dbd69c9ce9144E', symObjAddr: 0x52EC, symBinAddr: 0x4B1AC, symSize: 0xC0 }
  - { offset: 0xDCAB1, size: 0x8, addend: 0x0, symName: '__ZN10serde_yaml2de22DeserializerFromEvents10next_event28_$u7b$$u7b$closure$u7d$$u7d$17h42f138b47e9443b7E', symObjAddr: 0x2BC0, symBinAddr: 0x49280, symSize: 0x28 }
  - { offset: 0xDCAF4, size: 0x8, addend: 0x0, symName: '__ZN10serde_yaml2de22DeserializerFromEvents10peek_event28_$u7b$$u7b$closure$u7d$$u7d$17h8083080694de3e9aE', symObjAddr: 0x2C1C, symBinAddr: 0x492DC, symSize: 0x28 }
  - { offset: 0xDCB37, size: 0x8, addend: 0x0, symName: '__ZN10serde_yaml2de22DeserializerFromEvents15next_event_mark28_$u7b$$u7b$closure$u7d$$u7d$17hd005072b2610e233E', symObjAddr: 0x2FD8, symBinAddr: 0x49698, symSize: 0xB0 }
  - { offset: 0xDCBAE, size: 0x8, addend: 0x0, symName: __ZN10serde_yaml2de10parse_bool17h94706ad809b6df06E, symObjAddr: 0x85C, symBinAddr: 0x46F70, symSize: 0x120 }
  - { offset: 0xDCBDC, size: 0x8, addend: 0x0, symName: __ZN10serde_yaml2de10parse_null17h520c2f67c49e3d4cE, symObjAddr: 0x97C, symBinAddr: 0x47090, symSize: 0x144 }
  - { offset: 0xDCE36, size: 0x8, addend: 0x0, symName: __ZN10serde_yaml2de12invalid_type17h12f78fc13ff33656E, symObjAddr: 0xB68, symBinAddr: 0x47228, symSize: 0x1C4 }
  - { offset: 0xDCEBF, size: 0x8, addend: 0x0, symName: __ZN10serde_yaml2de12visit_scalar17h4d1fa9fab9b883c8E, symObjAddr: 0xD2C, symBinAddr: 0x473EC, symSize: 0x62C }
  - { offset: 0xDCFC4, size: 0x8, addend: 0x0, symName: __ZN10serde_yaml2de18parse_borrowed_str17h211022882053b4e1E, symObjAddr: 0x1358, symBinAddr: 0x47A18, symSize: 0x228 }
  - { offset: 0xDD11E, size: 0x8, addend: 0x0, symName: __ZN10serde_yaml2de18parse_negative_int17h44959cbe0cd76fecE, symObjAddr: 0x1580, symBinAddr: 0x47C40, symSize: 0x3FC }
  - { offset: 0xDD347, size: 0x8, addend: 0x0, symName: __ZN10serde_yaml2de18parse_negative_int17hdd56770ce26d5166E, symObjAddr: 0x197C, symBinAddr: 0x4803C, symSize: 0x43C }
  - { offset: 0xDD572, size: 0x8, addend: 0x0, symName: __ZN10serde_yaml2de18parse_unsigned_int17h2cbfb44f9f91f0b3E, symObjAddr: 0x1DB8, symBinAddr: 0x48478, symSize: 0x31C }
  - { offset: 0xDD658, size: 0x8, addend: 0x0, symName: __ZN10serde_yaml2de18parse_unsigned_int17h8c472e708b1ee438E, symObjAddr: 0x20D4, symBinAddr: 0x48794, symSize: 0x3B4 }
  - { offset: 0xDD740, size: 0x8, addend: 0x0, symName: __ZN10serde_yaml2de21digits_but_not_number17h2f223eb118a7efa9E, symObjAddr: 0x2488, symBinAddr: 0x48B48, symSize: 0xE0 }
  - { offset: 0xDD791, size: 0x8, addend: 0x0, symName: '__ZN10serde_yaml2de21digits_but_not_number28_$u7b$$u7b$closure$u7d$$u7d$17hc4285a1e0b4143adE', symObjAddr: 0x2568, symBinAddr: 0x48C28, symSize: 0x2C }
  - { offset: 0xDD7D2, size: 0x8, addend: 0x0, symName: __ZN10serde_yaml2de21visit_untagged_scalar17ha847fe36301d2870E, symObjAddr: 0x2594, symBinAddr: 0x48C54, symSize: 0x364 }
  - { offset: 0xDDA21, size: 0x8, addend: 0x0, symName: __ZN10serde_yaml2de33is_plain_or_tagged_literal_scalar17h9be74241611c3dedE, symObjAddr: 0x3388, symBinAddr: 0x49A48, symSize: 0xBC }
  - { offset: 0xDDA8B, size: 0x8, addend: 0x0, symName: __ZN10serde_yaml2de9parse_f6417h869c14802799f3deE, symObjAddr: 0x3444, symBinAddr: 0x49B04, symSize: 0x2AC }
  - { offset: 0xDDAFB, size: 0x8, addend: 0x0, symName: __ZN10serde_yaml2de9parse_tag17heb64be0887157cceE, symObjAddr: 0x36F0, symBinAddr: 0x49DB0, symSize: 0x144 }
  - { offset: 0xDDBB7, size: 0x8, addend: 0x0, symName: __ZN10serde_yaml2de9visit_int17h2e4c1a2de74343b7E, symObjAddr: 0x3834, symBinAddr: 0x49EF4, symSize: 0x260 }
  - { offset: 0xDDC5C, size: 0x8, addend: 0x0, symName: '__ZN71_$LT$serde_yaml..de..MapAccess$u20$as$u20$serde_core..de..MapAccess$GT$13next_key_seed17hfcd30cb89cfe6e1aE', symObjAddr: 0x5BC4, symBinAddr: 0x4B884, symSize: 0x244 }
  - { offset: 0xDDCCE, size: 0x8, addend: 0x0, symName: '__ZN71_$LT$serde_yaml..de..MapAccess$u20$as$u20$serde_core..de..MapAccess$GT$15next_value_seed17h6ee93b30a7598869E', symObjAddr: 0x5E08, symBinAddr: 0x4BAC8, symSize: 0x17C }
  - { offset: 0xDDD4E, size: 0x8, addend: 0x0, symName: '__ZN71_$LT$serde_yaml..de..MapAccess$u20$as$u20$serde_core..de..MapAccess$GT$15next_value_seed28_$u7b$$u7b$closure$u7d$$u7d$17he8aaeeb366531365E', symObjAddr: 0x5F84, symBinAddr: 0x4BC44, symSize: 0x38 }
  - { offset: 0xDDD9E, size: 0x8, addend: 0x0, symName: '__ZN71_$LT$serde_yaml..de..SeqAccess$u20$as$u20$serde_core..de..SeqAccess$GT$17next_element_seed17ha61fe0cf53d5bdf2E', symObjAddr: 0x5FBC, symBinAddr: 0x4BC7C, symSize: 0x238 }
  - { offset: 0xDDE17, size: 0x8, addend: 0x0, symName: '__ZN83_$LT$serde_yaml..de..UnitVariantAccess$u20$as$u20$serde_core..de..VariantAccess$GT$12unit_variant17h6888eb7777f04d95E', symObjAddr: 0x627C, symBinAddr: 0x4BF28, symSize: 0x14 }
  - { offset: 0xDDE4B, size: 0x8, addend: 0x0, symName: '__ZN88_$LT$serde_yaml..de..DeserializerFromEvents$u20$as$u20$serde_core..de..VariantAccess$GT$12unit_variant17h7cd70081ad6af6f0E', symObjAddr: 0x65F8, symBinAddr: 0x4BF78, symSize: 0x14 }
  - { offset: 0xDDE85, size: 0x8, addend: 0x0, symName: '__ZN99_$LT$$RF$mut$u20$serde_yaml..de..DeserializerFromEvents$u20$as$u20$serde_core..de..Deserializer$GT$15deserialize_any8enum_tag17h3f84b3c17d4fce86E', symObjAddr: 0x660C, symBinAddr: 0x4BF8C, symSize: 0x50 }
  - { offset: 0xDDEC3, size: 0x8, addend: 0x0, symName: '__ZN99_$LT$$RF$mut$u20$serde_yaml..de..DeserializerFromEvents$u20$as$u20$serde_core..de..Deserializer$GT$16deserialize_unit17h24c20b02bcf4b864E', symObjAddr: 0x665C, symBinAddr: 0x4BFDC, symSize: 0x500 }
  - { offset: 0xDE020, size: 0x8, addend: 0x0, symName: '__ZN99_$LT$$RF$mut$u20$serde_yaml..de..DeserializerFromEvents$u20$as$u20$serde_core..de..Deserializer$GT$16deserialize_unit28_$u7b$$u7b$closure$u7d$$u7d$17h0f71dba01aa802d3E', symObjAddr: 0x6B5C, symBinAddr: 0x4C4DC, symSize: 0x68 }
  - { offset: 0xDE07C, size: 0x8, addend: 0x0, symName: '__ZN99_$LT$$RF$mut$u20$serde_yaml..de..DeserializerFromEvents$u20$as$u20$serde_core..de..Deserializer$GT$23deserialize_ignored_any17hda6a6f78e85aa66aE', symObjAddr: 0x6BC4, symBinAddr: 0x4C544, symSize: 0xD4 }
  - { offset: 0xDE3F4, size: 0x8, addend: 0x0, symName: '__ZN73_$LT$serde_yaml..libyaml..tag..Tag$u20$as$u20$core..ops..deref..Deref$GT$5deref17h87a6acb87c284dbeE', symObjAddr: 0x61F4, symBinAddr: 0x4BEB4, symSize: 0x20 }
  - { offset: 0xDE426, size: 0x8, addend: 0x0, symName: '__ZN81_$LT$serde_yaml..libyaml..tag..Tag$u20$as$u20$core..cmp..PartialEq$LT$str$GT$$GT$2eq17h4b96bbc9448233b6E', symObjAddr: 0x6214, symBinAddr: 0x4BED4, symSize: 0x54 }
  - { offset: 0xDE89C, size: 0x8, addend: 0x0, symName: '__ZN112_$LT$$LT$serde_yaml..path..Path$u20$as$u20$core..fmt..Display$GT$..fmt..Parent$u20$as$u20$core..fmt..Display$GT$3fmt17hcbea7880c9246bf4E', symObjAddr: 0x53AC, symBinAddr: 0x4B26C, symSize: 0xA0 }
  - { offset: 0xDE944, size: 0x8, addend: 0x0, symName: '__ZN61_$LT$serde_yaml..path..Path$u20$as$u20$core..fmt..Display$GT$3fmt17h408b2cfbb0d509cfE', symObjAddr: 0x5900, symBinAddr: 0x4B610, symSize: 0x274 }
  - { offset: 0xDEBD8, size: 0x8, addend: 0x0, symName: '__ZN45_$LT$T$u20$as$u20$alloc..string..ToString$GT$9to_string17h74e2a9315e84cf03E', symObjAddr: 0x55CC, symBinAddr: 0x4B36C, symSize: 0x24 }
  - { offset: 0xDEC15, size: 0x8, addend: 0x0, symName: '__ZN49_$LT$T$u20$as$u20$alloc..string..SpecToString$GT$14spec_to_string17hdec64b80004fd048E', symObjAddr: 0x561C, symBinAddr: 0x4B3BC, symSize: 0xF4 }
  - { offset: 0xDF55B, size: 0x8, addend: 0x0, symName: '__ZN44_$LT$$RF$T$u20$as$u20$core..fmt..Display$GT$3fmt17h7314bfa603f1ddceE', symObjAddr: 0x556C, symBinAddr: 0x4B30C, symSize: 0x30 }
  - { offset: 0xDF5A1, size: 0x8, addend: 0x0, symName: '__ZN44_$LT$$RF$T$u20$as$u20$core..fmt..Display$GT$3fmt17ha454b6b7b22cd7ccE', symObjAddr: 0x559C, symBinAddr: 0x4B33C, symSize: 0x30 }
  - { offset: 0xE0DA6, size: 0x8, addend: 0x0, symName: '__ZN4core3cmp5impls69_$LT$impl$u20$core..cmp..PartialEq$LT$$RF$B$GT$$u20$for$u20$$RF$A$GT$2eq17h1c94041cde4588a1E', symObjAddr: 0x5710, symBinAddr: 0x4B4B0, symSize: 0x3C }
  - { offset: 0xE0E02, size: 0x8, addend: 0x0, symName: '__ZN4core5slice29_$LT$impl$u20$$u5b$T$u5d$$GT$3get17h2a77876ab3fad127E', symObjAddr: 0x58BC, symBinAddr: 0x4B5CC, symSize: 0x44 }
  - { offset: 0xE0E7E, size: 0x8, addend: 0x0, symName: __ZN10serde_core2de7Visitor10visit_bool17h430bbd9121b6a2abE, symObjAddr: 0xE4, symBinAddr: 0x467F8, symSize: 0x68 }
  - { offset: 0xE0ECD, size: 0x8, addend: 0x0, symName: __ZN10serde_core2de7Visitor10visit_i12817hd6e15755fb3792b4E, symObjAddr: 0x14C, symBinAddr: 0x46860, symSize: 0x190 }
  - { offset: 0xE0FC9, size: 0x8, addend: 0x0, symName: __ZN10serde_core2de7Visitor10visit_u12817hec833fbc79ff7787E, symObjAddr: 0x2DC, symBinAddr: 0x469F0, symSize: 0x190 }
  - { offset: 0xE10C5, size: 0x8, addend: 0x0, symName: __ZN10serde_core2de7Visitor10visit_unit17h61b5e1e578ac89d6E, symObjAddr: 0x46C, symBinAddr: 0x46B80, symSize: 0x64 }
  - { offset: 0xE1105, size: 0x8, addend: 0x0, symName: __ZN10serde_core2de7Visitor18visit_borrowed_str17hce045abb05c69d4aE, symObjAddr: 0x4D0, symBinAddr: 0x46BE4, symSize: 0x38 }
  - { offset: 0xE1154, size: 0x8, addend: 0x0, symName: __ZN10serde_core2de7Visitor9visit_f6417h3cd6b6b7a5603086E, symObjAddr: 0x508, symBinAddr: 0x46C1C, symSize: 0x6C }
  - { offset: 0xE11A3, size: 0x8, addend: 0x0, symName: __ZN10serde_core2de7Visitor9visit_i6417h491f7d333443d421E, symObjAddr: 0x574, symBinAddr: 0x46C88, symSize: 0x6C }
  - { offset: 0xE11F2, size: 0x8, addend: 0x0, symName: __ZN10serde_core2de7Visitor9visit_str17h55ad881d6276a14fE, symObjAddr: 0x5E0, symBinAddr: 0x46CF4, symSize: 0x78 }
  - { offset: 0xE1241, size: 0x8, addend: 0x0, symName: __ZN10serde_core2de7Visitor9visit_u6417h9a283107f78333c4E, symObjAddr: 0x658, symBinAddr: 0x46D6C, symSize: 0x6C }
  - { offset: 0xE1296, size: 0x8, addend: 0x0, symName: __ZN10serde_core2de9MapAccess10next_entry17h8ad2f2306cf8ab06E, symObjAddr: 0x6C4, symBinAddr: 0x46DD8, symSize: 0x24 }
  - { offset: 0xE12DF, size: 0x8, addend: 0x0, symName: __ZN10serde_core2de9MapAccess15next_entry_seed17hd3ea17fb8e583892E, symObjAddr: 0x6E8, symBinAddr: 0x46DFC, symSize: 0x150 }
  - { offset: 0xE13BA, size: 0x8, addend: 0x0, symName: __ZN10serde_core2de9SeqAccess12next_element17h2ae91bc39d65a8d3E, symObjAddr: 0x838, symBinAddr: 0x46F4C, symSize: 0x24 }
  - { offset: 0xE1400, size: 0x8, addend: 0x0, symName: '__ZN46_$LT$T$u20$as$u20$serde_core..de..Expected$GT$3fmt17h8e1eec051a8f1bc3E', symObjAddr: 0x55F0, symBinAddr: 0x4B390, symSize: 0x2C }
  - { offset: 0xE23F3, size: 0x8, addend: 0x0, symName: __ZN10serde_yaml2de12Deserializer8from_str17hd8335dc23518151bE, symObjAddr: 0xB14, symBinAddr: 0x471D4, symSize: 0x54 }
  - { offset: 0xE2473, size: 0x8, addend: 0x0, symName: __ZN10serde_yaml2de22DeserializerFromEvents10ignore_any17ha3335c116380b2c0E, symObjAddr: 0x28F8, symBinAddr: 0x48FB8, symSize: 0x294 }
  - { offset: 0xE24D0, size: 0x8, addend: 0x0, symName: __ZN10serde_yaml2de22DeserializerFromEvents10next_event17h46d105242d3e6156E, symObjAddr: 0x2B8C, symBinAddr: 0x4924C, symSize: 0x34 }
  - { offset: 0xE2500, size: 0x8, addend: 0x0, symName: __ZN10serde_yaml2de22DeserializerFromEvents10peek_event17h053d3d82e303e276E, symObjAddr: 0x2BE8, symBinAddr: 0x492A8, symSize: 0x34 }
  - { offset: 0xE2523, size: 0x8, addend: 0x0, symName: __ZN10serde_yaml2de22DeserializerFromEvents11end_mapping17ha68768d9263160d2E, symObjAddr: 0x2C44, symBinAddr: 0x49304, symSize: 0x1A0 }
  - { offset: 0xE25EC, size: 0x8, addend: 0x0, symName: __ZN10serde_yaml2de22DeserializerFromEvents12end_sequence17hf1f389945fa5f2c3E, symObjAddr: 0x2DE4, symBinAddr: 0x494A4, symSize: 0x1A8 }
  - { offset: 0xE26D4, size: 0x8, addend: 0x0, symName: __ZN10serde_yaml2de22DeserializerFromEvents15next_event_mark17hfc55489a6c452bb6E, symObjAddr: 0x2F8C, symBinAddr: 0x4964C, symSize: 0x4C }
  - { offset: 0xE26F7, size: 0x8, addend: 0x0, symName: __ZN10serde_yaml2de22DeserializerFromEvents15peek_event_mark17hc25e776fb885df11E, symObjAddr: 0x3088, symBinAddr: 0x49748, symSize: 0x118 }
  - { offset: 0xE2766, size: 0x8, addend: 0x0, symName: __ZN10serde_yaml2de22DeserializerFromEvents4jump17h119b3cc33b3a7dd2E, symObjAddr: 0x31A0, symBinAddr: 0x49860, symSize: 0x1E8 }
  - { offset: 0xE2800, size: 0x8, addend: 0x0, symName: __ZN10serde_yaml6loader6Loader13next_document17h9636aba9cd718649E, symObjAddr: 0x4294, symBinAddr: 0x4A154, symSize: 0xC78 }
  - { offset: 0xE2A11, size: 0x8, addend: 0x0, symName: __ZN10serde_yaml6loader6Loader3new17h6b6e6fe2430cc1cdE, symObjAddr: 0x4F0C, symBinAddr: 0x4ADCC, symSize: 0x38C }
  - { offset: 0xE2AFD, size: 0x8, addend: 0x0, symName: __ZN10serde_yaml7libyaml3tag3Tag11starts_with17h699628b7e8a4e960E, symObjAddr: 0x5298, symBinAddr: 0x4B158, symSize: 0x54 }
  - { offset: 0xE2BD7, size: 0x8, addend: 0x0, symName: '__ZN4core4iter8adapters7step_by15StepBy$LT$I$GT$3new17h27b04a1ded4f45c5E', symObjAddr: 0x57DC, symBinAddr: 0x4B4EC, symSize: 0xE0 }
  - { offset: 0xE2FEF, size: 0x8, addend: 0x0, symName: '__ZN107_$LT$alloc..sync..Arc$LT$T$C$A$GT$$u20$as$u20$core..convert..From$LT$alloc..boxed..Box$LT$T$C$A$GT$$GT$$GT$4from17h7e8ef9aadfec483fE', symObjAddr: 0x0, symBinAddr: 0x4C618, symSize: 0x24 }
  - { offset: 0xE3D04, size: 0x8, addend: 0x0, symName: '__ZN4core3num20_$LT$impl$u20$u8$GT$14is_ascii_digit17h04cde8f3cdde082cE', symObjAddr: 0x540, symBinAddr: 0x4C848, symSize: 0x64 }
  - { offset: 0xE3EAA, size: 0x8, addend: 0x0, symName: '__ZN4core3num21_$LT$impl$u20$i64$GT$14from_str_radix17h4ed9fcebc93fbb4bE', symObjAddr: 0x5E4, symBinAddr: 0x4C8AC, symSize: 0x2C }
  - { offset: 0xE3EE7, size: 0x8, addend: 0x0, symName: '__ZN4core3num21_$LT$impl$u20$i64$GT$16from_ascii_radix17h3d2f4aa27a5fe904E', symObjAddr: 0x610, symBinAddr: 0x4C8D8, symSize: 0x7D4 }
  - { offset: 0xE43B9, size: 0x8, addend: 0x0, symName: '__ZN4core3num21_$LT$impl$u20$u64$GT$14from_str_radix17h4aee72faff101e64E', symObjAddr: 0xDE4, symBinAddr: 0x4D0AC, symSize: 0x2C }
  - { offset: 0xE43F6, size: 0x8, addend: 0x0, symName: '__ZN4core3num21_$LT$impl$u20$u64$GT$16from_ascii_radix17h0b3cb3782e0e87aaE', symObjAddr: 0xE10, symBinAddr: 0x4D0D8, symSize: 0x4C0 }
  - { offset: 0xE475D, size: 0x8, addend: 0x0, symName: '__ZN4core3num22_$LT$impl$u20$i128$GT$14from_str_radix17hdb24bc341842da66E', symObjAddr: 0x12D0, symBinAddr: 0x4D598, symSize: 0x2C }
  - { offset: 0xE479A, size: 0x8, addend: 0x0, symName: '__ZN4core3num22_$LT$impl$u20$i128$GT$16from_ascii_radix17he3ab9c01219bfd6cE', symObjAddr: 0x12FC, symBinAddr: 0x4D5C4, symSize: 0x990 }
  - { offset: 0xE4DDF, size: 0x8, addend: 0x0, symName: '__ZN4core3num22_$LT$impl$u20$u128$GT$14from_str_radix17hcb27ec783e95d4f3E', symObjAddr: 0x1C8C, symBinAddr: 0x4DF54, symSize: 0x2C }
  - { offset: 0xE4E1C, size: 0x8, addend: 0x0, symName: '__ZN4core3num22_$LT$impl$u20$u128$GT$16from_ascii_radix17h0cdf19665ee51a04E', symObjAddr: 0x1CB8, symBinAddr: 0x4DF80, symSize: 0x59C }
  - { offset: 0xE5185, size: 0x8, addend: 0x0, symName: '__ZN4core3num23_$LT$impl$u20$usize$GT$11checked_sub17h4a025d54cf6a6789E', symObjAddr: 0x2344, symBinAddr: 0x4E51C, symSize: 0x6C }
  - { offset: 0xE51F1, size: 0x8, addend: 0x0, symName: '__ZN4core3num23_$LT$impl$u20$usize$GT$13unchecked_add18precondition_check17hd234041a41191a6cE', symObjAddr: 0x23B0, symBinAddr: 0x4E588, symSize: 0xB0 }
  - { offset: 0xE6573, size: 0x8, addend: 0x0, symName: '__ZN110_$LT$core..iter..adapters..enumerate..Enumerate$LT$I$GT$$u20$as$u20$core..iter..traits..iterator..Iterator$GT$4next17hae766848f909ce9aE', symObjAddr: 0x104, symBinAddr: 0x4C63C, symSize: 0xE0 }
  - { offset: 0xE6659, size: 0x8, addend: 0x0, symName: '__ZN110_$LT$core..iter..adapters..enumerate..Enumerate$LT$I$GT$$u20$as$u20$core..iter..traits..iterator..Iterator$GT$4next17hcac2d558daf80884E', symObjAddr: 0x1E4, symBinAddr: 0x4C71C, symSize: 0xE0 }
  - { offset: 0xE67A1, size: 0x8, addend: 0x0, symName: '__ZN44_$LT$$RF$T$u20$as$u20$core..fmt..Display$GT$3fmt17h3fec3da348d90765E', symObjAddr: 0x334, symBinAddr: 0x4C7FC, symSize: 0x3C }
  - { offset: 0xE69BF, size: 0x8, addend: 0x0, symName: __ZN4core3mem6forget17hcbf851700c767a11E, symObjAddr: 0x498, symBinAddr: 0x4C838, symSize: 0x10 }
  - { offset: 0xE7860, size: 0x8, addend: 0x0, symName: '__ZN107_$LT$alloc..sync..Arc$LT$T$C$A$GT$$u20$as$u20$core..convert..From$LT$alloc..boxed..Box$LT$T$C$A$GT$$GT$$GT$4from17h7e8ef9aadfec483fE', symObjAddr: 0x0, symBinAddr: 0x4C618, symSize: 0x24 }
  - { offset: 0xE7A81, size: 0x8, addend: 0x0, symName: '__ZN5alloc4sync16Arc$LT$T$C$A$GT$19allocate_for_ptr_in28_$u7b$$u7b$closure$u7d$$u7d$17h3d3520edfb05dabbE', symObjAddr: 0x2B68, symBinAddr: 0x4E9B0, symSize: 0x20 }
  - { offset: 0xE7AD2, size: 0x8, addend: 0x0, symName: '__ZN5alloc4sync16Arc$LT$T$C$A$GT$19allocate_for_ptr_in28_$u7b$$u7b$closure$u7d$$u7d$17hc60cd68279bd70c2E', symObjAddr: 0x2B88, symBinAddr: 0x4E9D0, symSize: 0x2C }
  - { offset: 0xE7B83, size: 0x8, addend: 0x0, symName: '__ZN68_$LT$alloc..sync..Arc$LT$T$C$A$GT$$u20$as$u20$core..clone..Clone$GT$5clone17hb743ae84860032fdE', symObjAddr: 0x32FC, symBinAddr: 0x4EBEC, symSize: 0x84 }
  - { offset: 0xE7C7C, size: 0x8, addend: 0x0, symName: '__ZN71_$LT$alloc..sync..Arc$LT$T$C$A$GT$$u20$as$u20$core..ops..drop..Drop$GT$4drop17h881dcd33d8609bfaE', symObjAddr: 0x33D8, symBinAddr: 0x4EC70, symSize: 0x8C }
  - { offset: 0xE7E0A, size: 0x8, addend: 0x0, symName: '__ZN72_$LT$alloc..sync..Weak$LT$T$C$A$GT$$u20$as$u20$core..ops..drop..Drop$GT$4drop17h2eaa832eb9b88490E', symObjAddr: 0x3464, symBinAddr: 0x4ECFC, symSize: 0x154 }
  - { offset: 0xE8015, size: 0x8, addend: 0x0, symName: '__ZN73_$LT$alloc..sync..Arc$LT$T$C$A$GT$$u20$as$u20$core..ops..deref..Deref$GT$5deref17h28e1cfc7b5123598E', symObjAddr: 0x35B8, symBinAddr: 0x4EE50, symSize: 0x1C }
  - { offset: 0xE83EF, size: 0x8, addend: 0x0, symName: '__ZN77_$LT$alloc..raw_vec..RawVec$LT$T$C$A$GT$$u20$as$u20$core..ops..drop..Drop$GT$4drop17h0961f3231924d006E', symObjAddr: 0x35D4, symBinAddr: 0x4EE6C, symSize: 0x30 }
  - { offset: 0xE842B, size: 0x8, addend: 0x0, symName: '__ZN77_$LT$alloc..raw_vec..RawVec$LT$T$C$A$GT$$u20$as$u20$core..ops..drop..Drop$GT$4drop17h4061ec14bc20c218E', symObjAddr: 0x3638, symBinAddr: 0x4EE9C, symSize: 0x34 }
  - { offset: 0xE8B67, size: 0x8, addend: 0x0, symName: '__ZN5alloc4sync12Arc$LT$T$GT$19allocate_for_layout17h17117cf9b26a562fE', symObjAddr: 0x27F0, symBinAddr: 0x4E638, symSize: 0x170 }
  - { offset: 0xE8EE9, size: 0x8, addend: 0x0, symName: '__ZN5alloc4sync16Arc$LT$T$C$A$GT$11from_box_in17h81eef78be9a193dcE', symObjAddr: 0x2960, symBinAddr: 0x4E7A8, symSize: 0x208 }
  - { offset: 0xE91D5, size: 0x8, addend: 0x0, symName: '__ZN5alloc4sync16Arc$LT$T$C$A$GT$9drop_slow17ha1bfb2a54e078848E', symObjAddr: 0x2BB4, symBinAddr: 0x4E9FC, symSize: 0x74 }
  - { offset: 0xE927A, size: 0x8, addend: 0x0, symName: '__ZN5alloc7raw_vec19RawVec$LT$T$C$A$GT$8grow_one17ha98c8e3692b8d322E', symObjAddr: 0x2C28, symBinAddr: 0x4EA70, symSize: 0x80 }
  - { offset: 0xE934A, size: 0x8, addend: 0x0, symName: '__ZN5alloc7raw_vec19RawVec$LT$T$C$A$GT$8grow_one17he23afa47cac8cc9dE', symObjAddr: 0x2D2C, symBinAddr: 0x4EAF0, symSize: 0x88 }
  - { offset: 0xE94E9, size: 0x8, addend: 0x0, symName: '__ZN5alloc7raw_vec19RawVec$LT$T$C$A$GT$8into_box17haa6c9da109ebf006E', symObjAddr: 0x2E3C, symBinAddr: 0x4EB78, symSize: 0x74 }
  - { offset: 0xEB073, size: 0x8, addend: 0x0, symName: __ZN4core4iter6traits8iterator8Iterator8try_fold17h25057fa498fdbd85E, symObjAddr: 0xE4C, symBinAddr: 0x4EED0, symSize: 0x12C }
  - { offset: 0xEB21F, size: 0x8, addend: 0x0, symName: '__ZN91_$LT$core..slice..iter..Iter$LT$T$GT$$u20$as$u20$core..iter..traits..iterator..Iterator$GT$3any17h4b314855d470f01aE', symObjAddr: 0x2628, symBinAddr: 0x4F020, symSize: 0xE4 }
  - { offset: 0xEB2FA, size: 0x8, addend: 0x0, symName: '__ZN91_$LT$core..slice..iter..Iter$LT$T$GT$$u20$as$u20$core..iter..traits..iterator..Iterator$GT$4fold17h435c8283d79e9226E', symObjAddr: 0x270C, symBinAddr: 0x4F104, symSize: 0x1B4 }
  - { offset: 0xEB42C, size: 0x8, addend: 0x0, symName: '__ZN91_$LT$core..slice..iter..Iter$LT$T$GT$$u20$as$u20$core..iter..traits..iterator..Iterator$GT$4next17h6a57d7d53f865ae2E', symObjAddr: 0x2E30, symBinAddr: 0x4F2B8, symSize: 0x84 }
  - { offset: 0xEB4E2, size: 0x8, addend: 0x0, symName: '__ZN91_$LT$core..slice..iter..Iter$LT$T$GT$$u20$as$u20$core..iter..traits..iterator..Iterator$GT$4next17hbfea4e21ac4994e3E', symObjAddr: 0x2F38, symBinAddr: 0x4F33C, symSize: 0x84 }
  - { offset: 0xEB5D4, size: 0x8, addend: 0x0, symName: '__ZN98_$LT$core..slice..iter..ChunksExact$LT$T$GT$$u20$as$u20$core..iter..traits..iterator..Iterator$GT$4next17h1e0904df334124acE', symObjAddr: 0x3324, symBinAddr: 0x4F3C0, symSize: 0x140 }
  - { offset: 0xEBC92, size: 0x8, addend: 0x0, symName: '__ZN86_$LT$core..marker..PhantomData$LT$T$GT$$u20$as$u20$serde_core..de..DeserializeSeed$GT$11deserialize17hd88de8c6a4c98506E', symObjAddr: 0x251C, symBinAddr: 0x4EFFC, symSize: 0x24 }
  - { offset: 0xEC9DE, size: 0x8, addend: 0x0, symName: '__ZN4core3cmp5impls50_$LT$impl$u20$core..cmp..Ord$u20$for$u20$usize$GT$3cmp17ha180d0e24b0fdf24E', symObjAddr: 0x360, symBinAddr: 0x4F57C, symSize: 0x38 }
  - { offset: 0xECA21, size: 0x8, addend: 0x0, symName: '__ZN4core3cmp5impls53_$LT$impl$u20$core..cmp..PartialEq$u20$for$u20$u8$GT$2eq17h8f46c89fa6c6b8d6E', symObjAddr: 0x398, symBinAddr: 0x4F5B4, symSize: 0x2C }
  - { offset: 0xECA64, size: 0x8, addend: 0x0, symName: '__ZN4core3cmp5impls59_$LT$impl$u20$core..cmp..PartialEq$u20$for$u20$$LP$$RP$$GT$2eq17h069ab036cada791bE', symObjAddr: 0x518, symBinAddr: 0x4F5E0, symSize: 0x1C }
  - { offset: 0xECAA7, size: 0x8, addend: 0x0, symName: '__ZN4core3cmp5impls69_$LT$impl$u20$core..cmp..PartialEq$LT$$RF$B$GT$$u20$for$u20$$RF$A$GT$2eq17ha1978030579d5f47E', symObjAddr: 0x534, symBinAddr: 0x4F5FC, symSize: 0x44 }
  - { offset: 0xECAF6, size: 0x8, addend: 0x0, symName: '__ZN4core3cmp5impls69_$LT$impl$u20$core..cmp..PartialEq$LT$$RF$B$GT$$u20$for$u20$$RF$A$GT$2eq17ha5aab13c5fb18a5dE', symObjAddr: 0x578, symBinAddr: 0x4F640, symSize: 0x34 }
  - { offset: 0xECBEB, size: 0x8, addend: 0x0, symName: '__ZN153_$LT$core..result..Result$LT$T$C$F$GT$$u20$as$u20$core..ops..try_trait..FromResidual$LT$core..result..Result$LT$core..convert..Infallible$C$E$GT$$GT$$GT$13from_residual17h23a88aa505391538E', symObjAddr: 0x90, symBinAddr: 0x4F500, symSize: 0x34 }
  - { offset: 0xECC52, size: 0x8, addend: 0x0, symName: '__ZN153_$LT$core..result..Result$LT$T$C$F$GT$$u20$as$u20$core..ops..try_trait..FromResidual$LT$core..result..Result$LT$core..convert..Infallible$C$E$GT$$GT$$GT$13from_residual17h8d2cf999252367cdE', symObjAddr: 0x128, symBinAddr: 0x4F534, symSize: 0x24 }
  - { offset: 0xECC9B, size: 0x8, addend: 0x0, symName: '__ZN153_$LT$core..result..Result$LT$T$C$F$GT$$u20$as$u20$core..ops..try_trait..FromResidual$LT$core..result..Result$LT$core..convert..Infallible$C$E$GT$$GT$$GT$13from_residual17hc5d87d9d5412b08fE', symObjAddr: 0x1B8, symBinAddr: 0x4F558, symSize: 0x24 }
  - { offset: 0xED3F0, size: 0x8, addend: 0x0, symName: '__ZN79_$LT$core..result..Result$LT$T$C$E$GT$$u20$as$u20$core..ops..try_trait..Try$GT$6branch17h35332b3603f9cf67E', symObjAddr: 0x2498, symBinAddr: 0x4FFE8, symSize: 0x88 }
  - { offset: 0xED46D, size: 0x8, addend: 0x0, symName: '__ZN79_$LT$core..result..Result$LT$T$C$E$GT$$u20$as$u20$core..ops..try_trait..Try$GT$6branch17h88e6fb7fe648bc98E', symObjAddr: 0x25D8, symBinAddr: 0x50070, symSize: 0x68 }
  - { offset: 0xED4EA, size: 0x8, addend: 0x0, symName: '__ZN79_$LT$core..result..Result$LT$T$C$E$GT$$u20$as$u20$core..ops..try_trait..Try$GT$6branch17ha6f66267f1e88daeE', symObjAddr: 0x26D0, symBinAddr: 0x500D8, symSize: 0x68 }
  - { offset: 0xED567, size: 0x8, addend: 0x0, symName: '__ZN79_$LT$core..result..Result$LT$T$C$E$GT$$u20$as$u20$core..ops..try_trait..Try$GT$6branch17hc188a60ca4d8b4b8E', symObjAddr: 0x27B8, symBinAddr: 0x50140, symSize: 0x54 }
  - { offset: 0xED5E3, size: 0x8, addend: 0x0, symName: '__ZN79_$LT$core..result..Result$LT$T$C$E$GT$$u20$as$u20$core..ops..try_trait..Try$GT$6branch17hecb0056b3747744eE', symObjAddr: 0x2898, symBinAddr: 0x50194, symSize: 0x40 }
  - { offset: 0xED65F, size: 0x8, addend: 0x0, symName: '__ZN79_$LT$core..result..Result$LT$T$C$E$GT$$u20$as$u20$core..ops..try_trait..Try$GT$6branch17hfbbef98ed950b504E', symObjAddr: 0x28D8, symBinAddr: 0x501D4, symSize: 0x74 }
  - { offset: 0xEE1D1, size: 0x8, addend: 0x0, symName: '__ZN4core3str21_$LT$impl$u20$str$GT$11starts_with17hd0ce0e29e2a117c1E', symObjAddr: 0x964, symBinAddr: 0x4F8B0, symSize: 0x58 }
  - { offset: 0xEE217, size: 0x8, addend: 0x0, symName: '__ZN4core3str21_$LT$impl$u20$str$GT$11starts_with17he7638df27b1efa90E', symObjAddr: 0x9BC, symBinAddr: 0x4F908, symSize: 0x44 }
  - { offset: 0xEE25D, size: 0x8, addend: 0x0, symName: '__ZN4core3str21_$LT$impl$u20$str$GT$12strip_prefix17h100b4839f9d09185E', symObjAddr: 0xA3C, symBinAddr: 0x4F94C, symSize: 0x44 }
  - { offset: 0xEE2A3, size: 0x8, addend: 0x0, symName: '__ZN4core3str21_$LT$impl$u20$str$GT$12strip_prefix17h39b0baae891baf84E', symObjAddr: 0xA80, symBinAddr: 0x4F990, symSize: 0x4C }
  - { offset: 0xEE2E9, size: 0x8, addend: 0x0, symName: '__ZN4core3str21_$LT$impl$u20$str$GT$12strip_prefix17h8132453838883bfdE', symObjAddr: 0xACC, symBinAddr: 0x4F9DC, symSize: 0x58 }
  - { offset: 0xEE32F, size: 0x8, addend: 0x0, symName: '__ZN4core3str21_$LT$impl$u20$str$GT$3len17hf93f4985d393a163E', symObjAddr: 0xB24, symBinAddr: 0x4FA34, symSize: 0x1C }
  - { offset: 0xEE35B, size: 0x8, addend: 0x0, symName: '__ZN4core3str21_$LT$impl$u20$str$GT$5bytes17h151099e274b06a09E', symObjAddr: 0xB40, symBinAddr: 0x4FA50, symSize: 0x20 }
  - { offset: 0xEE3C9, size: 0x8, addend: 0x0, symName: '__ZN4core3str21_$LT$impl$u20$str$GT$5chars17h48ef8fccd8d5986aE', symObjAddr: 0xB60, symBinAddr: 0x4FA70, symSize: 0x20 }
  - { offset: 0xEE437, size: 0x8, addend: 0x0, symName: '__ZN4core3str21_$LT$impl$u20$str$GT$5parse17h23172bddd2f7ecb7E', symObjAddr: 0xB80, symBinAddr: 0x4FA90, symSize: 0x28 }
  - { offset: 0xEE46E, size: 0x8, addend: 0x0, symName: '__ZN4core3str21_$LT$impl$u20$str$GT$8is_empty17h927002a8a9600e12E', symObjAddr: 0xBA8, symBinAddr: 0x4FAB8, symSize: 0x1C }
  - { offset: 0xEE5AD, size: 0x8, addend: 0x0, symName: '__ZN4core4iter6traits8iterator8Iterator3all5check28_$u7b$$u7b$closure$u7d$$u7d$17h9e97d59fd3235d0dE', symObjAddr: 0xC1C, symBinAddr: 0x4FAD4, symSize: 0x4C }
  - { offset: 0xEF855, size: 0x8, addend: 0x0, symName: __ZN4core3fmt2rt8Argument11new_display17h00565c26b21d3309E, symObjAddr: 0x620, symBinAddr: 0x4F674, symSize: 0x2C }
  - { offset: 0xEF8BB, size: 0x8, addend: 0x0, symName: __ZN4core3fmt2rt8Argument11new_display17h32bbf60ef226b852E, symObjAddr: 0x678, symBinAddr: 0x4F6A0, symSize: 0x2C }
  - { offset: 0xEFD14, size: 0x8, addend: 0x0, symName: __ZN4core3fmt2rt8Argument11new_display17h3d094d3fc081d96bE, symObjAddr: 0x6A4, symBinAddr: 0x4F6CC, symSize: 0x2C }
  - { offset: 0xEFD53, size: 0x8, addend: 0x0, symName: __ZN4core3fmt2rt8Argument11new_display17h46a67a0d09fa6ceeE, symObjAddr: 0x6D0, symBinAddr: 0x4F6F8, symSize: 0x2C }
  - { offset: 0xEFD8B, size: 0x8, addend: 0x0, symName: __ZN4core3fmt2rt8Argument11new_display17h515ae8fee3b0f679E, symObjAddr: 0x6FC, symBinAddr: 0x4F724, symSize: 0x2C }
  - { offset: 0xEFDE1, size: 0x8, addend: 0x0, symName: __ZN4core3fmt2rt8Argument11new_display17h57483b73429af462E, symObjAddr: 0x728, symBinAddr: 0x4F750, symSize: 0x2C }
  - { offset: 0xF0052, size: 0x8, addend: 0x0, symName: __ZN4core3fmt2rt8Argument11new_display17h6bc5f6777ccd4010E, symObjAddr: 0x754, symBinAddr: 0x4F77C, symSize: 0x2C }
  - { offset: 0xF00D2, size: 0x8, addend: 0x0, symName: __ZN4core3fmt2rt8Argument11new_display17h9270c14dace9ffceE, symObjAddr: 0x780, symBinAddr: 0x4F7A8, symSize: 0x2C }
  - { offset: 0xF0117, size: 0x8, addend: 0x0, symName: __ZN4core3fmt2rt8Argument11new_display17h9f5df1d1bd006ec8E, symObjAddr: 0x7AC, symBinAddr: 0x4F7D4, symSize: 0x2C }
  - { offset: 0xF015C, size: 0x8, addend: 0x0, symName: __ZN4core3fmt2rt8Argument11new_display17ha5b63f4c629df0bbE, symObjAddr: 0x7D8, symBinAddr: 0x4F800, symSize: 0x2C }
  - { offset: 0xF0187, size: 0x8, addend: 0x0, symName: __ZN4core3fmt2rt8Argument11new_display17haaeb7146b8fe6d40E, symObjAddr: 0x804, symBinAddr: 0x4F82C, symSize: 0x2C }
  - { offset: 0xF01CC, size: 0x8, addend: 0x0, symName: __ZN4core3fmt2rt8Argument11new_display17hd504fbe2ded15519E, symObjAddr: 0x85C, symBinAddr: 0x4F858, symSize: 0x2C }
  - { offset: 0xF076B, size: 0x8, addend: 0x0, symName: __ZN4core3fmt2rt8Argument11new_display17hffd7a48e76582f1cE, symObjAddr: 0x8B4, symBinAddr: 0x4F884, symSize: 0x2C }
  - { offset: 0xF07EA, size: 0x8, addend: 0x0, symName: '__ZN4core6result19Result$LT$T$C$E$GT$2ok17h580eeab9cf7ea678E', symObjAddr: 0x1AB4, symBinAddr: 0x4FB20, symSize: 0x5C }
  - { offset: 0xF083E, size: 0x8, addend: 0x0, symName: '__ZN4core6result19Result$LT$T$C$E$GT$2ok17h7bc3ce6a4cf4b663E', symObjAddr: 0x1B10, symBinAddr: 0x4FB7C, symSize: 0x5C }
  - { offset: 0xF0892, size: 0x8, addend: 0x0, symName: '__ZN4core6result19Result$LT$T$C$E$GT$2ok17hf7e50a51680a0625E', symObjAddr: 0x1BE4, symBinAddr: 0x4FBD8, symSize: 0x7C }
  - { offset: 0xF08E6, size: 0x8, addend: 0x0, symName: '__ZN4core6result19Result$LT$T$C$E$GT$2ok17hfa028d9db01d7270E', symObjAddr: 0x1C60, symBinAddr: 0x4FC54, symSize: 0x7C }
  - { offset: 0xF0A20, size: 0x8, addend: 0x0, symName: '__ZN4core6result19Result$LT$T$C$E$GT$3map17h51419299eed6635fE', symObjAddr: 0x1CDC, symBinAddr: 0x4FCD0, symSize: 0xB4 }
  - { offset: 0xF0AB3, size: 0x8, addend: 0x0, symName: '__ZN4core6result19Result$LT$T$C$E$GT$3map17h530c43741137c75eE', symObjAddr: 0x1D90, symBinAddr: 0x4FD84, symSize: 0x90 }
  - { offset: 0xF0B5E, size: 0x8, addend: 0x0, symName: '__ZN4core6result19Result$LT$T$C$E$GT$3map17h5bff426764c79801E', symObjAddr: 0x1E20, symBinAddr: 0x4FE14, symSize: 0x64 }
  - { offset: 0xF0BF0, size: 0x8, addend: 0x0, symName: '__ZN4core6result19Result$LT$T$C$E$GT$3map17h75fb840d5262bd46E', symObjAddr: 0x1E84, symBinAddr: 0x4FE78, symSize: 0x90 }
  - { offset: 0xF0CAE, size: 0x8, addend: 0x0, symName: '__ZN4core6result19Result$LT$T$C$E$GT$6expect17hafceac62ed4b7ab0E', symObjAddr: 0x1FFC, symBinAddr: 0x4FF08, symSize: 0x78 }
  - { offset: 0xF0D10, size: 0x8, addend: 0x0, symName: '__ZN4core6result19Result$LT$T$C$E$GT$7map_err17h2acf1c27ea31ed5bE', symObjAddr: 0x20A0, symBinAddr: 0x4FF80, symSize: 0x68 }
  - { offset: 0xF0F67, size: 0x8, addend: 0x0, symName: '__ZN101_$LT$alloc..boxed..Box$LT$$u5b$T$u5d$$GT$$u20$as$u20$alloc..boxed..convert..BoxFromSlice$LT$T$GT$$GT$10from_slice17hc168ca0f7d9d07c3E', symObjAddr: 0x0, symBinAddr: 0x50248, symSize: 0x148 }
  - { offset: 0xF1B3F, size: 0x8, addend: 0x0, symName: '__ZN101_$LT$alloc..boxed..Box$LT$$u5b$T$u5d$$GT$$u20$as$u20$alloc..boxed..convert..BoxFromSlice$LT$T$GT$$GT$10from_slice17hc168ca0f7d9d07c3E', symObjAddr: 0x0, symBinAddr: 0x50248, symSize: 0x148 }
  - { offset: 0xF1D4E, size: 0x8, addend: 0x0, symName: '__ZN5alloc5boxed7convert109_$LT$impl$u20$core..convert..From$LT$$RF$$u5b$T$u5d$$GT$$u20$for$u20$alloc..boxed..Box$LT$$u5b$T$u5d$$GT$$GT$4from17h5c4e1dba74cd0ad5E', symObjAddr: 0x2DC0, symBinAddr: 0x50D4C, symSize: 0x28 }
  - { offset: 0xF1D8A, size: 0x8, addend: 0x0, symName: '__ZN5alloc5boxed12Box$LT$T$GT$8from_raw17h995899fb8e8cfee5E', symObjAddr: 0x2424, symBinAddr: 0x50590, symSize: 0x3C }
  - { offset: 0xF1E22, size: 0x8, addend: 0x0, symName: '__ZN5alloc5boxed12Box$LT$T$GT$8from_raw17he1ccabc08bf9c494E', symObjAddr: 0x2460, symBinAddr: 0x505CC, symSize: 0x3C }
  - { offset: 0xF1EBA, size: 0x8, addend: 0x0, symName: '__ZN5alloc5boxed12Box$LT$T$GT$8into_raw17h83ab68ab901b36edE', symObjAddr: 0x24B0, symBinAddr: 0x50608, symSize: 0x14 }
  - { offset: 0xF1EF7, size: 0x8, addend: 0x0, symName: '__ZN5alloc5boxed16Box$LT$T$C$A$GT$13new_uninit_in17h1cb50bdb8102b632E', symObjAddr: 0x24C4, symBinAddr: 0x5061C, symSize: 0x98 }
  - { offset: 0xF1FEF, size: 0x8, addend: 0x0, symName: '__ZN5alloc5boxed16Box$LT$T$C$A$GT$13new_uninit_in17h68316f65203133a8E', symObjAddr: 0x255C, symBinAddr: 0x506B4, symSize: 0x98 }
  - { offset: 0xF20E7, size: 0x8, addend: 0x0, symName: '__ZN5alloc5boxed16Box$LT$T$C$A$GT$13new_uninit_in17h760677253de63d55E', symObjAddr: 0x25F4, symBinAddr: 0x5074C, symSize: 0x98 }
  - { offset: 0xF21DF, size: 0x8, addend: 0x0, symName: '__ZN5alloc5boxed16Box$LT$T$C$A$GT$13new_uninit_in17ha766dcf520793254E', symObjAddr: 0x268C, symBinAddr: 0x507E4, symSize: 0x98 }
  - { offset: 0xF22D7, size: 0x8, addend: 0x0, symName: '__ZN5alloc5boxed16Box$LT$T$C$A$GT$17try_new_uninit_in17h9b89b4c76cc20245E', symObjAddr: 0x27BC, symBinAddr: 0x5087C, symSize: 0x134 }
  - { offset: 0xF2513, size: 0x8, addend: 0x0, symName: '__ZN5alloc5boxed16Box$LT$T$C$A$GT$17try_new_uninit_in17he97108f6951e3968E', symObjAddr: 0x28F0, symBinAddr: 0x509B0, symSize: 0x134 }
  - { offset: 0xF274F, size: 0x8, addend: 0x0, symName: '__ZN5alloc5boxed16Box$LT$T$C$A$GT$17try_new_uninit_in17hf04a5eeefc462130E', symObjAddr: 0x2A24, symBinAddr: 0x50AE4, symSize: 0x134 }
  - { offset: 0xF298B, size: 0x8, addend: 0x0, symName: '__ZN5alloc5boxed16Box$LT$T$C$A$GT$17try_new_uninit_in17hfc548bdf65e3fa66E', symObjAddr: 0x2C8C, symBinAddr: 0x50C18, symSize: 0x134 }
  - { offset: 0xF2BCD, size: 0x8, addend: 0x0, symName: '__ZN65_$LT$alloc..boxed..Box$LT$T$C$A$GT$$u20$as$u20$core..cmp..Ord$GT$3cmp17h76f70af628f4ae00E', symObjAddr: 0x2DE8, symBinAddr: 0x50D74, symSize: 0x44 }
  - { offset: 0xF2C22, size: 0x8, addend: 0x0, symName: '__ZN72_$LT$alloc..boxed..Box$LT$T$C$A$GT$$u20$as$u20$core..ops..drop..Drop$GT$4drop17h1063f9715db4ae7aE', symObjAddr: 0x3134, symBinAddr: 0x50DB8, symSize: 0xB0 }
  - { offset: 0xF2D5B, size: 0x8, addend: 0x0, symName: '__ZN72_$LT$alloc..boxed..Box$LT$T$C$A$GT$$u20$as$u20$core..ops..drop..Drop$GT$4drop17h36491816c792e49fE', symObjAddr: 0x3290, symBinAddr: 0x50E68, symSize: 0xB0 }
  - { offset: 0xF2E94, size: 0x8, addend: 0x0, symName: '__ZN72_$LT$alloc..boxed..Box$LT$T$C$A$GT$$u20$as$u20$core..ops..drop..Drop$GT$4drop17h3741e79ff3c1a4b7E', symObjAddr: 0x3340, symBinAddr: 0x50F18, symSize: 0xBC }
  - { offset: 0xF2FCD, size: 0x8, addend: 0x0, symName: '__ZN72_$LT$alloc..boxed..Box$LT$T$C$A$GT$$u20$as$u20$core..ops..drop..Drop$GT$4drop17h4edd2634083f857dE', symObjAddr: 0x355C, symBinAddr: 0x50FD4, symSize: 0xB0 }
  - { offset: 0xF3106, size: 0x8, addend: 0x0, symName: '__ZN72_$LT$alloc..boxed..Box$LT$T$C$A$GT$$u20$as$u20$core..ops..drop..Drop$GT$4drop17h548ac34888549189E', symObjAddr: 0x360C, symBinAddr: 0x51084, symSize: 0xC4 }
  - { offset: 0xF323F, size: 0x8, addend: 0x0, symName: '__ZN72_$LT$alloc..boxed..Box$LT$T$C$A$GT$$u20$as$u20$core..ops..drop..Drop$GT$4drop17h65161179a4c209fdE', symObjAddr: 0x36D0, symBinAddr: 0x51148, symSize: 0xB0 }
  - { offset: 0xF3378, size: 0x8, addend: 0x0, symName: '__ZN72_$LT$alloc..boxed..Box$LT$T$C$A$GT$$u20$as$u20$core..ops..drop..Drop$GT$4drop17h7b58367879d292d7E', symObjAddr: 0x3780, symBinAddr: 0x511F8, symSize: 0xB0 }
  - { offset: 0xF34B1, size: 0x8, addend: 0x0, symName: '__ZN72_$LT$alloc..boxed..Box$LT$T$C$A$GT$$u20$as$u20$core..ops..drop..Drop$GT$4drop17hba98b5ceeea6dfb9E', symObjAddr: 0x38F4, symBinAddr: 0x512A8, symSize: 0xB0 }
  - { offset: 0xF35EA, size: 0x8, addend: 0x0, symName: '__ZN72_$LT$alloc..boxed..Box$LT$T$C$A$GT$$u20$as$u20$core..ops..drop..Drop$GT$4drop17hbb13941deb4e59caE', symObjAddr: 0x39A4, symBinAddr: 0x51358, symSize: 0xC4 }
  - { offset: 0xF3723, size: 0x8, addend: 0x0, symName: '__ZN72_$LT$alloc..boxed..Box$LT$T$C$A$GT$$u20$as$u20$core..ops..drop..Drop$GT$4drop17hbf08ff943bae96d3E', symObjAddr: 0x3A68, symBinAddr: 0x5141C, symSize: 0xB0 }
  - { offset: 0xF385C, size: 0x8, addend: 0x0, symName: '__ZN72_$LT$alloc..boxed..Box$LT$T$C$A$GT$$u20$as$u20$core..ops..drop..Drop$GT$4drop17hf762e3bcf7bfa8d4E', symObjAddr: 0x3BC8, symBinAddr: 0x514CC, symSize: 0xB0 }
  - { offset: 0xF3995, size: 0x8, addend: 0x0, symName: '__ZN72_$LT$alloc..boxed..Box$LT$T$C$A$GT$$u20$as$u20$core..ops..drop..Drop$GT$4drop17hf953feccfc4c84b0E', symObjAddr: 0x3C78, symBinAddr: 0x5157C, symSize: 0xB0 }
  - { offset: 0xF3AD4, size: 0x8, addend: 0x0, symName: '__ZN80_$LT$alloc..boxed..Box$LT$T$C$A$GT$$u20$as$u20$core..convert..AsMut$LT$T$GT$$GT$6as_mut17h9c31d58c342475b7E', symObjAddr: 0x3E18, symBinAddr: 0x5162C, symSize: 0x18 }
  - { offset: 0xF3BF0, size: 0x8, addend: 0x0, symName: '__ZN5alloc3str56_$LT$impl$u20$alloc..borrow..ToOwned$u20$for$u20$str$GT$8to_owned17hf58730dc35f3ee93E', symObjAddr: 0x235C, symBinAddr: 0x50540, symSize: 0x50 }
  - { offset: 0xF4D63, size: 0x8, addend: 0x0, symName: '__ZN4core3ptr9const_ptr33_$LT$impl$u20$$BP$const$u20$T$GT$11offset_from17h7e77b437b0e56797E', symObjAddr: 0x19BC, symBinAddr: 0x50390, symSize: 0x48 }
  - { offset: 0xF4DE1, size: 0x8, addend: 0x0, symName: '__ZN4core3ptr9const_ptr33_$LT$impl$u20$$BP$const$u20$T$GT$20offset_from_unsigned18precondition_check17h79f4dcd43dfea910E', symObjAddr: 0x1A04, symBinAddr: 0x503D8, symSize: 0xAC }
  - { offset: 0xF538C, size: 0x8, addend: 0x0, symName: __ZN4core5alloc6layout6Layout25from_size_align_unchecked18precondition_check17hc5fa398eff3e9d3aE, symObjAddr: 0x1AFC, symBinAddr: 0x50484, symSize: 0xBC }
  - { offset: 0xF9CA7, size: 0x8, addend: 0x0, symName: '__ZN90_$LT$serde_yaml..libyaml..util..Owned$LT$T$C$Init$GT$$u20$as$u20$core..ops..drop..Drop$GT$4drop17h8aef5fa9f2f8fa06E', symObjAddr: 0x4318, symBinAddr: 0x52228, symSize: 0x3C }
  - { offset: 0xF9CE1, size: 0x8, addend: 0x0, symName: '__ZN90_$LT$serde_yaml..libyaml..util..Owned$LT$T$C$Init$GT$$u20$as$u20$core..ops..drop..Drop$GT$4drop17hba06671c29868cc2E', symObjAddr: 0x4390, symBinAddr: 0x52264, symSize: 0x3C }
  - { offset: 0xF9D21, size: 0x8, addend: 0x0, symName: '__ZN92_$LT$serde_yaml..libyaml..util..Owned$LT$T$C$Init$GT$$u20$as$u20$core..ops..deref..Deref$GT$5deref17h42a3a2698c003252E', symObjAddr: 0x43CC, symBinAddr: 0x522A0, symSize: 0x6C }
  - { offset: 0xF9D5F, size: 0x8, addend: 0x0, symName: '__ZN92_$LT$serde_yaml..libyaml..util..Owned$LT$T$C$Init$GT$$u20$as$u20$core..ops..deref..Deref$GT$5deref17h74be5c8ef7dac7f4E', symObjAddr: 0x44A4, symBinAddr: 0x5230C, symSize: 0x6C }
  - { offset: 0xFAE56, size: 0x8, addend: 0x0, symName: '__ZN145_$LT$core..option..Option$LT$T$GT$$u20$as$u20$core..ops..try_trait..FromResidual$LT$core..option..Option$LT$core..convert..Infallible$GT$$GT$$GT$13from_residual17h259657eeda52b6e6E', symObjAddr: 0x170, symBinAddr: 0x516FC, symSize: 0x10 }
  - { offset: 0xFAE89, size: 0x8, addend: 0x0, symName: '__ZN145_$LT$core..option..Option$LT$T$GT$$u20$as$u20$core..ops..try_trait..FromResidual$LT$core..option..Option$LT$core..convert..Infallible$GT$$GT$$GT$13from_residual17hbc9896278a1be40fE', symObjAddr: 0x1C4, symBinAddr: 0x5170C, symSize: 0x10 }
  - { offset: 0xFAEBC, size: 0x8, addend: 0x0, symName: '__ZN145_$LT$core..option..Option$LT$T$GT$$u20$as$u20$core..ops..try_trait..FromResidual$LT$core..option..Option$LT$core..convert..Infallible$GT$$GT$$GT$13from_residual17he0586b7b25c9f740E', symObjAddr: 0x1D4, symBinAddr: 0x5171C, symSize: 0x10 }
  - { offset: 0xFB5CA, size: 0x8, addend: 0x0, symName: __ZN4core6option6Option4Some17h559f80a5e0c42b84E, symObjAddr: 0x3B1C, symBinAddr: 0x51E30, symSize: 0x14 }
  - { offset: 0xFB604, size: 0x8, addend: 0x0, symName: '__ZN66_$LT$core..option..Option$LT$T$GT$$u20$as$u20$core..fmt..Debug$GT$3fmt17h6ad0357be8585642E', symObjAddr: 0x3CD8, symBinAddr: 0x51E44, symSize: 0x9C }
  - { offset: 0xFB66E, size: 0x8, addend: 0x0, symName: '__ZN70_$LT$core..option..Option$LT$T$GT$$u20$as$u20$core..cmp..PartialEq$GT$2eq17h55bc4432eff7bdc8E', symObjAddr: 0x3E10, symBinAddr: 0x51EE0, symSize: 0xAC }
  - { offset: 0xFB6E2, size: 0x8, addend: 0x0, symName: '__ZN70_$LT$core..option..Option$LT$T$GT$$u20$as$u20$core..cmp..PartialEq$GT$2eq17hbfe44764b58c7b6fE', symObjAddr: 0x3EBC, symBinAddr: 0x51F8C, symSize: 0x9C }
  - { offset: 0xFB75C, size: 0x8, addend: 0x0, symName: '__ZN75_$LT$core..option..Option$LT$T$GT$$u20$as$u20$core..ops..try_trait..Try$GT$6branch17h095a39077080cb74E', symObjAddr: 0x3F58, symBinAddr: 0x52028, symSize: 0x54 }
  - { offset: 0xFB7B1, size: 0x8, addend: 0x0, symName: '__ZN75_$LT$core..option..Option$LT$T$GT$$u20$as$u20$core..ops..try_trait..Try$GT$6branch17h2c661a7b74aa51f4E', symObjAddr: 0x3FAC, symBinAddr: 0x5207C, symSize: 0x60 }
  - { offset: 0xFB807, size: 0x8, addend: 0x0, symName: '__ZN75_$LT$core..option..Option$LT$T$GT$$u20$as$u20$core..ops..try_trait..Try$GT$6branch17hc29c79c2d1af93aeE', symObjAddr: 0x4150, symBinAddr: 0x520DC, symSize: 0x40 }
  - { offset: 0xFB85C, size: 0x8, addend: 0x0, symName: '__ZN75_$LT$core..option..Option$LT$T$GT$$u20$as$u20$core..ops..try_trait..Try$GT$6branch17hdfe3d65a080fee16E', symObjAddr: 0x41D0, symBinAddr: 0x5211C, symSize: 0x40 }
  - { offset: 0xFBAA9, size: 0x8, addend: 0x0, symName: '__ZN185_$LT$core..ops..control_flow..ControlFlow$LT$B$C$C$GT$$u20$as$u20$core..ops..try_trait..FromResidual$LT$core..ops..control_flow..ControlFlow$LT$B$C$core..convert..Infallible$GT$$GT$$GT$13from_residual17h2b8969361f7a599aE', symObjAddr: 0x1E4, symBinAddr: 0x5172C, symSize: 0x14 }
  - { offset: 0xFBAED, size: 0x8, addend: 0x0, symName: '__ZN90_$LT$core..ops..control_flow..ControlFlow$LT$B$C$C$GT$$u20$as$u20$core..cmp..PartialEq$GT$2eq17h2698eff9d394bd44E', symObjAddr: 0x4210, symBinAddr: 0x5215C, symSize: 0xCC }
  - { offset: 0xFBBE9, size: 0x8, addend: 0x0, symName: '__ZN95_$LT$core..ops..control_flow..ControlFlow$LT$B$C$C$GT$$u20$as$u20$core..ops..try_trait..Try$GT$11from_output17h09c52271de5ff7b1E', symObjAddr: 0x457C, symBinAddr: 0x52378, symSize: 0x14 }
  - { offset: 0xFBC27, size: 0x8, addend: 0x0, symName: '__ZN95_$LT$core..ops..control_flow..ControlFlow$LT$B$C$C$GT$$u20$as$u20$core..ops..try_trait..Try$GT$6branch17h6ca35ac71d5ed354E', symObjAddr: 0x4590, symBinAddr: 0x5238C, symSize: 0x38 }
  - { offset: 0xFC04B, size: 0x8, addend: 0x0, symName: '__ZN42_$LT$$RF$T$u20$as$u20$core..fmt..Debug$GT$3fmt17hc6040d25c4ee95eeE', symObjAddr: 0x1F8, symBinAddr: 0x51740, symSize: 0x30 }
  - { offset: 0xFC26E, size: 0x8, addend: 0x0, symName: __ZN4core3str8converts19from_utf8_unchecked17hd2c5ece4c13a8cdfE, symObjAddr: 0x2B4, symBinAddr: 0x51770, symSize: 0x18 }
  - { offset: 0xFC2A6, size: 0x8, addend: 0x0, symName: '__ZN4core5slice29_$LT$impl$u20$$u5b$T$u5d$$GT$11split_first17hf8a3fbfc575897acE', symObjAddr: 0x4E4, symBinAddr: 0x51788, symSize: 0x80 }
  - { offset: 0xFC301, size: 0x8, addend: 0x0, symName: '__ZN4core5slice29_$LT$impl$u20$$u5b$T$u5d$$GT$12chunks_exact17hb323df52438f0571E', symObjAddr: 0x564, symBinAddr: 0x51808, symSize: 0x11C }
  - { offset: 0xFC3FA, size: 0x8, addend: 0x0, symName: '__ZN4core5slice29_$LT$impl$u20$$u5b$T$u5d$$GT$18split_at_unchecked17h0f719838db9b3d39E', symObjAddr: 0x680, symBinAddr: 0x51924, symSize: 0xEC }
  - { offset: 0xFC558, size: 0x8, addend: 0x0, symName: '__ZN4core5slice29_$LT$impl$u20$$u5b$T$u5d$$GT$18split_at_unchecked18precondition_check17h56d456d3e5f8925eE', symObjAddr: 0x76C, symBinAddr: 0x51A10, symSize: 0xAC }
  - { offset: 0xFC5C1, size: 0x8, addend: 0x0, symName: '__ZN4core5slice29_$LT$impl$u20$$u5b$T$u5d$$GT$3get17h539673c2446fbec2E', symObjAddr: 0x8C4, symBinAddr: 0x51ABC, symSize: 0x48 }
  - { offset: 0xFC610, size: 0x8, addend: 0x0, symName: '__ZN4core5slice29_$LT$impl$u20$$u5b$T$u5d$$GT$4last17h7855b123aa47dce0E', symObjAddr: 0x934, symBinAddr: 0x51B04, symSize: 0x50 }
  - { offset: 0xFC65D, size: 0x8, addend: 0x0, symName: '__ZN4core5slice29_$LT$impl$u20$$u5b$T$u5d$$GT$8is_empty17h79a2d28160340c46E', symObjAddr: 0xC08, symBinAddr: 0x51B54, symSize: 0x1C }
  - { offset: 0xFCC6A, size: 0x8, addend: 0x0, symName: '__ZN10serde_yaml7libyaml4util14Owned$LT$T$GT$10new_uninit17h5ce047ff925d96acE', symObjAddr: 0x80, symBinAddr: 0x51644, symSize: 0x80 }
  - { offset: 0xFCCC1, size: 0x8, addend: 0x0, symName: '__ZN10serde_yaml7libyaml4util14Owned$LT$T$GT$11assume_init17hf9bd729501aaad43E', symObjAddr: 0x138, symBinAddr: 0x516C4, symSize: 0x38 }
  - { offset: 0xFCF3E, size: 0x8, addend: 0x0, symName: '__ZN4core6option15Option$LT$T$GT$11map_or_else17haf52d5a000ae98c1E', symObjAddr: 0x14F4, symBinAddr: 0x51B70, symSize: 0xCC }
  - { offset: 0xFCFF9, size: 0x8, addend: 0x0, symName: '__ZN4core6option15Option$LT$T$GT$4take17h33b6b1eb787743c0E', symObjAddr: 0x1970, symBinAddr: 0x51C3C, symSize: 0x28 }
  - { offset: 0xFD050, size: 0x8, addend: 0x0, symName: '__ZN4core6option15Option$LT$T$GT$6as_ref17h0a2cdd717fe3cfd1E', symObjAddr: 0x19E8, symBinAddr: 0x51C64, symSize: 0x4C }
  - { offset: 0xFD0E3, size: 0x8, addend: 0x0, symName: '__ZN4core6option15Option$LT$T$GT$7is_some17h0c4b6a10d292e5c5E', symObjAddr: 0x3844, symBinAddr: 0x51CB0, symSize: 0x24 }
  - { offset: 0xFD154, size: 0x8, addend: 0x0, symName: '__ZN4core6option15Option$LT$T$GT$7is_some17h5bbceff7acd44c10E', symObjAddr: 0x38B8, symBinAddr: 0x51CD4, symSize: 0x24 }
  - { offset: 0xFD18D, size: 0x8, addend: 0x0, symName: '__ZN4core6option15Option$LT$T$GT$7is_some17h64f3f46003f95f90E', symObjAddr: 0x38DC, symBinAddr: 0x51CF8, symSize: 0x24 }
  - { offset: 0xFD1C6, size: 0x8, addend: 0x0, symName: '__ZN4core6option15Option$LT$T$GT$7is_some17h6e6d42d6717c2cd2E', symObjAddr: 0x3900, symBinAddr: 0x51D1C, symSize: 0x28 }
  - { offset: 0xFD20C, size: 0x8, addend: 0x0, symName: '__ZN4core6option15Option$LT$T$GT$7is_some17hd09d87700f9ed211E', symObjAddr: 0x3998, symBinAddr: 0x51D44, symSize: 0x20 }
  - { offset: 0xFD238, size: 0x8, addend: 0x0, symName: '__ZN4core6option15Option$LT$T$GT$8and_then17h8a3d2925282c62c8E', symObjAddr: 0x3A00, symBinAddr: 0x51D64, symSize: 0x64 }
  - { offset: 0xFD2A3, size: 0x8, addend: 0x0, symName: '__ZN4core6option15Option$LT$T$GT$9unwrap_or17hb56ddb2f4b8e56f9E', symObjAddr: 0x3A64, symBinAddr: 0x51DC8, symSize: 0x68 }
  - { offset: 0xFD3BA, size: 0x8, addend: 0x0, symName: __ZN10serde_yaml7libyaml6parser12optional_tag17hc2bf728df50cac07E, symObjAddr: 0x0, symBinAddr: 0x523C4, symSize: 0x84 }
  - { offset: 0xFDFED, size: 0x8, addend: 0x0, symName: __ZN4core3cmp9PartialEq2ne17hb336230c554a9610E, symObjAddr: 0x14B4, symBinAddr: 0x536C8, symSize: 0x30 }
  - { offset: 0xFE5F4, size: 0x8, addend: 0x0, symName: __ZN4core3ptr15write_unaligned17h25e96fc541634a2cE, symObjAddr: 0x1740, symBinAddr: 0x536F8, symSize: 0x78 }
  - { offset: 0xFE67F, size: 0x8, addend: 0x0, symName: __ZN4core3ptr19copy_nonoverlapping18precondition_check17h0bf7679d0ff152c8E, symObjAddr: 0x17B8, symBinAddr: 0x53770, symSize: 0x358 }
  - { offset: 0xFE960, size: 0x8, addend: 0x0, symName: __ZN4core3ptr4copy18precondition_check17hf37f43e31ae59937E, symObjAddr: 0x2390, symBinAddr: 0x53AC8, symSize: 0x240 }
  - { offset: 0xFF25F, size: 0x8, addend: 0x0, symName: __ZN4core4hint16assert_unchecked18precondition_check17h68e4eb1f46e1ecc9E, symObjAddr: 0x273C, symBinAddr: 0x53D08, symSize: 0xA4 }
  - { offset: 0xFF2BF, size: 0x8, addend: 0x0, symName: __ZN4core4hint21unreachable_unchecked18precondition_check17h43a078f757c837ddE, symObjAddr: 0x27F0, symBinAddr: 0x53DAC, symSize: 0x84 }
  - { offset: 0xFF9FC, size: 0x8, addend: 0x0, symName: '__ZN51_$LT$T$u20$as$u20$core..borrow..Borrow$LT$T$GT$$GT$6borrow17h5e402c754f1ab991E', symObjAddr: 0x2C64, symBinAddr: 0x53E30, symSize: 0x14 }
  - { offset: 0xFFA31, size: 0x8, addend: 0x0, symName: '__ZN51_$LT$T$u20$as$u20$core..borrow..Borrow$LT$T$GT$$GT$6borrow17h8a605b73ac6bb557E', symObjAddr: 0x2C78, symBinAddr: 0x53E44, symSize: 0x14 }
  - { offset: 0xFFB40, size: 0x8, addend: 0x0, symName: __ZN10serde_yaml7libyaml6parser12optional_tag17hc2bf728df50cac07E, symObjAddr: 0x0, symBinAddr: 0x523C4, symSize: 0x84 }
  - { offset: 0xFFBC3, size: 0x8, addend: 0x0, symName: __ZN10serde_yaml7libyaml6parser13convert_event17h298a08f250426044E, symObjAddr: 0x84, symBinAddr: 0x52448, symSize: 0x554 }
  - { offset: 0xFFCDE, size: 0x8, addend: 0x0, symName: __ZN10serde_yaml7libyaml6parser15optional_anchor17hf7eaa6190710d1a3E, symObjAddr: 0x5D8, symBinAddr: 0x5299C, symSize: 0x84 }
  - { offset: 0xFFF73, size: 0x8, addend: 0x0, symName: '__ZN70_$LT$serde_yaml..libyaml..parser..Anchor$u20$as$u20$core..cmp..Ord$GT$3cmp17hcb0adf125e0013a2E', symObjAddr: 0x36A0, symBinAddr: 0x5486C, symSize: 0x2C }
  - { offset: 0xFFFB3, size: 0x8, addend: 0x0, symName: '__ZN81_$LT$serde_yaml..libyaml..parser..ScalarStyle$u20$as$u20$core..cmp..PartialEq$GT$2eq17h7b731b2e2d2cd973E', symObjAddr: 0x3988, symBinAddr: 0x5490C, symSize: 0x34 }
  - { offset: 0x10002D, size: 0x8, addend: 0x0, symName: '__ZN83_$LT$serde_yaml..libyaml..parser..ParserPinned$u20$as$u20$core..ops..drop..Drop$GT$4drop17hf2ca77be0f39f156E', symObjAddr: 0x39CC, symBinAddr: 0x54950, symSize: 0x24 }
  - { offset: 0x101477, size: 0x8, addend: 0x0, symName: '__ZN78_$LT$std..io..error..repr_bitpacked..Repr$u20$as$u20$core..ops..drop..Drop$GT$4drop28_$u7b$$u7b$closure$u7d$$u7d$17h3ad86f882646dde1E', symObjAddr: 0x394C, symBinAddr: 0x548D0, symSize: 0x3C }
  - { offset: 0x10152C, size: 0x8, addend: 0x0, symName: '__ZN78_$LT$std..io..error..repr_bitpacked..Repr$u20$as$u20$core..ops..drop..Drop$GT$4drop17h5984beecaef6276fE', symObjAddr: 0x3914, symBinAddr: 0x54898, symSize: 0x38 }
  - { offset: 0x101555, size: 0x8, addend: 0x0, symName: __ZN3std2io5error14repr_bitpacked11decode_repr17h20c9348996b1e9dfE, symObjAddr: 0xCB4, symBinAddr: 0x5303C, symSize: 0x1DC }
  - { offset: 0x10179F, size: 0x8, addend: 0x0, symName: __ZN3std2io5error14repr_bitpacked14kind_from_prim17h45e81178b1416b9eE, symObjAddr: 0xE90, symBinAddr: 0x53218, symSize: 0x4B0 }
  - { offset: 0x10223A, size: 0x8, addend: 0x0, symName: '__ZN174_$LT$$LT$alloc..collections..btree..map..IntoIter$LT$K$C$V$C$A$GT$$u20$as$u20$core..ops..drop..Drop$GT$..drop..DropGuard$LT$K$C$V$C$A$GT$$u20$as$u20$core..ops..drop..Drop$GT$4drop17h7d18608f1be65999E', symObjAddr: 0xBEC, symBinAddr: 0x52F74, symSize: 0x64 }
  - { offset: 0x10229D, size: 0x8, addend: 0x0, symName: '__ZN174_$LT$$LT$alloc..collections..btree..map..IntoIter$LT$K$C$V$C$A$GT$$u20$as$u20$core..ops..drop..Drop$GT$..drop..DropGuard$LT$K$C$V$C$A$GT$$u20$as$u20$core..ops..drop..Drop$GT$4drop17hd8bcc01d98b15c64E', symObjAddr: 0xC50, symBinAddr: 0x52FD8, symSize: 0x64 }
  - { offset: 0x102362, size: 0x8, addend: 0x0, symName: '__ZN99_$LT$alloc..collections..btree..map..IntoIter$LT$K$C$V$C$A$GT$$u20$as$u20$core..ops..drop..Drop$GT$4drop17h6d20de7979adb4a9E', symObjAddr: 0x3D14, symBinAddr: 0x54C68, symSize: 0x9C }
  - { offset: 0x1023D3, size: 0x8, addend: 0x0, symName: '__ZN99_$LT$alloc..collections..btree..map..IntoIter$LT$K$C$V$C$A$GT$$u20$as$u20$core..ops..drop..Drop$GT$4drop17hd9ef941a7b1aa84fE', symObjAddr: 0x3DB0, symBinAddr: 0x54D04, symSize: 0x9C }
  - { offset: 0x102B89, size: 0x8, addend: 0x0, symName: '__ZN99_$LT$alloc..collections..btree..map..BTreeMap$LT$K$C$V$C$A$GT$$u20$as$u20$core..ops..drop..Drop$GT$4drop17hb9e84a7e6d3846d5E', symObjAddr: 0x3A44, symBinAddr: 0x54998, symSize: 0x168 }
  - { offset: 0x102D30, size: 0x8, addend: 0x0, symName: '__ZN99_$LT$alloc..collections..btree..map..BTreeMap$LT$K$C$V$C$A$GT$$u20$as$u20$core..ops..drop..Drop$GT$4drop17hf31228150354d953E', symObjAddr: 0x3BAC, symBinAddr: 0x54B00, symSize: 0x168 }
  - { offset: 0x103D57, size: 0x8, addend: 0x0, symName: __ZN10serde_yaml7libyaml6parser6Parser3new17h2e95b83cc68e0c3cE, symObjAddr: 0x65C, symBinAddr: 0x52A20, symSize: 0x234 }
  - { offset: 0x103E6C, size: 0x8, addend: 0x0, symName: __ZN10serde_yaml7libyaml6parser6Parser4next17h0e0d09321085993dE, symObjAddr: 0x890, symBinAddr: 0x52C54, symSize: 0x320 }
  - { offset: 0x104248, size: 0x8, addend: 0x0, symName: '__ZN5alloc11collections5btree3map21BTreeMap$LT$K$C$V$GT$3new17h691eac1342853652E', symObjAddr: 0x2C8C, symBinAddr: 0x53E58, symSize: 0x24 }
  - { offset: 0x1042CD, size: 0x8, addend: 0x0, symName: '__ZN5alloc11collections5btree3map21BTreeMap$LT$K$C$V$GT$3new17he79edb74a6caf154E', symObjAddr: 0x2CB0, symBinAddr: 0x53E7C, symSize: 0x24 }
  - { offset: 0x10439A, size: 0x8, addend: 0x0, symName: '__ZN5alloc11collections5btree3map25BTreeMap$LT$K$C$V$C$A$GT$3get17h0bf4d73970bda170E', symObjAddr: 0x2CD4, symBinAddr: 0x53EA0, symSize: 0xD0 }
  - { offset: 0x104576, size: 0x8, addend: 0x0, symName: '__ZN5alloc11collections5btree3map25BTreeMap$LT$K$C$V$C$A$GT$3get17h52b7a03e837656f9E', symObjAddr: 0x2DA4, symBinAddr: 0x53F70, symSize: 0xD0 }
  - { offset: 0x1046BC, size: 0x8, addend: 0x0, symName: '__ZN5alloc11collections5btree3map25BTreeMap$LT$K$C$V$C$A$GT$3len17h3c97e835fa6812ecE', symObjAddr: 0x2E74, symBinAddr: 0x54040, symSize: 0x18 }
  - { offset: 0x1047F8, size: 0x8, addend: 0x0, symName: '__ZN5alloc11collections5btree3map25BTreeMap$LT$K$C$V$C$A$GT$5entry17h7cb2a0def7c46f1eE', symObjAddr: 0x2E8C, symBinAddr: 0x54058, symSize: 0x26C }
  - { offset: 0x1049F8, size: 0x8, addend: 0x0, symName: '__ZN5alloc11collections5btree3map25BTreeMap$LT$K$C$V$C$A$GT$5entry17hb882681f5e2974c6E', symObjAddr: 0x30F8, symBinAddr: 0x542C4, symSize: 0x220 }
  - { offset: 0x104BA4, size: 0x8, addend: 0x0, symName: '__ZN5alloc11collections5btree3map25BTreeMap$LT$K$C$V$C$A$GT$6insert17h55e86b37f59d1083E', symObjAddr: 0x3318, symBinAddr: 0x544E4, symSize: 0x138 }
  - { offset: 0x104C98, size: 0x8, addend: 0x0, symName: '__ZN5alloc11collections5btree3map25BTreeMap$LT$K$C$V$C$A$GT$6insert17hfed6700302578389E', symObjAddr: 0x3450, symBinAddr: 0x5461C, symSize: 0x130 }
  - { offset: 0x104D9A, size: 0x8, addend: 0x0, symName: '__ZN5alloc11collections5btree3map25IntoIter$LT$K$C$V$C$A$GT$10dying_next17h91bcfb8ed2c895f7E', symObjAddr: 0x3580, symBinAddr: 0x5474C, symSize: 0x90 }
  - { offset: 0x104DE5, size: 0x8, addend: 0x0, symName: '__ZN5alloc11collections5btree3map25IntoIter$LT$K$C$V$C$A$GT$10dying_next17hef9ccd08181cd0e1E', symObjAddr: 0x3610, symBinAddr: 0x547DC, symSize: 0x90 }
  - { offset: 0x104E7A, size: 0x8, addend: 0x0, symName: '__ZN83_$LT$serde_core..de..ignored_any..IgnoredAny$u20$as$u20$serde_core..de..Visitor$GT$10visit_unit17h1536d21a7c29acb3E', symObjAddr: 0x39BC, symBinAddr: 0x54940, symSize: 0x10 }
  - { offset: 0x104EC0, size: 0x8, addend: 0x0, symName: '__ZN87_$LT$serde_core..de..ignored_any..IgnoredAny$u20$as$u20$serde_core..de..Deserialize$GT$11deserialize17h21b478bac20c2814E', symObjAddr: 0x39F0, symBinAddr: 0x54974, symSize: 0x24 }
  - { offset: 0x1051C8, size: 0x8, addend: 0x0, symName: '__ZN153_$LT$core..result..Result$LT$T$C$F$GT$$u20$as$u20$core..ops..try_trait..FromResidual$LT$core..result..Result$LT$core..convert..Infallible$C$E$GT$$GT$$GT$13from_residual17h27e7e62504a214bcE', symObjAddr: 0x0, symBinAddr: 0x54DA0, symSize: 0x14 }
  - { offset: 0x1051E4, size: 0x8, addend: 0x0, symName: '__ZN153_$LT$core..result..Result$LT$T$C$F$GT$$u20$as$u20$core..ops..try_trait..FromResidual$LT$core..result..Result$LT$core..convert..Infallible$C$E$GT$$GT$$GT$13from_residual17h27e7e62504a214bcE', symObjAddr: 0x0, symBinAddr: 0x54DA0, symSize: 0x14 }
  - { offset: 0x105233, size: 0x8, addend: 0x0, symName: '__ZN79_$LT$core..result..Result$LT$T$C$E$GT$$u20$as$u20$core..ops..try_trait..Try$GT$6branch17hdee76ab5eb880d5bE', symObjAddr: 0x180, symBinAddr: 0x54DB4, symSize: 0x38 }
  - { offset: 0x105531, size: 0x8, addend: 0x0, symName: '__ZN75_$LT$core..option..Option$LT$T$GT$$u20$as$u20$core..ops..try_trait..Try$GT$6branch17hfa179796960cca79E', symObjAddr: 0xE68, symBinAddr: 0x54DEC, symSize: 0x48 }
  - { offset: 0x1060FA, size: 0x8, addend: 0x0, symName: __ZN14unsafe_libyaml7scanner20yaml_parser_scan_tag17hc4f2353435bac642E, symObjAddr: 0x1E4, symBinAddr: 0x54E34, symSize: 0xA1C }
  - { offset: 0x1064C5, size: 0x8, addend: 0x0, symName: __ZN14unsafe_libyaml7scanner21yaml_parser_fetch_key17haf0edf85acb0d2ceE, symObjAddr: 0xC00, symBinAddr: 0x55850, symSize: 0x274 }
  - { offset: 0x1065A4, size: 0x8, addend: 0x0, symName: __ZN14unsafe_libyaml7scanner21yaml_parser_fetch_tag17h06ddf8ec665348efE, symObjAddr: 0xE74, symBinAddr: 0x55AC4, symSize: 0x16C }
  - { offset: 0x106654, size: 0x8, addend: 0x0, symName: __ZN14unsafe_libyaml7scanner23yaml_parser_fetch_value17hb201d04c0420158dE, symObjAddr: 0xFE0, symBinAddr: 0x55C30, symSize: 0x508 }
  - { offset: 0x10694A, size: 0x8, addend: 0x0, symName: __ZN14unsafe_libyaml7scanner23yaml_parser_roll_indent17h52316e4914bb06d5E, symObjAddr: 0x14E8, symBinAddr: 0x56138, symSize: 0x418 }
  - { offset: 0x106C3C, size: 0x8, addend: 0x0, symName: __ZN14unsafe_libyaml7scanner23yaml_parser_scan_anchor17h2bbd72f92e3cdb5bE, symObjAddr: 0x1900, symBinAddr: 0x56550, symSize: 0x910 }
  - { offset: 0x106F80, size: 0x8, addend: 0x0, symName: __ZN14unsafe_libyaml7scanner24yaml_parser_fetch_anchor17h67fb35b94c83f1e8E, symObjAddr: 0x2210, symBinAddr: 0x56E60, symSize: 0x178 }
  - { offset: 0x10703F, size: 0x8, addend: 0x0, symName: __ZN14unsafe_libyaml7scanner24yaml_parser_scan_tag_uri17h44deb296524abcc2E, symObjAddr: 0x2388, symBinAddr: 0x56FD8, symSize: 0x6E8 }
  - { offset: 0x10728C, size: 0x8, addend: 0x0, symName: __ZN14unsafe_libyaml7scanner25yaml_parser_unroll_indent17hd62b063d7d3c2bfaE, symObjAddr: 0x2A70, symBinAddr: 0x576C0, symSize: 0x1D4 }
  - { offset: 0x107371, size: 0x8, addend: 0x0, symName: __ZN14unsafe_libyaml7scanner26yaml_parser_scan_directive17hd3874d5efa25c32bE, symObjAddr: 0x2C44, symBinAddr: 0x57894, symSize: 0x1204 }
  - { offset: 0x1079CE, size: 0x8, addend: 0x0, symName: __ZN14unsafe_libyaml7scanner27yaml_parser_fetch_directive17h625f0c6da583de52E, symObjAddr: 0x3E48, symBinAddr: 0x58A98, symSize: 0x178 }
  - { offset: 0x107A7E, size: 0x8, addend: 0x0, symName: __ZN14unsafe_libyaml7scanner27yaml_parser_save_simple_key17hd430115b4890ef24E, symObjAddr: 0x3FC0, symBinAddr: 0x58C10, symSize: 0x1A8 }
  - { offset: 0x107B24, size: 0x8, addend: 0x0, symName: __ZN14unsafe_libyaml7scanner27yaml_parser_scan_tag_handle17h0147976d381ff202E, symObjAddr: 0x4168, symBinAddr: 0x58DB8, symSize: 0x3D4 }
  - { offset: 0x107C24, size: 0x8, addend: 0x0, symName: __ZN14unsafe_libyaml7scanner28yaml_parser_fetch_flow_entry17h199005e8a15be461E, symObjAddr: 0x453C, symBinAddr: 0x5918C, symSize: 0x1C0 }
  - { offset: 0x107D03, size: 0x8, addend: 0x0, symName: __ZN14unsafe_libyaml7scanner28yaml_parser_fetch_next_token17h42d23c81e6a1c240E, symObjAddr: 0x46FC, symBinAddr: 0x5934C, symSize: 0x2AC8 }
  - { offset: 0x108C66, size: 0x8, addend: 0x0, symName: __ZN14unsafe_libyaml7scanner28yaml_parser_fetch_stream_end17h47a704c36df4cb07E, symObjAddr: 0x71C4, symBinAddr: 0x5BE14, symSize: 0x1FC }
  - { offset: 0x108D36, size: 0x8, addend: 0x0, symName: __ZN14unsafe_libyaml7scanner28yaml_parser_scan_flow_scalar17h89a1bd05013c9020E, symObjAddr: 0x73C0, symBinAddr: 0x5C010, symSize: 0x2E28 }
  - { offset: 0x10A5A9, size: 0x8, addend: 0x0, symName: __ZN14unsafe_libyaml7scanner28yaml_parser_scan_uri_escapes17hf87253c5b17b6f1eE, symObjAddr: 0xA1E8, symBinAddr: 0x5EE38, symSize: 0xA30 }
  - { offset: 0x10AA7E, size: 0x8, addend: 0x0, symName: __ZN14unsafe_libyaml7scanner29yaml_parser_fetch_block_entry17hed83bab886d4b374E, symObjAddr: 0xAC18, symBinAddr: 0x5F868, symSize: 0x264 }
  - { offset: 0x10AB5D, size: 0x8, addend: 0x0, symName: __ZN14unsafe_libyaml7scanner29yaml_parser_fetch_flow_scalar17hd91a027ce2851256E, symObjAddr: 0xAE7C, symBinAddr: 0x5FACC, symSize: 0x178 }
  - { offset: 0x10AC1C, size: 0x8, addend: 0x0, symName: __ZN14unsafe_libyaml7scanner29yaml_parser_fetch_more_tokens17he44969c838509130E, symObjAddr: 0xAFF4, symBinAddr: 0x5FC44, symSize: 0x16C }
  - { offset: 0x10ACBC, size: 0x8, addend: 0x0, symName: __ZN14unsafe_libyaml7scanner29yaml_parser_remove_simple_key17hd4437989cd1bef3fE, symObjAddr: 0xB160, symBinAddr: 0x5FDB0, symSize: 0xBC }
  - { offset: 0x10AD26, size: 0x8, addend: 0x0, symName: __ZN14unsafe_libyaml7scanner29yaml_parser_scan_block_scalar17he7ec7efbab1a488dE, symObjAddr: 0xB21C, symBinAddr: 0x5FE6C, symSize: 0x1F64 }
  - { offset: 0x10B7AC, size: 0x8, addend: 0x0, symName: __ZN14unsafe_libyaml7scanner29yaml_parser_scan_plain_scalar17hcde34ea2ba6635f6E, symObjAddr: 0xD180, symBinAddr: 0x61DD0, symSize: 0x25A0 }
  - { offset: 0x10C67F, size: 0x8, addend: 0x0, symName: __ZN14unsafe_libyaml7scanner29yaml_parser_set_scanner_error17hb9af91b20e2229c7E, symObjAddr: 0xF720, symBinAddr: 0x64370, symSize: 0x74 }
  - { offset: 0x10C70B, size: 0x8, addend: 0x0, symName: __ZN14unsafe_libyaml7scanner29yaml_parser_stale_simple_keys17h2c0ff710c279b16bE, symObjAddr: 0xF794, symBinAddr: 0x643E4, symSize: 0x1A4 }
  - { offset: 0x10C7C2, size: 0x8, addend: 0x0, symName: __ZN14unsafe_libyaml7scanner30yaml_parser_fetch_block_scalar17he697a87abef6ba2aE, symObjAddr: 0xF938, symBinAddr: 0x64588, symSize: 0x17C }
  - { offset: 0x10C881, size: 0x8, addend: 0x0, symName: __ZN14unsafe_libyaml7scanner30yaml_parser_fetch_plain_scalar17hfddf5d6df4650fa5E, symObjAddr: 0xFAB4, symBinAddr: 0x64704, symSize: 0x16C }
  - { offset: 0x10C931, size: 0x8, addend: 0x0, symName: __ZN14unsafe_libyaml7scanner30yaml_parser_fetch_stream_start17hb2677e701ebfc64bE, symObjAddr: 0xFC20, symBinAddr: 0x64870, symSize: 0x230 }
  - { offset: 0x10CA1E, size: 0x8, addend: 0x0, symName: __ZN14unsafe_libyaml7scanner30yaml_parser_scan_to_next_token17hdf13c0cc734f64f9E, symObjAddr: 0xFE50, symBinAddr: 0x64AA0, symSize: 0xAEC }
  - { offset: 0x10CDEF, size: 0x8, addend: 0x0, symName: __ZN14unsafe_libyaml7scanner31yaml_parser_decrease_flow_level17h620640cd1171106dE, symObjAddr: 0x1093C, symBinAddr: 0x6558C, symSize: 0x110 }
  - { offset: 0x10CE7B, size: 0x8, addend: 0x0, symName: __ZN14unsafe_libyaml7scanner31yaml_parser_increase_flow_level17hb99e57cec9995ea0E, symObjAddr: 0x10A4C, symBinAddr: 0x6569C, symSize: 0x158 }
  - { offset: 0x10CEFC, size: 0x8, addend: 0x0, symName: __ZN14unsafe_libyaml7scanner31yaml_parser_scan_directive_name17h6ef8a4d55acc2ddfE, symObjAddr: 0x10BA4, symBinAddr: 0x657F4, symSize: 0x780 }
  - { offset: 0x10D1BD, size: 0x8, addend: 0x0, symName: __ZN14unsafe_libyaml7scanner36yaml_parser_fetch_document_indicator17hf6768df4b2a8db4cE, symObjAddr: 0x11324, symBinAddr: 0x65F74, symSize: 0x1E0 }
  - { offset: 0x10D2AC, size: 0x8, addend: 0x0, symName: __ZN14unsafe_libyaml7scanner36yaml_parser_scan_block_scalar_breaks17hd365cba22fafbb2fE, symObjAddr: 0x11504, symBinAddr: 0x66154, symSize: 0x75C }
  - { offset: 0x10D500, size: 0x8, addend: 0x0, symName: __ZN14unsafe_libyaml7scanner36yaml_parser_scan_tag_directive_value17h4b5e7a4054f6259aE, symObjAddr: 0x11C60, symBinAddr: 0x668B0, symSize: 0x9B4 }
  - { offset: 0x10D883, size: 0x8, addend: 0x0, symName: __ZN14unsafe_libyaml7scanner37yaml_parser_fetch_flow_collection_end17hdfa93cc2115cb9d2E, symObjAddr: 0x12614, symBinAddr: 0x67264, symSize: 0x1CC }
  - { offset: 0x10D972, size: 0x8, addend: 0x0, symName: __ZN14unsafe_libyaml7scanner39yaml_parser_fetch_flow_collection_start17h4053a92bd022a521E, symObjAddr: 0x127E0, symBinAddr: 0x67430, symSize: 0x1F4 }
  - { offset: 0x10DA61, size: 0x8, addend: 0x0, symName: __ZN14unsafe_libyaml7scanner40yaml_parser_scan_version_directive_value17he60a8b5f49bbe08cE, symObjAddr: 0x129D4, symBinAddr: 0x67624, symSize: 0x214 }
  - { offset: 0x10DB0A, size: 0x8, addend: 0x0, symName: __ZN14unsafe_libyaml7scanner41yaml_parser_scan_version_directive_number17h393ff48d20dc2b66E, symObjAddr: 0x12BE8, symBinAddr: 0x67838, symSize: 0x1F0 }
  - { offset: 0x10DB85, size: 0x8, addend: 0x0, symName: __ZN14unsafe_libyaml7scanner4READ17h9fcb3ca5d9243b33E, symObjAddr: 0x12DD8, symBinAddr: 0x67A28, symSize: 0x570 }
  - { offset: 0x10E002, size: 0x8, addend: 0x0, symName: __ZN14unsafe_libyaml7scanner4SKIP17h6dd9a46b3d83b8dfE, symObjAddr: 0x13348, symBinAddr: 0x67F98, symSize: 0x184 }
  - { offset: 0x10E12D, size: 0x8, addend: 0x0, symName: __ZN14unsafe_libyaml7scanner5CACHE17hd372a6e08e4b102dE, symObjAddr: 0x134CC, symBinAddr: 0x6811C, symSize: 0x64 }
  - { offset: 0x10E167, size: 0x8, addend: 0x0, symName: __ZN14unsafe_libyaml7scanner9READ_LINE17hacccce1088b51a19E, symObjAddr: 0x13530, symBinAddr: 0x68180, symSize: 0x63C }
  - { offset: 0x10E5DE, size: 0x8, addend: 0x0, symName: __ZN14unsafe_libyaml7scanner9SKIP_LINE17ha325306f8e97aa03E, symObjAddr: 0x13B6C, symBinAddr: 0x687BC, symSize: 0x68C }
  - { offset: 0x10EE82, size: 0x8, addend: 0x0, symName: __ZN14unsafe_libyaml3api11yaml_malloc17hfa66cc14ff947bc5E, symObjAddr: 0x0, symBinAddr: 0x68E48, symSize: 0x20 }
  - { offset: 0x10FE0C, size: 0x8, addend: 0x0, symName: __ZN14unsafe_libyaml3api11yaml_malloc17hfa66cc14ff947bc5E, symObjAddr: 0x0, symBinAddr: 0x68E48, symSize: 0x20 }
  - { offset: 0x10FE38, size: 0x8, addend: 0x0, symName: __ZN14unsafe_libyaml3api11yaml_strdup17hf48a3588bbd2431aE, symObjAddr: 0x20, symBinAddr: 0x68E68, symSize: 0x4C }
  - { offset: 0x10FE64, size: 0x8, addend: 0x0, symName: __ZN14unsafe_libyaml3api12yaml_realloc17hf5154d714ce48ed0E, symObjAddr: 0x6C, symBinAddr: 0x68EB4, symSize: 0x60 }
  - { offset: 0x10FE9E, size: 0x8, addend: 0x0, symName: __ZN14unsafe_libyaml3api16yaml_string_join17h126196475e472338E, symObjAddr: 0x414, symBinAddr: 0x68F14, symSize: 0x134 }
  - { offset: 0x10FF32, size: 0x8, addend: 0x0, symName: __ZN14unsafe_libyaml3api17yaml_event_delete17ha2ec8000e05c0d66E, symObjAddr: 0x548, symBinAddr: 0x69048, symSize: 0x1B4 }
  - { offset: 0x10FF98, size: 0x8, addend: 0x0, symName: __ZN14unsafe_libyaml3api17yaml_queue_extend17hc41d79978c5656fcE, symObjAddr: 0x6FC, symBinAddr: 0x691FC, symSize: 0x234 }
  - { offset: 0x1100A3, size: 0x8, addend: 0x0, symName: __ZN14unsafe_libyaml3api17yaml_stack_extend17h75adae15fba0ec97E, symObjAddr: 0x930, symBinAddr: 0x69430, symSize: 0xF4 }
  - { offset: 0x11014F, size: 0x8, addend: 0x0, symName: __ZN14unsafe_libyaml3api17yaml_token_delete17hf83cf1eeb7b26558E, symObjAddr: 0xA24, symBinAddr: 0x69524, symSize: 0x12C }
  - { offset: 0x110179, size: 0x8, addend: 0x0, symName: __ZN14unsafe_libyaml3api18yaml_parser_delete17h99789f105fa6e8b5E, symObjAddr: 0xB50, symBinAddr: 0x69650, symSize: 0x248 }
  - { offset: 0x1102D8, size: 0x8, addend: 0x0, symName: __ZN14unsafe_libyaml3api18yaml_string_extend17h46efecfc02c4d071E, symObjAddr: 0xD98, symBinAddr: 0x69898, symSize: 0x14C }
  - { offset: 0x1103AC, size: 0x8, addend: 0x0, symName: __ZN14unsafe_libyaml3api22yaml_parser_initialize17h40c7d98a2723e34aE, symObjAddr: 0x15E0, symBinAddr: 0x699E4, symSize: 0x470 }
  - { offset: 0x110651, size: 0x8, addend: 0x0, symName: __ZN14unsafe_libyaml3api24yaml_parser_set_encoding17hf6bf6f57d4d3e17bE, symObjAddr: 0x28E0, symBinAddr: 0x69E54, symSize: 0xB0 }
  - { offset: 0x11068A, size: 0x8, addend: 0x0, symName: __ZN14unsafe_libyaml3api24yaml_string_read_handler17h4e6c86d9f04acc1bE, symObjAddr: 0x2990, symBinAddr: 0x69F04, symSize: 0x104 }
  - { offset: 0x110737, size: 0x8, addend: 0x0, symName: __ZN14unsafe_libyaml3api28yaml_parser_set_input_string17h21a2dd79ea6e041fE, symObjAddr: 0x3468, symBinAddr: 0x6A008, symSize: 0x144 }
  - { offset: 0x110837, size: 0x8, addend: 0x0, symName: __ZN14unsafe_libyaml3api9yaml_free17h6fd492537d6eaf0aE, symObjAddr: 0x53A8, symBinAddr: 0x6A14C, symSize: 0x3C }
  - { offset: 0x110A24, size: 0x8, addend: 0x0, symName: __ZN14unsafe_libyaml3ops3die17h39bf2b47ec483e19E, symObjAddr: 0x0, symBinAddr: 0xD7264, symSize: 0xC }
  - { offset: 0x110D24, size: 0x8, addend: 0x0, symName: '__ZN4core3ptr7mut_ptr31_$LT$impl$u20$$BP$mut$u20$T$GT$7is_null17h11a03a5c74914e7cE', symObjAddr: 0x4118, symBinAddr: 0x6B65C, symSize: 0x18 }
  - { offset: 0x110D83, size: 0x8, addend: 0x0, symName: '__ZN4core3ptr7mut_ptr31_$LT$impl$u20$$BP$mut$u20$T$GT$7is_null17h182cb8958a4fa686E', symObjAddr: 0x4130, symBinAddr: 0x6B674, symSize: 0x18 }
  - { offset: 0x110DE2, size: 0x8, addend: 0x0, symName: '__ZN4core3ptr7mut_ptr31_$LT$impl$u20$$BP$mut$u20$T$GT$7is_null17h5db18eaf678da170E', symObjAddr: 0x4160, symBinAddr: 0x6B68C, symSize: 0x18 }
  - { offset: 0x110E41, size: 0x8, addend: 0x0, symName: '__ZN4core3ptr7mut_ptr31_$LT$impl$u20$$BP$mut$u20$T$GT$7is_null17h7d7ebbf05cc5e6f0E', symObjAddr: 0x4178, symBinAddr: 0x6B6A4, symSize: 0x18 }
  - { offset: 0x110EA0, size: 0x8, addend: 0x0, symName: '__ZN4core3ptr7mut_ptr31_$LT$impl$u20$$BP$mut$u20$T$GT$7is_null17ha5c8d12a86fdf18bE', symObjAddr: 0x4190, symBinAddr: 0x6B6BC, symSize: 0x18 }
  - { offset: 0x110EFF, size: 0x8, addend: 0x0, symName: '__ZN4core3ptr7mut_ptr31_$LT$impl$u20$$BP$mut$u20$T$GT$7is_null17hbb654b6e7a53a794E', symObjAddr: 0x41C0, symBinAddr: 0x6B6D4, symSize: 0x18 }
  - { offset: 0x110F5E, size: 0x8, addend: 0x0, symName: '__ZN4core3ptr7mut_ptr31_$LT$impl$u20$$BP$mut$u20$T$GT$7is_null17hd776d49d90330ad9E', symObjAddr: 0x41F0, symBinAddr: 0x6B6EC, symSize: 0x18 }
  - { offset: 0x11110D, size: 0x8, addend: 0x0, symName: '__ZN4core3ptr9const_ptr33_$LT$impl$u20$$BP$const$u20$T$GT$11offset_from17h1ac847d9cd5da8eeE', symObjAddr: 0x4208, symBinAddr: 0x6B704, symSize: 0x48 }
  - { offset: 0x111186, size: 0x8, addend: 0x0, symName: '__ZN4core3ptr9const_ptr33_$LT$impl$u20$$BP$const$u20$T$GT$7is_null17h9f49e8c62bb86095E', symObjAddr: 0x4250, symBinAddr: 0x6B74C, symSize: 0x18 }
  - { offset: 0x111298, size: 0x8, addend: 0x0, symName: __ZN4core3cmp9PartialEq2ne17h8a929cdcc223cff9E, symObjAddr: 0x4070, symBinAddr: 0x6B5FC, symSize: 0x30 }
  - { offset: 0x1112E7, size: 0x8, addend: 0x0, symName: __ZN4core3cmp9PartialEq2ne17had8f2eb66c2f83d6E, symObjAddr: 0x40A0, symBinAddr: 0x6B62C, symSize: 0x30 }
  - { offset: 0x11142B, size: 0x8, addend: 0x0, symName: __ZN4core5slice3raw14from_raw_parts17h3ae91da06d820e4bE, symObjAddr: 0x429C, symBinAddr: 0x6B764, symSize: 0x58 }
  - { offset: 0x111473, size: 0x8, addend: 0x0, symName: __ZN4core5slice3raw14from_raw_parts18precondition_check17he84228df8b0a522aE, symObjAddr: 0x42F4, symBinAddr: 0x6B7BC, symSize: 0x1D8 }
  - { offset: 0x1125B2, size: 0x8, addend: 0x0, symName: '__ZN78_$LT$unsafe_libyaml..yaml..yaml_encoding_t$u20$as$u20$core..cmp..PartialEq$GT$2eq17h3eeeebbebb15c89dE', symObjAddr: 0x4B44, symBinAddr: 0x6BBEC, symSize: 0x34 }
  - { offset: 0x11262C, size: 0x8, addend: 0x0, symName: '__ZN79_$LT$unsafe_libyaml..yaml..yaml_parser_t$u20$as$u20$core..ops..deref..Deref$GT$5deref17hcafd6f2647ad9cdfE', symObjAddr: 0x4BAC, symBinAddr: 0x6BC20, symSize: 0x1C }
  - { offset: 0x112660, size: 0x8, addend: 0x0, symName: '__ZN80_$LT$unsafe_libyaml..yaml..yaml_error_type_t$u20$as$u20$core..cmp..PartialEq$GT$2eq17hd9f5325cad4c1646E', symObjAddr: 0x4BE4, symBinAddr: 0x6BC3C, symSize: 0x34 }
  - { offset: 0x1126DA, size: 0x8, addend: 0x0, symName: '__ZN80_$LT$unsafe_libyaml..yaml..yaml_token_type_t$u20$as$u20$core..cmp..PartialEq$GT$2eq17hd23222a402aca263E', symObjAddr: 0x4C4C, symBinAddr: 0x6BC70, symSize: 0x34 }
  - { offset: 0x112754, size: 0x8, addend: 0x0, symName: '__ZN82_$LT$unsafe_libyaml..yaml..yaml_parser_state_t$u20$as$u20$core..cmp..PartialEq$GT$2eq17hec1e3998b203232fE', symObjAddr: 0x4C80, symBinAddr: 0x6BCA4, symSize: 0x34 }
  - { offset: 0x1127D3, size: 0x8, addend: 0x0, symName: '__ZN82_$LT$unsafe_libyaml..yaml..yaml_scalar_style_t$u20$as$u20$core..cmp..PartialEq$GT$2eq17hb1ce19beb032b847E', symObjAddr: 0x4CB4, symBinAddr: 0x6BCD8, symSize: 0x34 }
  - { offset: 0x1128AB, size: 0x8, addend: 0x0, symName: __ZN14unsafe_libyaml3ops3die17h39bf2b47ec483e19E, symObjAddr: 0x0, symBinAddr: 0xD7264, symSize: 0xC }
  - { offset: 0x1128D2, size: 0x8, addend: 0x0, symName: __ZN14unsafe_libyaml3ops3die17h47befe18a4a8e3dbE, symObjAddr: 0xC, symBinAddr: 0xD7270, symSize: 0xC }
  - { offset: 0x1128F9, size: 0x8, addend: 0x0, symName: __ZN14unsafe_libyaml3ops3die17h67e5dbf90ff990c3E, symObjAddr: 0x18, symBinAddr: 0xD727C, symSize: 0xC }
  - { offset: 0x112920, size: 0x8, addend: 0x0, symName: __ZN14unsafe_libyaml3ops3die17h6a3fde6359c274c0E, symObjAddr: 0x24, symBinAddr: 0xD7288, symSize: 0xC }
  - { offset: 0x112947, size: 0x8, addend: 0x0, symName: __ZN14unsafe_libyaml3ops3die17ha1275389faf00765E, symObjAddr: 0x3C, symBinAddr: 0xD7294, symSize: 0xC }
  - { offset: 0x11296E, size: 0x8, addend: 0x0, symName: __ZN14unsafe_libyaml3ops3die17hf68c96272f240a07E, symObjAddr: 0x48, symBinAddr: 0xD72A0, symSize: 0xC }
  - { offset: 0x11299A, size: 0x8, addend: 0x0, symName: __ZN14unsafe_libyaml3ops3die6do_die17h599c43e27922b5eeE, symObjAddr: 0x54, symBinAddr: 0x6A188, symSize: 0x60 }
  - { offset: 0x1129CE, size: 0x8, addend: 0x0, symName: '__ZN78_$LT$unsafe_libyaml..ops..die..PanicAgain$u20$as$u20$core..ops..drop..Drop$GT$4drop17h924e2ebf04b3a1b2E', symObjAddr: 0x4B10, symBinAddr: 0x6BBB8, symSize: 0x34 }
  - { offset: 0x112A05, size: 0x8, addend: 0x0, symName: '__ZN52_$LT$T$u20$as$u20$unsafe_libyaml..ops..ForceInto$GT$10force_into17h4703cec134a0b371E', symObjAddr: 0x46A4, symBinAddr: 0x6B994, symSize: 0x30 }
  - { offset: 0x112A49, size: 0x8, addend: 0x0, symName: '__ZN53_$LT$i32$u20$as$u20$unsafe_libyaml..ops..ForceAdd$GT$9force_add17h23329930d976c6b8E', symObjAddr: 0x4708, symBinAddr: 0x6B9C4, symSize: 0x30 }
  - { offset: 0x112A89, size: 0x8, addend: 0x0, symName: '__ZN53_$LT$i32$u20$as$u20$unsafe_libyaml..ops..ForceMul$GT$9force_mul17hdf65d51370c3c831E', symObjAddr: 0x4738, symBinAddr: 0x6B9F4, symSize: 0x30 }
  - { offset: 0x112AC9, size: 0x8, addend: 0x0, symName: '__ZN53_$LT$i64$u20$as$u20$unsafe_libyaml..ops..ForceMul$GT$9force_mul17h452bc13806331c8aE', symObjAddr: 0x4768, symBinAddr: 0x6BA24, symSize: 0x30 }
  - { offset: 0x112B09, size: 0x8, addend: 0x0, symName: '__ZN53_$LT$u32$u20$as$u20$unsafe_libyaml..ops..ForceAdd$GT$9force_add17h619e9126dd8f76ebE', symObjAddr: 0x4798, symBinAddr: 0x6BA54, symSize: 0x30 }
  - { offset: 0x112B49, size: 0x8, addend: 0x0, symName: '__ZN53_$LT$u64$u20$as$u20$unsafe_libyaml..ops..ForceAdd$GT$9force_add17hf290bd35b3d1f82fE', symObjAddr: 0x47C8, symBinAddr: 0x6BA84, symSize: 0x30 }
  - { offset: 0x112B89, size: 0x8, addend: 0x0, symName: '__ZN55_$LT$usize$u20$as$u20$unsafe_libyaml..ops..ForceAdd$GT$9force_add17h8b4f6fb573e46979E', symObjAddr: 0x4828, symBinAddr: 0x6BAB4, symSize: 0x30 }
  - { offset: 0x112BCA, size: 0x8, addend: 0x0, symName: __ZN14unsafe_libyaml6reader25yaml_parser_update_buffer17h1f9e7e943bddb003E, symObjAddr: 0x2464, symBinAddr: 0x6A1E8, symSize: 0xF34 }
  - { offset: 0x1133A1, size: 0x8, addend: 0x0, symName: __ZN14unsafe_libyaml6reader28yaml_parser_set_reader_error17h88888c6febe7e515E, symObjAddr: 0x3398, symBinAddr: 0x6B11C, symSize: 0x48 }
  - { offset: 0x113414, size: 0x8, addend: 0x0, symName: __ZN14unsafe_libyaml6reader29yaml_parser_update_raw_buffer17h502de9f8813232d6E, symObjAddr: 0x33E0, symBinAddr: 0x6B164, symSize: 0x23C }
  - { offset: 0x1134E1, size: 0x8, addend: 0x0, symName: __ZN14unsafe_libyaml6reader30yaml_parser_determine_encoding17h3b394534919b2e51E, symObjAddr: 0x361C, symBinAddr: 0x6B3A0, symSize: 0x25C }
  - { offset: 0x113632, size: 0x8, addend: 0x0, symName: '__ZN60_$LT$$BP$mut$u20$T$u20$as$u20$unsafe_libyaml..PointerExt$GT$13c_offset_from17h9d5a258ef1a9b98aE', symObjAddr: 0x4978, symBinAddr: 0x6BAE4, symSize: 0x90 }
  - { offset: 0x113683, size: 0x8, addend: 0x0, symName: '__ZN76_$LT$unsafe_libyaml..success..Success$u20$as$u20$core..ops..deref..Deref$GT$5deref17h305c077310c60b5fE', symObjAddr: 0x4ACC, symBinAddr: 0x6BB74, symSize: 0x44 }
  - { offset: 0x113A99, size: 0x8, addend: 0x0, symName: __ZN14unsafe_libyaml6parser10PEEK_TOKEN17h6ff1968a3fd1edf5E, symObjAddr: 0x0, symBinAddr: 0x6BD0C, symSize: 0x5C }
  - { offset: 0x1146DC, size: 0x8, addend: 0x0, symName: __ZN14unsafe_libyaml6parser10PEEK_TOKEN17h6ff1968a3fd1edf5E, symObjAddr: 0x0, symBinAddr: 0x6BD0C, symSize: 0x5C }
  - { offset: 0x114708, size: 0x8, addend: 0x0, symName: __ZN14unsafe_libyaml6parser10SKIP_TOKEN17h970c3637e8f24c43E, symObjAddr: 0x5C, symBinAddr: 0x6BD68, symSize: 0x90 }
  - { offset: 0x1147B4, size: 0x8, addend: 0x0, symName: __ZN14unsafe_libyaml6parser17yaml_parser_parse17h8413a2d988a4d965E, symObjAddr: 0xEC, symBinAddr: 0x6BDF8, symSize: 0x118 }
  - { offset: 0x1147EE, size: 0x8, addend: 0x0, symName: __ZN14unsafe_libyaml6parser22yaml_parser_parse_node17h19bc0d0fc0f0af58E, symObjAddr: 0x204, symBinAddr: 0x6BF10, symSize: 0x1058 }
  - { offset: 0x114CCE, size: 0x8, addend: 0x0, symName: __ZN14unsafe_libyaml6parser25yaml_parser_state_machine17hd3fea5a6296a633aE, symObjAddr: 0x125C, symBinAddr: 0x6CF68, symSize: 0x2BC }
  - { offset: 0x114D08, size: 0x8, addend: 0x0, symName: __ZN14unsafe_libyaml6parser28yaml_parser_set_parser_error17h302fdc01cde2cbf8E, symObjAddr: 0x1518, symBinAddr: 0x6D224, symSize: 0x40 }
  - { offset: 0x114D69, size: 0x8, addend: 0x0, symName: __ZN14unsafe_libyaml6parser30yaml_parser_parse_document_end17h7fe2b2d547006c94E, symObjAddr: 0x1558, symBinAddr: 0x6D264, symSize: 0x1F0 }
  - { offset: 0x114E46, size: 0x8, addend: 0x0, symName: __ZN14unsafe_libyaml6parser30yaml_parser_parse_stream_start17h0310821e7a28b69bE, symObjAddr: 0x1748, symBinAddr: 0x6D454, symSize: 0x130 }
  - { offset: 0x114E95, size: 0x8, addend: 0x0, symName: __ZN14unsafe_libyaml6parser30yaml_parser_process_directives17h9ad9bfcf81af1890E, symObjAddr: 0x1878, symBinAddr: 0x6D584, symSize: 0x618 }
  - { offset: 0x115050, size: 0x8, addend: 0x0, symName: __ZN14unsafe_libyaml6parser32yaml_parser_append_tag_directive17h3d29c45bb94ae38dE, symObjAddr: 0x1E90, symBinAddr: 0x6DB9C, symSize: 0x19C }
  - { offset: 0x115128, size: 0x8, addend: 0x0, symName: __ZN14unsafe_libyaml6parser32yaml_parser_parse_document_start17h9cccedac61db03c4E, symObjAddr: 0x202C, symBinAddr: 0x6DD38, symSize: 0x5B4 }
  - { offset: 0x115360, size: 0x8, addend: 0x0, symName: __ZN14unsafe_libyaml6parser32yaml_parser_process_empty_scalar17hffd4da2b73828654E, symObjAddr: 0x25E0, symBinAddr: 0x6E2EC, symSize: 0xCC }
  - { offset: 0x1153F6, size: 0x8, addend: 0x0, symName: __ZN14unsafe_libyaml6parser34yaml_parser_parse_document_content17h4b0a886f9406a1bbE, symObjAddr: 0x26AC, symBinAddr: 0x6E3B8, symSize: 0x164 }
  - { offset: 0x11546F, size: 0x8, addend: 0x0, symName: __ZN14unsafe_libyaml6parser34yaml_parser_parse_flow_mapping_key17hd0ccf224446b967fE, symObjAddr: 0x2810, symBinAddr: 0x6E51C, symSize: 0x4FC }
  - { offset: 0x1155BF, size: 0x8, addend: 0x0, symName: __ZN14unsafe_libyaml6parser35yaml_parser_parse_block_mapping_key17hc955174748823638E, symObjAddr: 0x2D0C, symBinAddr: 0x6EA18, symSize: 0x418 }
  - { offset: 0x1156FE, size: 0x8, addend: 0x0, symName: __ZN14unsafe_libyaml6parser36yaml_parser_parse_flow_mapping_value17h94a882c645b60513E, symObjAddr: 0x3124, symBinAddr: 0x6EE30, symSize: 0x1CC }
  - { offset: 0x115786, size: 0x8, addend: 0x0, symName: __ZN14unsafe_libyaml6parser36yaml_parser_set_parser_error_context17h31ef22600204823dE, symObjAddr: 0x32F0, symBinAddr: 0x6EFFC, symSize: 0x64 }
  - { offset: 0x115820, size: 0x8, addend: 0x0, symName: __ZN14unsafe_libyaml6parser37yaml_parser_parse_block_mapping_value17h231be0c2a2c171bdE, symObjAddr: 0x3354, symBinAddr: 0x6F060, symSize: 0x1EC }
  - { offset: 0x1158AF, size: 0x8, addend: 0x0, symName: __ZN14unsafe_libyaml6parser37yaml_parser_parse_flow_sequence_entry17h46be04edc85b8fb1E, symObjAddr: 0x3540, symBinAddr: 0x6F24C, symSize: 0x480 }
  - { offset: 0x115A15, size: 0x8, addend: 0x0, symName: __ZN14unsafe_libyaml6parser38yaml_parser_parse_block_sequence_entry17h585f47fd5f80614aE, symObjAddr: 0x39C0, symBinAddr: 0x6F6CC, symSize: 0x404 }
  - { offset: 0x115B54, size: 0x8, addend: 0x0, symName: __ZN14unsafe_libyaml6parser43yaml_parser_parse_indentless_sequence_entry17h3f4aa4f1b7c76949E, symObjAddr: 0x3DC4, symBinAddr: 0x6FAD0, symSize: 0x298 }
  - { offset: 0x115C0B, size: 0x8, addend: 0x0, symName: __ZN14unsafe_libyaml6parser49yaml_parser_parse_flow_sequence_entry_mapping_end17hd67ff40546f2b545E, symObjAddr: 0x405C, symBinAddr: 0x6FD68, symSize: 0xD4 }
  - { offset: 0x115C5E, size: 0x8, addend: 0x0, symName: __ZN14unsafe_libyaml6parser49yaml_parser_parse_flow_sequence_entry_mapping_key17h66eda3c4baadfec3E, symObjAddr: 0x4130, symBinAddr: 0x6FE3C, symSize: 0x174 }
  - { offset: 0x115CF6, size: 0x8, addend: 0x0, symName: __ZN14unsafe_libyaml6parser51yaml_parser_parse_flow_sequence_entry_mapping_value17h3762fa005f8c1fbeE, symObjAddr: 0x42A4, symBinAddr: 0x6FFB0, symSize: 0x184 }
  - { offset: 0x116361, size: 0x8, addend: 0x0, symName: __ZN14unsafe_libyaml7externs13__assert_fail17hf2c2fd0685ec1c7eE, symObjAddr: 0x173C, symBinAddr: 0x70134, symSize: 0xE8 }
  - { offset: 0x1163EE, size: 0x8, addend: 0x0, symName: __ZN14unsafe_libyaml7externs4free17h06ee129256428650E, symObjAddr: 0x1824, symBinAddr: 0x7021C, symSize: 0x8C }
  - { offset: 0x1164C4, size: 0x8, addend: 0x0, symName: __ZN14unsafe_libyaml7externs6malloc17h7ea0d856290d0e8aE, symObjAddr: 0x18B0, symBinAddr: 0x702A8, symSize: 0xC8 }
  - { offset: 0x116597, size: 0x8, addend: 0x0, symName: __ZN14unsafe_libyaml7externs6memcmp17h56a192aa212f88e6E, symObjAddr: 0x1978, symBinAddr: 0x70370, symSize: 0xA4 }
  - { offset: 0x116619, size: 0x8, addend: 0x0, symName: __ZN14unsafe_libyaml7externs6memcpy17he3dded1b21f9fea0E, symObjAddr: 0x1A1C, symBinAddr: 0x70414, symSize: 0x94 }
  - { offset: 0x11668E, size: 0x8, addend: 0x0, symName: __ZN14unsafe_libyaml7externs6memset17hdd1ad51c7359d731E, symObjAddr: 0x1AB0, symBinAddr: 0x704A8, symSize: 0x88 }
  - { offset: 0x116703, size: 0x8, addend: 0x0, symName: __ZN14unsafe_libyaml7externs6strcmp17he269965c034636a8E, symObjAddr: 0x1B38, symBinAddr: 0x70530, symSize: 0xA8 }
  - { offset: 0x116777, size: 0x8, addend: 0x0, symName: __ZN14unsafe_libyaml7externs6strdup17hfff1d28cfcabb59dE, symObjAddr: 0x1BE0, symBinAddr: 0x705D8, symSize: 0xA8 }
  - { offset: 0x1167CD, size: 0x8, addend: 0x0, symName: __ZN14unsafe_libyaml7externs6strlen17h1d2e4e5af4751386E, symObjAddr: 0x1C88, symBinAddr: 0x70680, symSize: 0x64 }
  - { offset: 0x116833, size: 0x8, addend: 0x0, symName: __ZN14unsafe_libyaml7externs7memmove17h03090cec3456d0c3E, symObjAddr: 0x1CEC, symBinAddr: 0x706E4, symSize: 0xA0 }
  - { offset: 0x1168A8, size: 0x8, addend: 0x0, symName: __ZN14unsafe_libyaml7externs7realloc17heb8d92051e770f7bE, symObjAddr: 0x1D8C, symBinAddr: 0x70784, symSize: 0x140 }
  - { offset: 0x116A1D, size: 0x8, addend: 0x0, symName: '__ZN87_$LT$unsafe_libyaml..externs..__assert_fail..Abort$u20$as$u20$core..ops..drop..Drop$GT$4drop17hefee72f079a4a639E', symObjAddr: 0x3FC0, symBinAddr: 0x71FE4, symSize: 0x2C }
  - { offset: 0x116A55, size: 0x8, addend: 0x0, symName: '__ZN60_$LT$$BP$mut$u20$T$u20$as$u20$unsafe_libyaml..PointerExt$GT$13c_offset_from17h08b2142d3e177cefE', symObjAddr: 0x3B64, symBinAddr: 0x71E34, symSize: 0x90 }
  - { offset: 0x116A9B, size: 0x8, addend: 0x0, symName: '__ZN60_$LT$$BP$mut$u20$T$u20$as$u20$unsafe_libyaml..PointerExt$GT$13c_offset_from17h61ec381811888ed8E', symObjAddr: 0x3C84, symBinAddr: 0x71EC4, symSize: 0x90 }
  - { offset: 0x116AE7, size: 0x8, addend: 0x0, symName: '__ZN62_$LT$$BP$const$u20$T$u20$as$u20$unsafe_libyaml..PointerExt$GT$13c_offset_from17hcd66bd4bb181e7f2E', symObjAddr: 0x3D14, symBinAddr: 0x71F54, symSize: 0x90 }
  - { offset: 0x116FCF, size: 0x8, addend: 0x0, symName: '__ZN4core3ptr7mut_ptr31_$LT$impl$u20$$BP$mut$u20$T$GT$6offset18precondition_check17hdf1fb980456cba87E', symObjAddr: 0x3008, symBinAddr: 0x71654, symSize: 0x110 }
  - { offset: 0x1171AD, size: 0x8, addend: 0x0, symName: '__ZN4core3ptr7mut_ptr31_$LT$impl$u20$$BP$mut$u20$T$GT$7is_null17h0ceccd80413400ddE', symObjAddr: 0x3118, symBinAddr: 0x71764, symSize: 0x18 }
  - { offset: 0x1174DE, size: 0x8, addend: 0x0, symName: __ZN4core3ptr11write_bytes18precondition_check17h23ec029e3ec5ce27E, symObjAddr: 0x27C8, symBinAddr: 0x70E54, symSize: 0x16C }
  - { offset: 0x117632, size: 0x8, addend: 0x0, symName: __ZN4core3ptr19copy_nonoverlapping18precondition_check17hd381fa13a04103ccE, symObjAddr: 0x2934, symBinAddr: 0x70FC0, symSize: 0x358 }
  - { offset: 0x117913, size: 0x8, addend: 0x0, symName: __ZN4core3ptr4copy18precondition_check17h587d0d5ad981f447E, symObjAddr: 0x2C8C, symBinAddr: 0x71318, symSize: 0x240 }
  - { offset: 0x117B55, size: 0x8, addend: 0x0, symName: '__ZN4core3ptr57drop_in_place$LT$unsafe_libyaml..ops..die..PanicAgain$GT$17h0002764947e6538aE', symObjAddr: 0x2ECC, symBinAddr: 0x71558, symSize: 0x24 }
  - { offset: 0x117B84, size: 0x8, addend: 0x0, symName: __ZN4core3ptr5write17h16a10c008efde172E, symObjAddr: 0x2EF0, symBinAddr: 0x7157C, symSize: 0x1C }
  - { offset: 0x117BC6, size: 0x8, addend: 0x0, symName: __ZN4core3ptr5write17h472389e7d0d5ae60E, symObjAddr: 0x2F0C, symBinAddr: 0x71598, symSize: 0x2C }
  - { offset: 0x117C08, size: 0x8, addend: 0x0, symName: __ZN4core3ptr5write17h499a7172e6216b17E, symObjAddr: 0x2F38, symBinAddr: 0x715C4, symSize: 0x1C }
  - { offset: 0x117C4A, size: 0x8, addend: 0x0, symName: __ZN4core3ptr5write17hf3521a0ef67e457eE, symObjAddr: 0x2F94, symBinAddr: 0x715E0, symSize: 0x2C }
  - { offset: 0x117C8D, size: 0x8, addend: 0x0, symName: __ZN4core3ptr5write17hf39e191568c6cddbE, symObjAddr: 0x2FC0, symBinAddr: 0x7160C, symSize: 0x24 }
  - { offset: 0x117CCF, size: 0x8, addend: 0x0, symName: '__ZN4core3ptr66drop_in_place$LT$unsafe_libyaml..externs..__assert_fail..Abort$GT$17h2d73da6746beaaaeE', symObjAddr: 0x2FE4, symBinAddr: 0x71630, symSize: 0x24 }
  - { offset: 0x117FF4, size: 0x8, addend: 0x0, symName: '__ZN44_$LT$$RF$T$u20$as$u20$core..fmt..Display$GT$3fmt17ha0902bfe5d71e380E', symObjAddr: 0x1FDC, symBinAddr: 0x708C4, symSize: 0x3C }
  - { offset: 0x118837, size: 0x8, addend: 0x0, symName: '__ZN48_$LT$A$u20$as$u20$core..slice..cmp..SliceOrd$GT$7compare17hd1000014b14973feE', symObjAddr: 0x2018, symBinAddr: 0x70900, symSize: 0xE4 }
  - { offset: 0x118981, size: 0x8, addend: 0x0, symName: '__ZN4core5slice3cmp56_$LT$impl$u20$core..cmp..Ord$u20$for$u20$$u5b$T$u5d$$GT$3cmp17h91804f95c3df7d81E', symObjAddr: 0x3530, symBinAddr: 0x718F4, symSize: 0x34 }
  - { offset: 0x118AF1, size: 0x8, addend: 0x0, symName: '__ZN4core3num21_$LT$impl$u20$i32$GT$11checked_add17h95a467bdd377c42bE', symObjAddr: 0x23BC, symBinAddr: 0x70AD8, symSize: 0x6C }
  - { offset: 0x118BCA, size: 0x8, addend: 0x0, symName: '__ZN4core3num21_$LT$impl$u20$i32$GT$11checked_mul17h855ce22549de9f03E', symObjAddr: 0x2428, symBinAddr: 0x70B44, symSize: 0x7C }
  - { offset: 0x118CA9, size: 0x8, addend: 0x0, symName: '__ZN4core3num21_$LT$impl$u20$i64$GT$11checked_mul17h1551555cbbc591c8E', symObjAddr: 0x24A4, symBinAddr: 0x70BC0, symSize: 0x78 }
  - { offset: 0x118D5E, size: 0x8, addend: 0x0, symName: '__ZN4core3num21_$LT$impl$u20$u32$GT$11checked_add17h8ca7aa6b165707a5E', symObjAddr: 0x251C, symBinAddr: 0x70C38, symSize: 0x7C }
  - { offset: 0x118DBF, size: 0x8, addend: 0x0, symName: '__ZN4core3num21_$LT$impl$u20$u64$GT$11checked_add17h053d92d5cd54a38aE', symObjAddr: 0x2598, symBinAddr: 0x70CB4, symSize: 0x7C }
  - { offset: 0x118E20, size: 0x8, addend: 0x0, symName: '__ZN4core3num23_$LT$impl$u20$usize$GT$11checked_add17h74a2bc8a2f569b9dE', symObjAddr: 0x2688, symBinAddr: 0x70D30, symSize: 0x7C }
  - { offset: 0x1190A0, size: 0x8, addend: 0x0, symName: __ZN4core3ops8function6FnOnce9call_once17h09e44db75ae9b27cE, symObjAddr: 0x2704, symBinAddr: 0x70DAC, symSize: 0x1C }
  - { offset: 0x1190E4, size: 0x8, addend: 0x0, symName: __ZN4core3ops8function6FnOnce9call_once17h17792350431a50f5E, symObjAddr: 0x2720, symBinAddr: 0x70DC8, symSize: 0x1C }
  - { offset: 0x119128, size: 0x8, addend: 0x0, symName: __ZN4core3ops8function6FnOnce9call_once17h4f464df0fd90835fE, symObjAddr: 0x273C, symBinAddr: 0x70DE4, symSize: 0x1C }
  - { offset: 0x11916C, size: 0x8, addend: 0x0, symName: __ZN4core3ops8function6FnOnce9call_once17h6376e4d3541112d5E, symObjAddr: 0x2758, symBinAddr: 0x70E00, symSize: 0x1C }
  - { offset: 0x1191B0, size: 0x8, addend: 0x0, symName: __ZN4core3ops8function6FnOnce9call_once17h6d1b8d0fc763556fE, symObjAddr: 0x2774, symBinAddr: 0x70E1C, symSize: 0x1C }
  - { offset: 0x1191F4, size: 0x8, addend: 0x0, symName: __ZN4core3ops8function6FnOnce9call_once17hbebc2aee1254bc50E, symObjAddr: 0x2790, symBinAddr: 0x70E38, symSize: 0x1C }
  - { offset: 0x119411, size: 0x8, addend: 0x0, symName: __ZN4core9ub_checks23maybe_is_nonoverlapping7runtime17h0a0f2f64192f5c81E, symObjAddr: 0x39C0, symBinAddr: 0x71C90, symSize: 0xD8 }
  - { offset: 0x119634, size: 0x8, addend: 0x0, symName: __ZN4core5alloc6layout6Layout25from_size_align_unchecked18precondition_check17h94615e9deb5f1b68E, symObjAddr: 0x3474, symBinAddr: 0x71838, symSize: 0xBC }
  - { offset: 0x1196F9, size: 0x8, addend: 0x0, symName: '__ZN4core7convert3num18ptr_try_from_impls69_$LT$impl$u20$core..convert..TryFrom$LT$u64$GT$$u20$for$u20$usize$GT$8try_from17h5ee58dc3706157ffE', symObjAddr: 0x39A8, symBinAddr: 0x71C78, symSize: 0x18 }
  - { offset: 0x11972F, size: 0x8, addend: 0x0, symName: '__ZN53_$LT$T$u20$as$u20$core..convert..TryInto$LT$U$GT$$GT$8try_into17hebd8dabd9c2bb31aE', symObjAddr: 0x3A98, symBinAddr: 0x71D68, symSize: 0x20 }
  - { offset: 0x11996B, size: 0x8, addend: 0x0, symName: '__ZN4core3fmt2rt38_$LT$impl$u20$core..fmt..Arguments$GT$6new_v117h0ba3f8560027acadE', symObjAddr: 0x2180, symBinAddr: 0x709E4, symSize: 0x54 }
  - { offset: 0x1199B5, size: 0x8, addend: 0x0, symName: '__ZN4core3fmt2rt38_$LT$impl$u20$core..fmt..Arguments$GT$9new_const17h03d5aedcc1ac20a3E', symObjAddr: 0x21D4, symBinAddr: 0x70A38, symSize: 0x48 }
  - { offset: 0x1199F1, size: 0x8, addend: 0x0, symName: __ZN4core3fmt2rt8Argument11new_display17h3d9b3687fa760b18E, symObjAddr: 0x2248, symBinAddr: 0x70A80, symSize: 0x2C }
  - { offset: 0x119A29, size: 0x8, addend: 0x0, symName: __ZN4core3fmt2rt8Argument11new_display17hf1962b9e6e2e3ed3E, symObjAddr: 0x2274, symBinAddr: 0x70AAC, symSize: 0x2C }
  - { offset: 0x119B46, size: 0x8, addend: 0x0, symName: __ZN4core5alloc6layout6Layout15from_size_align17h926b753c0861b327E, symObjAddr: 0x33B8, symBinAddr: 0x7177C, symSize: 0x70 }
  - { offset: 0x119BA1, size: 0x8, addend: 0x0, symName: __ZN4core5alloc6layout6Layout25from_size_align_unchecked17hed6282b25bf868f6E, symObjAddr: 0x3428, symBinAddr: 0x717EC, symSize: 0x4C }
  - { offset: 0x119BF5, size: 0x8, addend: 0x0, symName: '__ZN4core6option15Option$LT$T$GT$14unwrap_or_else17h2262e46244d5adc6E', symObjAddr: 0x3564, symBinAddr: 0x71928, symSize: 0x50 }
  - { offset: 0x119C4B, size: 0x8, addend: 0x0, symName: '__ZN4core6option15Option$LT$T$GT$14unwrap_or_else17h460adc74f110d6a4E', symObjAddr: 0x35B4, symBinAddr: 0x71978, symSize: 0x48 }
  - { offset: 0x119CA1, size: 0x8, addend: 0x0, symName: '__ZN4core6option15Option$LT$T$GT$14unwrap_or_else17h63b59392fc1d0db9E', symObjAddr: 0x35FC, symBinAddr: 0x719C0, symSize: 0x48 }
  - { offset: 0x119CF7, size: 0x8, addend: 0x0, symName: '__ZN4core6option15Option$LT$T$GT$14unwrap_or_else17h881e1a3b5f7efcf6E', symObjAddr: 0x3644, symBinAddr: 0x71A08, symSize: 0x60 }
  - { offset: 0x119D4D, size: 0x8, addend: 0x0, symName: '__ZN4core6option15Option$LT$T$GT$14unwrap_or_else17hfbd7eab88f7cc84fE', symObjAddr: 0x36EC, symBinAddr: 0x71A68, symSize: 0x48 }
  - { offset: 0x119DA3, size: 0x8, addend: 0x0, symName: '__ZN4core6option15Option$LT$T$GT$14unwrap_or_else17hfff70a7d33466ddaE', symObjAddr: 0x3734, symBinAddr: 0x71AB0, symSize: 0x50 }
  - { offset: 0x119E28, size: 0x8, addend: 0x0, symName: '__ZN4core6option15Option$LT$T$GT$6expect17h9e7153cf28966765E', symObjAddr: 0x37E0, symBinAddr: 0x71B00, symSize: 0x5C }
  - { offset: 0x119E8C, size: 0x8, addend: 0x0, symName: '__ZN4core6option15Option$LT$T$GT$7is_none17hb430337a09ea1d81E', symObjAddr: 0x3864, symBinAddr: 0x71B5C, symSize: 0x28 }
  - { offset: 0x119ED6, size: 0x8, addend: 0x0, symName: '__ZN4core6option15Option$LT$T$GT$7is_some17hf2e2fc1afbf2f4e5E', symObjAddr: 0x38B4, symBinAddr: 0x71B84, symSize: 0x28 }
  - { offset: 0x119F02, size: 0x8, addend: 0x0, symName: '__ZN4core6result19Result$LT$T$C$E$GT$2ok17h3d6bfb3b13a402ecE', symObjAddr: 0x38DC, symBinAddr: 0x71BAC, symSize: 0x58 }
  - { offset: 0x119F55, size: 0x8, addend: 0x0, symName: '__ZN4core6result19Result$LT$T$C$E$GT$2ok17hb28d9c9b9ea7765eE', symObjAddr: 0x3934, symBinAddr: 0x71C04, symSize: 0x74 }
  - { offset: 0x119FB2, size: 0x8, addend: 0x0, symName: __ZN5alloc5alloc5alloc17he6198c91f74a8793E, symObjAddr: 0x3AB8, symBinAddr: 0x71D88, symSize: 0x38 }
  - { offset: 0x119FDE, size: 0x8, addend: 0x0, symName: __ZN5alloc5alloc7dealloc17h978b477f3e2ce611E, symObjAddr: 0x3AF0, symBinAddr: 0x71DC0, symSize: 0x38 }
  - { offset: 0x11A014, size: 0x8, addend: 0x0, symName: __ZN5alloc5alloc7realloc17h7df50306d43bad1aE, symObjAddr: 0x3B28, symBinAddr: 0x71DF8, symSize: 0x3C }
  - { offset: 0x11A3D9, size: 0x8, addend: 0x0, symName: '__ZN72_$LT$alloc..vec..Vec$LT$T$C$A$GT$$u20$as$u20$core..ops..deref..Deref$GT$5deref17hea1af7e2c91de253E', symObjAddr: 0x29B8, symBinAddr: 0x72118, symSize: 0x24 }
  - { offset: 0x11AD32, size: 0x8, addend: 0x0, symName: '__ZN4core3str6traits54_$LT$impl$u20$core..cmp..PartialEq$u20$for$u20$str$GT$2eq17hb18a20d5e730353aE', symObjAddr: 0x10BC, symBinAddr: 0x72010, symSize: 0xA0 }
  - { offset: 0x11B2B2, size: 0x8, addend: 0x0, symName: '__ZN5alloc3vec16Vec$LT$T$C$A$GT$8as_slice17ha722d11214303665E', symObjAddr: 0x1EAC, symBinAddr: 0x720B0, symSize: 0x68 }
  - { offset: 0x11B3FE, size: 0x8, addend: 0x0, symName: '__ZN83_$LT$alloc..vec..set_len_on_drop..SetLenOnDrop$u20$as$u20$core..ops..drop..Drop$GT$4drop17ha5e28301238ebce8E', symObjAddr: 0x4BE8, symBinAddr: 0x72398, symSize: 0x20 }
  - { offset: 0x11B523, size: 0x8, addend: 0x0, symName: __ZN4core3cmp3min17hdeaa826740892e67E, symObjAddr: 0x78, symBinAddr: 0x7213C, symSize: 0x24 }
  - { offset: 0x11B573, size: 0x8, addend: 0x0, symName: '__ZN4core3cmp5impls69_$LT$impl$u20$core..cmp..PartialEq$LT$$RF$B$GT$$u20$for$u20$$RF$A$GT$2eq17hb49209a2a20a278fE', symObjAddr: 0x1FC, symBinAddr: 0x72160, symSize: 0x44 }
  - { offset: 0x11B5D4, size: 0x8, addend: 0x0, symName: __ZN4core5slice3raw14from_raw_parts18precondition_check17h9020f69eaf1ef56dE, symObjAddr: 0x1208, symBinAddr: 0x721C0, symSize: 0x1D8 }
  - { offset: 0x11B773, size: 0x8, addend: 0x0, symName: '__ZN4core5slice29_$LT$impl$u20$$u5b$T$u5d$$GT$8is_empty17h8094da62033e04b4E', symObjAddr: 0x11EC, symBinAddr: 0x721A4, symSize: 0x1C }
  - { offset: 0x11BD8D, size: 0x8, addend: 0x0, symName: '__ZN4core3ptr42drop_in_place$LT$alloc..string..String$GT$17h368d829f96e39f9dE', symObjAddr: 0x104C, symBinAddr: 0x723B8, symSize: 0x24 }
  - { offset: 0x11BDBC, size: 0x8, addend: 0x0, symName: '__ZN4core3ptr46drop_in_place$LT$alloc..vec..Vec$LT$u8$GT$$GT$17h7dafacd30482280aE', symObjAddr: 0x10B8, symBinAddr: 0x723DC, symSize: 0x5C }
  - { offset: 0x11BDEB, size: 0x8, addend: 0x0, symName: '__ZN4core3ptr53drop_in_place$LT$alloc..raw_vec..RawVec$LT$u8$GT$$GT$17ha3c2cf149212d439E', symObjAddr: 0x115C, symBinAddr: 0x72438, symSize: 0x24 }
  - { offset: 0x11BE1A, size: 0x8, addend: 0x0, symName: '__ZN4core3ptr62drop_in_place$LT$alloc..vec..set_len_on_drop..SetLenOnDrop$GT$17h87b90ae3935b57b7E', symObjAddr: 0x1208, symBinAddr: 0x7245C, symSize: 0x24 }
  - { offset: 0x11C18F, size: 0x8, addend: 0x0, symName: '__ZN44_$LT$T$u20$as$u20$alloc..borrow..ToOwned$GT$8to_owned17h9777869f060a307cE', symObjAddr: 0x5C18, symBinAddr: 0x73A8C, symSize: 0x24 }
  - { offset: 0x11C521, size: 0x8, addend: 0x0, symName: '__ZN42_$LT$$RF$T$u20$as$u20$core..fmt..Debug$GT$3fmt17hb28a4e20ae8e0eebE', symObjAddr: 0x5B40, symBinAddr: 0x739FC, symSize: 0x30 }
  - { offset: 0x11C56D, size: 0x8, addend: 0x0, symName: '__ZN44_$LT$$RF$T$u20$as$u20$core..fmt..Display$GT$3fmt17h8b58f812c439b1f7E', symObjAddr: 0x5B70, symBinAddr: 0x73A2C, symSize: 0x30 }
  - { offset: 0x11C5B3, size: 0x8, addend: 0x0, symName: '__ZN44_$LT$$RF$T$u20$as$u20$core..fmt..Display$GT$3fmt17hb927bf78a7a51459E', symObjAddr: 0x5BA0, symBinAddr: 0x73A5C, symSize: 0x30 }
  - { offset: 0x11C76C, size: 0x8, addend: 0x0, symName: '__ZN4core5array4iter94_$LT$impl$u20$core..iter..traits..collect..IntoIterator$u20$for$u20$$u5b$T$u3b$$u20$N$u5d$$GT$9into_iter17h7f64e154239f254bE', symObjAddr: 0x5DC8, symBinAddr: 0x73AB0, symSize: 0x58 }
  - { offset: 0x11DA8A, size: 0x8, addend: 0x0, symName: '__ZN50_$LT$T$u20$as$u20$core..convert..Into$LT$U$GT$$GT$4into17h21a98cff4d718890E', symObjAddr: 0xA6F4, symBinAddr: 0x75BF4, symSize: 0x24 }
  - { offset: 0x11DACA, size: 0x8, addend: 0x0, symName: '__ZN50_$LT$T$u20$as$u20$core..convert..Into$LT$U$GT$$GT$4into17h3fd8784ce99a8f4aE', symObjAddr: 0xA73C, symBinAddr: 0x75C18, symSize: 0x24 }
  - { offset: 0x11DB0A, size: 0x8, addend: 0x0, symName: '__ZN50_$LT$T$u20$as$u20$core..convert..Into$LT$U$GT$$GT$4into17h82f86b0b51a32effE', symObjAddr: 0xA784, symBinAddr: 0x75C3C, symSize: 0x24 }
  - { offset: 0x11DB4A, size: 0x8, addend: 0x0, symName: '__ZN50_$LT$T$u20$as$u20$core..convert..Into$LT$U$GT$$GT$4into17h931c5aceecd62862E', symObjAddr: 0xA7A8, symBinAddr: 0x75C60, symSize: 0x24 }
  - { offset: 0x11DB8A, size: 0x8, addend: 0x0, symName: '__ZN50_$LT$T$u20$as$u20$core..convert..Into$LT$U$GT$$GT$4into17hb28658d3c30e944bE', symObjAddr: 0xA814, symBinAddr: 0x75C84, symSize: 0x24 }
  - { offset: 0x11DBCA, size: 0x8, addend: 0x0, symName: '__ZN50_$LT$T$u20$as$u20$core..convert..Into$LT$U$GT$$GT$4into17hbdf46554c2321a94E', symObjAddr: 0xA85C, symBinAddr: 0x75CA8, symSize: 0x24 }
  - { offset: 0x11DCDA, size: 0x8, addend: 0x0, symName: '__ZN103_$LT$pyo3..instance..Bound$LT$pyo3..types..any..PyAny$GT$$u20$as$u20$pyo3..types..any..PyAnyMethods$GT$13downcast_into17h0c5c8c5aece43c7aE', symObjAddr: 0x534, symBinAddr: 0x72480, symSize: 0xE8 }
  - { offset: 0x11DD11, size: 0x8, addend: 0x0, symName: '__ZN103_$LT$pyo3..instance..Bound$LT$pyo3..types..any..PyAny$GT$$u20$as$u20$pyo3..types..any..PyAnyMethods$GT$13downcast_into17h1ebb3333756e1941E', symObjAddr: 0x61C, symBinAddr: 0x72568, symSize: 0xE8 }
  - { offset: 0x11DD48, size: 0x8, addend: 0x0, symName: '__ZN103_$LT$pyo3..instance..Bound$LT$pyo3..types..any..PyAny$GT$$u20$as$u20$pyo3..types..any..PyAnyMethods$GT$13downcast_into17h5c9f87c071923fd1E', symObjAddr: 0x704, symBinAddr: 0x72650, symSize: 0xE8 }
  - { offset: 0x11DD7F, size: 0x8, addend: 0x0, symName: '__ZN103_$LT$pyo3..instance..Bound$LT$pyo3..types..any..PyAny$GT$$u20$as$u20$pyo3..types..any..PyAnyMethods$GT$18downcast_unchecked17h8f4f8bd6c5869fd2E', symObjAddr: 0xE44, symBinAddr: 0x72738, symSize: 0x74 }
  - { offset: 0x11DDB6, size: 0x8, addend: 0x0, symName: '__ZN103_$LT$pyo3..instance..Bound$LT$pyo3..types..any..PyAny$GT$$u20$as$u20$pyo3..types..any..PyAnyMethods$GT$23downcast_into_unchecked17h0dfc7ab0861ccb8fE', symObjAddr: 0xF54, symBinAddr: 0x727AC, symSize: 0x14 }
  - { offset: 0x11DDED, size: 0x8, addend: 0x0, symName: '__ZN103_$LT$pyo3..instance..Bound$LT$pyo3..types..any..PyAny$GT$$u20$as$u20$pyo3..types..any..PyAnyMethods$GT$23downcast_into_unchecked17h16c33e91945c0b72E', symObjAddr: 0xF68, symBinAddr: 0x727C0, symSize: 0x14 }
  - { offset: 0x11DE24, size: 0x8, addend: 0x0, symName: '__ZN103_$LT$pyo3..instance..Bound$LT$pyo3..types..any..PyAny$GT$$u20$as$u20$pyo3..types..any..PyAnyMethods$GT$23downcast_into_unchecked17h32e3e1c2c3175ac8E', symObjAddr: 0xF90, symBinAddr: 0x727D4, symSize: 0x14 }
  - { offset: 0x11DE5B, size: 0x8, addend: 0x0, symName: '__ZN103_$LT$pyo3..instance..Bound$LT$pyo3..types..any..PyAny$GT$$u20$as$u20$pyo3..types..any..PyAnyMethods$GT$23downcast_into_unchecked17h8c25d9ee3b6e23c2E', symObjAddr: 0x101C, symBinAddr: 0x727E8, symSize: 0x14 }
  - { offset: 0x11DE92, size: 0x8, addend: 0x0, symName: '__ZN103_$LT$pyo3..instance..Bound$LT$pyo3..types..any..PyAny$GT$$u20$as$u20$pyo3..types..any..PyAnyMethods$GT$23downcast_into_unchecked17hc565fec857a16ab9E', symObjAddr: 0x1094, symBinAddr: 0x727FC, symSize: 0x14 }
  - { offset: 0x11DEC9, size: 0x8, addend: 0x0, symName: '__ZN103_$LT$pyo3..instance..Bound$LT$pyo3..types..any..PyAny$GT$$u20$as$u20$pyo3..types..any..PyAnyMethods$GT$23downcast_into_unchecked17hf3411264a1d9f6a9E', symObjAddr: 0x110C, symBinAddr: 0x72810, symSize: 0x14 }
  - { offset: 0x11DF00, size: 0x8, addend: 0x0, symName: '__ZN103_$LT$pyo3..instance..Bound$LT$pyo3..types..any..PyAny$GT$$u20$as$u20$pyo3..types..any..PyAnyMethods$GT$2is17hc02ac2c400a8d8cfE', symObjAddr: 0x1120, symBinAddr: 0x72824, symSize: 0x4C }
  - { offset: 0x11DF46, size: 0x8, addend: 0x0, symName: '__ZN103_$LT$pyo3..instance..Bound$LT$pyo3..types..any..PyAny$GT$$u20$as$u20$pyo3..types..any..PyAnyMethods$GT$3str17hc8630188b9a38c2aE', symObjAddr: 0x1308, symBinAddr: 0x72870, symSize: 0x5C }
  - { offset: 0x11DF74, size: 0x8, addend: 0x0, symName: '__ZN103_$LT$pyo3..instance..Bound$LT$pyo3..types..any..PyAny$GT$$u20$as$u20$pyo3..types..any..PyAnyMethods$GT$4repr17heb5b3be627446640E', symObjAddr: 0x1434, symBinAddr: 0x728CC, symSize: 0x5C }
  - { offset: 0x11DFA2, size: 0x8, addend: 0x0, symName: '__ZN103_$LT$pyo3..instance..Bound$LT$pyo3..types..any..PyAny$GT$$u20$as$u20$pyo3..types..any..PyAnyMethods$GT$7extract17hb093e5b138a30a77E', symObjAddr: 0x1BA8, symBinAddr: 0x72928, symSize: 0x30 }
  - { offset: 0x11DFD9, size: 0x8, addend: 0x0, symName: '__ZN103_$LT$pyo3..instance..Bound$LT$pyo3..types..any..PyAny$GT$$u20$as$u20$pyo3..types..any..PyAnyMethods$GT$7getattr17hef29563fa8c95291E', symObjAddr: 0x1E54, symBinAddr: 0x72958, symSize: 0xE4 }
  - { offset: 0x11E035, size: 0x8, addend: 0x0, symName: '__ZN103_$LT$pyo3..instance..Bound$LT$pyo3..types..any..PyAny$GT$$u20$as$u20$pyo3..types..any..PyAnyMethods$GT$7setattr17h03795f0310b7919fE', symObjAddr: 0x1F7C, symBinAddr: 0x72A3C, symSize: 0x11C }
  - { offset: 0x11E0AA, size: 0x8, addend: 0x0, symName: '__ZN103_$LT$pyo3..instance..Bound$LT$pyo3..types..any..PyAny$GT$$u20$as$u20$pyo3..types..any..PyAnyMethods$GT$7setattr17haa2015d61ab2c69bE', symObjAddr: 0x2098, symBinAddr: 0x72B58, symSize: 0x140 }
  - { offset: 0x11E11E, size: 0x8, addend: 0x0, symName: '__ZN103_$LT$pyo3..instance..Bound$LT$pyo3..types..any..PyAny$GT$$u20$as$u20$pyo3..types..any..PyAnyMethods$GT$8downcast17hbd74a5ce870ffc3fE', symObjAddr: 0x23E8, symBinAddr: 0x72C98, symSize: 0x84 }
  - { offset: 0x11E155, size: 0x8, addend: 0x0, symName: '__ZN103_$LT$pyo3..instance..Bound$LT$pyo3..types..any..PyAny$GT$$u20$as$u20$pyo3..types..any..PyAnyMethods$GT$8get_type17hedea54c714e3607dE', symObjAddr: 0x2570, symBinAddr: 0x72D1C, symSize: 0x38 }
  - { offset: 0x11E1F2, size: 0x8, addend: 0x0, symName: '__ZN107_$LT$pyo3..instance..Bound$LT$pyo3..types..list..PyList$GT$$u20$as$u20$pyo3..types..list..PyListMethods$GT$6append17hd4e84834e4946de4E', symObjAddr: 0x2C6C, symBinAddr: 0x72DC0, symSize: 0x80 }
  - { offset: 0x11E277, size: 0x8, addend: 0x0, symName: '__ZN111_$LT$pyo3..instance..Bound$LT$pyo3..types..bytes..PyBytes$GT$$u20$as$u20$pyo3..types..bytes..PyBytesMethods$GT$8as_bytes17h98c9ecb12e55ae0bE', symObjAddr: 0x2E8C, symBinAddr: 0x72E40, symSize: 0x28 }
  - { offset: 0x11E2C4, size: 0x8, addend: 0x0, symName: '__ZN111_$LT$pyo3..instance..Bound$LT$pyo3..types..tuple..PyTuple$GT$$u20$as$u20$pyo3..types..tuple..PyTupleMethods$GT$3len17had3c8c8a3e29d34eE', symObjAddr: 0x3094, symBinAddr: 0x72E68, symSize: 0x2C }
  - { offset: 0x11E340, size: 0x8, addend: 0x0, symName: '__ZN115_$LT$pyo3..instance..Bound$LT$pyo3..types..module..PyModule$GT$$u20$as$u20$pyo3..types..module..PyModuleMethods$GT$12add_function17h1f1f8408b3a4c002E', symObjAddr: 0x325C, symBinAddr: 0x72E94, symSize: 0x1E0 }
  - { offset: 0x11E3EF, size: 0x8, addend: 0x0, symName: '__ZN115_$LT$pyo3..instance..Bound$LT$pyo3..types..module..PyModule$GT$$u20$as$u20$pyo3..types..module..PyModuleMethods$GT$3add17h2a8cdbebb724dff8E', symObjAddr: 0x3538, symBinAddr: 0x73074, symSize: 0x13C }
  - { offset: 0x11E463, size: 0x8, addend: 0x0, symName: '__ZN115_$LT$pyo3..instance..Bound$LT$pyo3..types..module..PyModule$GT$$u20$as$u20$pyo3..types..module..PyModuleMethods$GT$4name17ha735ab01f42f5471E', symObjAddr: 0x393C, symBinAddr: 0x731B0, symSize: 0x5C }
  - { offset: 0x11E491, size: 0x8, addend: 0x0, symName: '__ZN115_$LT$pyo3..instance..Bound$LT$pyo3..types..module..PyModule$GT$$u20$as$u20$pyo3..types..module..PyModuleMethods$GT$5index17h03a5380360e67ef1E', symObjAddr: 0x3998, symBinAddr: 0x7320C, symSize: 0x248 }
  - { offset: 0x11E561, size: 0x8, addend: 0x0, symName: '__ZN115_$LT$pyo3..instance..Bound$LT$pyo3..types..string..PyString$GT$$u20$as$u20$pyo3..types..string..PyStringMethods$GT$11encode_utf817h3f2962c8edd4d9b4E', symObjAddr: 0x3C3C, symBinAddr: 0x73454, symSize: 0x5C }
  - { offset: 0x11E58F, size: 0x8, addend: 0x0, symName: '__ZN115_$LT$pyo3..instance..Bound$LT$pyo3..types..string..PyString$GT$$u20$as$u20$pyo3..types..string..PyStringMethods$GT$15to_string_lossy17hbaabb9efd862ff20E', symObjAddr: 0x3C98, symBinAddr: 0x734B0, symSize: 0x30 }
  - { offset: 0x11E5BD, size: 0x8, addend: 0x0, symName: '__ZN115_$LT$pyo3..instance..Bound$LT$pyo3..types..string..PyString$GT$$u20$as$u20$pyo3..types..string..PyStringMethods$GT$6to_cow17h893260bfb50e907bE', symObjAddr: 0x3CC8, symBinAddr: 0x734E0, symSize: 0x30 }
  - { offset: 0x11E606, size: 0x8, addend: 0x0, symName: '__ZN4pyo35types6string176_$LT$impl$u20$pyo3..conversion..IntoPy$LT$pyo3..instance..Py$LT$pyo3..types..string..PyString$GT$$GT$$u20$for$u20$pyo3..instance..Bound$LT$pyo3..types..string..PyString$GT$$GT$7into_py17he5356e00bea305a4E', symObjAddr: 0x6E08, symBinAddr: 0x73C50, symSize: 0x24 }
  - { offset: 0x11E655, size: 0x8, addend: 0x0, symName: '__ZN4pyo35types6string180_$LT$impl$u20$pyo3..conversion..IntoPy$LT$pyo3..instance..Py$LT$pyo3..types..string..PyString$GT$$GT$$u20$for$u20$$RF$pyo3..instance..Bound$LT$pyo3..types..string..PyString$GT$$GT$7into_py17h4fe185c88c4bf674E', symObjAddr: 0x6E50, symBinAddr: 0x73C74, symSize: 0x28 }
  - { offset: 0x11E6AA, size: 0x8, addend: 0x0, symName: '__ZN119_$LT$pyo3..instance..Bound$LT$pyo3..types..typeobject..PyType$GT$$u20$as$u20$pyo3..types..typeobject..PyTypeMethods$GT$4name17hf608c0a9dd521a62E', symObjAddr: 0x46C8, symBinAddr: 0x73510, symSize: 0x120 }
  - { offset: 0x11E72F, size: 0x8, addend: 0x0, symName: '__ZN119_$LT$pyo3..instance..Bound$LT$pyo3..types..typeobject..PyType$GT$$u20$as$u20$pyo3..types..typeobject..PyTypeMethods$GT$8qualname17h43aa703037c79d95E', symObjAddr: 0x4A20, symBinAddr: 0x73630, symSize: 0x120 }
  - { offset: 0x11E842, size: 0x8, addend: 0x0, symName: '__ZN105_$LT$pyo3..instance..Py$LT$T$GT$$u20$as$u20$core..convert..From$LT$pyo3..instance..Bound$LT$T$GT$$GT$$GT$4from17hb4e4ce808b5d6c3cE', symObjAddr: 0x27E8, symBinAddr: 0x72D54, symSize: 0x24 }
  - { offset: 0x11E879, size: 0x8, addend: 0x0, symName: '__ZN105_$LT$pyo3..instance..Py$LT$T$GT$$u20$as$u20$core..convert..From$LT$pyo3..instance..Bound$LT$T$GT$$GT$$GT$4from17hb8c4dbeb9e18ae4eE', symObjAddr: 0x280C, symBinAddr: 0x72D78, symSize: 0x24 }
  - { offset: 0x11E8B0, size: 0x8, addend: 0x0, symName: '__ZN105_$LT$pyo3..instance..Py$LT$T$GT$$u20$as$u20$core..convert..From$LT$pyo3..instance..Bound$LT$T$GT$$GT$$GT$4from17hc46254ff0948df78E', symObjAddr: 0x2830, symBinAddr: 0x72D9C, symSize: 0x24 }
  - { offset: 0x11E8ED, size: 0x8, addend: 0x0, symName: '__ZN124_$LT$pyo3..instance..Py$LT$pyo3..types..any..PyAny$GT$$u20$as$u20$core..convert..From$LT$pyo3..instance..Py$LT$T$GT$$GT$$GT$4from17h654621f64ebc3d46E', symObjAddr: 0x4BC0, symBinAddr: 0x73750, symSize: 0x24 }
  - { offset: 0x11E92A, size: 0x8, addend: 0x0, symName: '__ZN127_$LT$pyo3..instance..Py$LT$pyo3..types..any..PyAny$GT$$u20$as$u20$core..convert..From$LT$pyo3..instance..Bound$LT$T$GT$$GT$$GT$4from17h232e208a73ec6823E', symObjAddr: 0x541C, symBinAddr: 0x73774, symSize: 0x84 }
  - { offset: 0x11E97F, size: 0x8, addend: 0x0, symName: '__ZN127_$LT$pyo3..instance..Py$LT$pyo3..types..any..PyAny$GT$$u20$as$u20$core..convert..From$LT$pyo3..instance..Bound$LT$T$GT$$GT$$GT$4from17hde2901529a69a54bE', symObjAddr: 0x55A8, symBinAddr: 0x737F8, symSize: 0x84 }
  - { offset: 0x11E9DA, size: 0x8, addend: 0x0, symName: '__ZN129_$LT$pyo3..instance..Py$LT$T$GT$$u20$as$u20$pyo3..conversion..IntoPy$LT$pyo3..instance..Py$LT$pyo3..types..any..PyAny$GT$$GT$$GT$7into_py17hd52aa494ae9381fbE', symObjAddr: 0x562C, symBinAddr: 0x7387C, symSize: 0x24 }
  - { offset: 0x11EA32, size: 0x8, addend: 0x0, symName: '__ZN132_$LT$pyo3..instance..Bound$LT$T$GT$$u20$as$u20$pyo3..conversion..IntoPy$LT$pyo3..instance..Py$LT$pyo3..types..any..PyAny$GT$$GT$$GT$7into_py17h1d810243e39fbe34E', symObjAddr: 0x5650, symBinAddr: 0x738A0, symSize: 0x28 }
  - { offset: 0x11EA84, size: 0x8, addend: 0x0, symName: '__ZN132_$LT$pyo3..instance..Bound$LT$T$GT$$u20$as$u20$pyo3..conversion..IntoPy$LT$pyo3..instance..Py$LT$pyo3..types..any..PyAny$GT$$GT$$GT$7into_py17h5fdb2a0ed12e0ec2E', symObjAddr: 0x56A0, symBinAddr: 0x738C8, symSize: 0x28 }
  - { offset: 0x11EAD6, size: 0x8, addend: 0x0, symName: '__ZN132_$LT$pyo3..instance..Bound$LT$T$GT$$u20$as$u20$pyo3..conversion..IntoPy$LT$pyo3..instance..Py$LT$pyo3..types..any..PyAny$GT$$GT$$GT$7into_py17h9c48e16733188a6dE', symObjAddr: 0x56C8, symBinAddr: 0x738F0, symSize: 0x28 }
  - { offset: 0x11EB28, size: 0x8, addend: 0x0, symName: '__ZN132_$LT$pyo3..instance..Bound$LT$T$GT$$u20$as$u20$pyo3..conversion..IntoPy$LT$pyo3..instance..Py$LT$pyo3..types..any..PyAny$GT$$GT$$GT$7into_py17ha3ffc35db5cd99f6E', symObjAddr: 0x56F0, symBinAddr: 0x73918, symSize: 0x28 }
  - { offset: 0x11EB7A, size: 0x8, addend: 0x0, symName: '__ZN132_$LT$pyo3..instance..Bound$LT$T$GT$$u20$as$u20$pyo3..conversion..IntoPy$LT$pyo3..instance..Py$LT$pyo3..types..any..PyAny$GT$$GT$$GT$7into_py17hc7fe071e3afc6e2bE', symObjAddr: 0x5740, symBinAddr: 0x73940, symSize: 0x28 }
  - { offset: 0x11EBCC, size: 0x8, addend: 0x0, symName: '__ZN132_$LT$pyo3..instance..Bound$LT$T$GT$$u20$as$u20$pyo3..conversion..IntoPy$LT$pyo3..instance..Py$LT$pyo3..types..any..PyAny$GT$$GT$$GT$7into_py17hf0425be60f0cc089E', symObjAddr: 0x5790, symBinAddr: 0x73968, symSize: 0x28 }
  - { offset: 0x11EC24, size: 0x8, addend: 0x0, symName: '__ZN135_$LT$pyo3..instance..Borrowed$LT$T$GT$$u20$as$u20$pyo3..conversion..IntoPy$LT$pyo3..instance..Py$LT$pyo3..types..any..PyAny$GT$$GT$$GT$7into_py17hc6af2e1af4be82f0E', symObjAddr: 0x5804, symBinAddr: 0x73990, symSize: 0x28 }
  - { offset: 0x12003B, size: 0x8, addend: 0x0, symName: '__ZN4pyo38instance11Py$LT$T$GT$21from_owned_ptr_or_opt28_$u7b$$u7b$closure$u7d$$u7d$17h280b4a07c897339fE', symObjAddr: 0x7BD8, symBinAddr: 0x742C4, symSize: 0x14 }
  - { offset: 0x12007D, size: 0x8, addend: 0x0, symName: '__ZN4pyo38instance11Py$LT$T$GT$21from_owned_ptr_or_opt28_$u7b$$u7b$closure$u7d$$u7d$17h3cb23d3355742948E', symObjAddr: 0x7BEC, symBinAddr: 0x742D8, symSize: 0x14 }
  - { offset: 0x1200BF, size: 0x8, addend: 0x0, symName: '__ZN4pyo38instance11Py$LT$T$GT$21from_owned_ptr_or_opt28_$u7b$$u7b$closure$u7d$$u7d$17h8d8832d23ad88facE', symObjAddr: 0x7C00, symBinAddr: 0x742EC, symSize: 0x14 }
  - { offset: 0x120101, size: 0x8, addend: 0x0, symName: '__ZN4pyo38instance11Py$LT$T$GT$21from_owned_ptr_or_opt28_$u7b$$u7b$closure$u7d$$u7d$17hf4a5ef3151e90b18E', symObjAddr: 0x7C14, symBinAddr: 0x74300, symSize: 0x14 }
  - { offset: 0x120456, size: 0x8, addend: 0x0, symName: __ZN4pyo38instance13python_format17h8d0b747df6cc4286E, symObjAddr: 0x89C8, symBinAddr: 0x74BBC, symSize: 0x2E0 }
  - { offset: 0x120953, size: 0x8, addend: 0x0, symName: '__ZN4pyo38instance36Bound$LT$pyo3..types..any..PyAny$GT$21from_owned_ptr_or_err28_$u7b$$u7b$closure$u7d$$u7d$17h69759b1f81c078bcE', symObjAddr: 0xA230, symBinAddr: 0x75994, symSize: 0x28 }
  - { offset: 0x1209B1, size: 0x8, addend: 0x0, symName: '__ZN4pyo38instance36Bound$LT$pyo3..types..any..PyAny$GT$21from_owned_ptr_or_opt28_$u7b$$u7b$closure$u7d$$u7d$17h1c1a409580960122E', symObjAddr: 0xA284, symBinAddr: 0x759E8, symSize: 0x28 }
  - { offset: 0x120A15, size: 0x8, addend: 0x0, symName: '__ZN4pyo38instance39Borrowed$LT$pyo3..types..any..PyAny$GT$15from_ptr_or_err28_$u7b$$u7b$closure$u7d$$u7d$17h2b6fd5087d3cf4d6E', symObjAddr: 0xA2E4, symBinAddr: 0x75A48, symSize: 0x20 }
  - { offset: 0x120A5E, size: 0x8, addend: 0x0, symName: '__ZN4pyo38instance39Borrowed$LT$pyo3..types..any..PyAny$GT$15from_ptr_or_err28_$u7b$$u7b$closure$u7d$$u7d$17ha3e402f9ca3aac20E', symObjAddr: 0xA304, symBinAddr: 0x75A68, symSize: 0x4C }
  - { offset: 0x120AC4, size: 0x8, addend: 0x0, symName: '__ZN4pyo38instance39Borrowed$LT$pyo3..types..any..PyAny$GT$8from_ptr28_$u7b$$u7b$closure$u7d$$u7d$17h4caaacfb0bc9f59dE', symObjAddr: 0xA5AC, symBinAddr: 0x75BD8, symSize: 0x1C }
  - { offset: 0x120B18, size: 0x8, addend: 0x0, symName: '__ZN67_$LT$pyo3..instance..Bound$LT$T$GT$$u20$as$u20$core..fmt..Debug$GT$3fmt17h38d037ecc81e3511E', symObjAddr: 0xA94C, symBinAddr: 0x75D40, symSize: 0x54 }
  - { offset: 0x120B7C, size: 0x8, addend: 0x0, symName: '__ZN67_$LT$pyo3..instance..Bound$LT$T$GT$$u20$as$u20$core..fmt..Debug$GT$3fmt17hcc10fc0df6f7e4afE', symObjAddr: 0xA9A0, symBinAddr: 0x75D94, symSize: 0x54 }
  - { offset: 0x120BE0, size: 0x8, addend: 0x0, symName: '__ZN67_$LT$pyo3..instance..Bound$LT$T$GT$$u20$as$u20$core..fmt..Debug$GT$3fmt17hd20aa42103cc50a4E', symObjAddr: 0xA9F4, symBinAddr: 0x75DE8, symSize: 0x54 }
  - { offset: 0x120C4A, size: 0x8, addend: 0x0, symName: '__ZN69_$LT$pyo3..instance..Bound$LT$T$GT$$u20$as$u20$core..clone..Clone$GT$5clone17h0c3a24ee546bb88dE', symObjAddr: 0xAA7C, symBinAddr: 0x75E3C, symSize: 0x34 }
  - { offset: 0x120C81, size: 0x8, addend: 0x0, symName: '__ZN69_$LT$pyo3..instance..Bound$LT$T$GT$$u20$as$u20$core..clone..Clone$GT$5clone17h13c7832d4561fdaaE', symObjAddr: 0xAAE4, symBinAddr: 0x75E70, symSize: 0x34 }
  - { offset: 0x120CB8, size: 0x8, addend: 0x0, symName: '__ZN69_$LT$pyo3..instance..Bound$LT$T$GT$$u20$as$u20$core..clone..Clone$GT$5clone17h2160a9f90aca6f1cE', symObjAddr: 0xAB18, symBinAddr: 0x75EA4, symSize: 0x34 }
  - { offset: 0x120CEF, size: 0x8, addend: 0x0, symName: '__ZN69_$LT$pyo3..instance..Bound$LT$T$GT$$u20$as$u20$core..clone..Clone$GT$5clone17hbc094e729a11e8adE', symObjAddr: 0xAC84, symBinAddr: 0x75ED8, symSize: 0x34 }
  - { offset: 0x120D26, size: 0x8, addend: 0x0, symName: '__ZN69_$LT$pyo3..instance..Bound$LT$T$GT$$u20$as$u20$core..clone..Clone$GT$5clone17he938ace50a29bc0dE', symObjAddr: 0xACB8, symBinAddr: 0x75F0C, symSize: 0x34 }
  - { offset: 0x120D5D, size: 0x8, addend: 0x0, symName: '__ZN69_$LT$pyo3..instance..Bound$LT$T$GT$$u20$as$u20$core..clone..Clone$GT$5clone17hfb7f42189683e6f7E', symObjAddr: 0xACEC, symBinAddr: 0x75F40, symSize: 0x34 }
  - { offset: 0x120D9A, size: 0x8, addend: 0x0, symName: '__ZN69_$LT$pyo3..instance..Bound$LT$T$GT$$u20$as$u20$core..fmt..Display$GT$3fmt17h553b4043ab830e07E', symObjAddr: 0xAD74, symBinAddr: 0x75F74, symSize: 0x54 }
  - { offset: 0x120DFE, size: 0x8, addend: 0x0, symName: '__ZN69_$LT$pyo3..instance..Bound$LT$T$GT$$u20$as$u20$core..fmt..Display$GT$3fmt17hf48a0197ddbd1ea7E', symObjAddr: 0xADC8, symBinAddr: 0x75FC8, symSize: 0x54 }
  - { offset: 0x120E62, size: 0x8, addend: 0x0, symName: '__ZN69_$LT$pyo3..instance..Bound$LT$T$GT$$u20$as$u20$core..fmt..Display$GT$3fmt17hff465bbbb218ef36E', symObjAddr: 0xAE1C, symBinAddr: 0x7601C, symSize: 0x54 }
  - { offset: 0x120ECC, size: 0x8, addend: 0x0, symName: '__ZN69_$LT$pyo3..instance..Py$LT$T$GT$$u20$as$u20$core..ops..drop..Drop$GT$4drop17h1e4a441034d7ee4dE', symObjAddr: 0xAE70, symBinAddr: 0x76070, symSize: 0x28 }
  - { offset: 0x120EFF, size: 0x8, addend: 0x0, symName: '__ZN69_$LT$pyo3..instance..Py$LT$T$GT$$u20$as$u20$core..ops..drop..Drop$GT$4drop17h37359a6cf9d49ca9E', symObjAddr: 0xAE98, symBinAddr: 0x76098, symSize: 0x28 }
  - { offset: 0x120F32, size: 0x8, addend: 0x0, symName: '__ZN69_$LT$pyo3..instance..Py$LT$T$GT$$u20$as$u20$core..ops..drop..Drop$GT$4drop17h84117077028e0a7aE', symObjAddr: 0xAEE8, symBinAddr: 0x760C0, symSize: 0x28 }
  - { offset: 0x120F65, size: 0x8, addend: 0x0, symName: '__ZN69_$LT$pyo3..instance..Py$LT$T$GT$$u20$as$u20$core..ops..drop..Drop$GT$4drop17h949c3b445a710d2bE', symObjAddr: 0xAF10, symBinAddr: 0x760E8, symSize: 0x28 }
  - { offset: 0x120F98, size: 0x8, addend: 0x0, symName: '__ZN69_$LT$pyo3..instance..Py$LT$T$GT$$u20$as$u20$core..ops..drop..Drop$GT$4drop17ha36539bdaeb95c74E', symObjAddr: 0xAF38, symBinAddr: 0x76110, symSize: 0x28 }
  - { offset: 0x120FCB, size: 0x8, addend: 0x0, symName: '__ZN69_$LT$pyo3..instance..Py$LT$T$GT$$u20$as$u20$core..ops..drop..Drop$GT$4drop17hc883230c8b4c958bE', symObjAddr: 0xAF60, symBinAddr: 0x76138, symSize: 0x28 }
  - { offset: 0x120FFE, size: 0x8, addend: 0x0, symName: '__ZN69_$LT$pyo3..instance..Py$LT$T$GT$$u20$as$u20$core..ops..drop..Drop$GT$4drop17hcf811adb2a9779ceE', symObjAddr: 0xAF88, symBinAddr: 0x76160, symSize: 0x28 }
  - { offset: 0x121037, size: 0x8, addend: 0x0, symName: '__ZN72_$LT$pyo3..instance..Bound$LT$T$GT$$u20$as$u20$core..ops..drop..Drop$GT$4drop17h168f81be47a4ed93E', symObjAddr: 0xAFB0, symBinAddr: 0x76188, symSize: 0x30 }
  - { offset: 0x121088, size: 0x8, addend: 0x0, symName: '__ZN72_$LT$pyo3..instance..Bound$LT$T$GT$$u20$as$u20$core..ops..drop..Drop$GT$4drop17h424b87efee66374dE', symObjAddr: 0xB040, symBinAddr: 0x761B8, symSize: 0x30 }
  - { offset: 0x1210D9, size: 0x8, addend: 0x0, symName: '__ZN72_$LT$pyo3..instance..Bound$LT$T$GT$$u20$as$u20$core..ops..drop..Drop$GT$4drop17h63540c1619b4bbfcE', symObjAddr: 0xB070, symBinAddr: 0x761E8, symSize: 0x30 }
  - { offset: 0x12112A, size: 0x8, addend: 0x0, symName: '__ZN72_$LT$pyo3..instance..Bound$LT$T$GT$$u20$as$u20$core..ops..drop..Drop$GT$4drop17h7c6fdc65d641b2beE', symObjAddr: 0xB100, symBinAddr: 0x76218, symSize: 0x30 }
  - { offset: 0x12117B, size: 0x8, addend: 0x0, symName: '__ZN72_$LT$pyo3..instance..Bound$LT$T$GT$$u20$as$u20$core..ops..drop..Drop$GT$4drop17h90d395fe02a0378fE', symObjAddr: 0xB160, symBinAddr: 0x76248, symSize: 0x30 }
  - { offset: 0x1211CC, size: 0x8, addend: 0x0, symName: '__ZN72_$LT$pyo3..instance..Bound$LT$T$GT$$u20$as$u20$core..ops..drop..Drop$GT$4drop17hd8c9f2597f1d6d70E', symObjAddr: 0xB1F0, symBinAddr: 0x76278, symSize: 0x30 }
  - { offset: 0x12121D, size: 0x8, addend: 0x0, symName: '__ZN72_$LT$pyo3..instance..Bound$LT$T$GT$$u20$as$u20$core..ops..drop..Drop$GT$4drop17hda8874f5d69e9301E', symObjAddr: 0xB220, symBinAddr: 0x762A8, symSize: 0x30 }
  - { offset: 0x12126E, size: 0x8, addend: 0x0, symName: '__ZN72_$LT$pyo3..instance..Bound$LT$T$GT$$u20$as$u20$core..ops..drop..Drop$GT$4drop17hdabd4c9f48fa4d1eE', symObjAddr: 0xB250, symBinAddr: 0x762D8, symSize: 0x30 }
  - { offset: 0x1212C5, size: 0x8, addend: 0x0, symName: '__ZN74_$LT$pyo3..instance..Bound$LT$T$GT$$u20$as$u20$core..ops..deref..Deref$GT$5deref17h721b83b180409a67E', symObjAddr: 0xB3A0, symBinAddr: 0x76308, symSize: 0x24 }
  - { offset: 0x1212FC, size: 0x8, addend: 0x0, symName: '__ZN74_$LT$pyo3..instance..Bound$LT$T$GT$$u20$as$u20$core..ops..deref..Deref$GT$5deref17he77415454596d2f4E', symObjAddr: 0xB40C, symBinAddr: 0x7632C, symSize: 0x24 }
  - { offset: 0x121333, size: 0x8, addend: 0x0, symName: '__ZN74_$LT$pyo3..instance..Bound$LT$T$GT$$u20$as$u20$core..ops..deref..Deref$GT$5deref17hec6f47e0cfd96350E', symObjAddr: 0xB430, symBinAddr: 0x76350, symSize: 0x24 }
  - { offset: 0x12136A, size: 0x8, addend: 0x0, symName: '__ZN74_$LT$pyo3..instance..Bound$LT$T$GT$$u20$as$u20$core..ops..deref..Deref$GT$5deref17hfcefb7539a8cb440E', symObjAddr: 0xB454, symBinAddr: 0x76374, symSize: 0x24 }
  - { offset: 0x1213A7, size: 0x8, addend: 0x0, symName: '__ZN76_$LT$pyo3..instance..Py$LT$T$GT$$u20$as$u20$pyo3..conversion..ToPyObject$GT$9to_object17hdef1da027927151bE', symObjAddr: 0xB4A0, symBinAddr: 0x76398, symSize: 0x28 }
  - { offset: 0x1213FF, size: 0x8, addend: 0x0, symName: '__ZN77_$LT$pyo3..instance..Borrowed$LT$T$GT$$u20$as$u20$core..ops..deref..Deref$GT$5deref17h0c23885c2ba46454E', symObjAddr: 0xB4C8, symBinAddr: 0x763C0, symSize: 0x74 }
  - { offset: 0x121436, size: 0x8, addend: 0x0, symName: '__ZN77_$LT$pyo3..instance..Borrowed$LT$T$GT$$u20$as$u20$core..ops..deref..Deref$GT$5deref17h2c0679575681885dE', symObjAddr: 0xB5B0, symBinAddr: 0x76434, symSize: 0x74 }
  - { offset: 0x12146D, size: 0x8, addend: 0x0, symName: '__ZN77_$LT$pyo3..instance..Borrowed$LT$T$GT$$u20$as$u20$core..ops..deref..Deref$GT$5deref17h49ac4a5c1e7e60c3E', symObjAddr: 0xB698, symBinAddr: 0x764A8, symSize: 0x74 }
  - { offset: 0x1214A4, size: 0x8, addend: 0x0, symName: '__ZN77_$LT$pyo3..instance..Borrowed$LT$T$GT$$u20$as$u20$core..ops..deref..Deref$GT$5deref17h49cad74279d7dd0aE', symObjAddr: 0xB70C, symBinAddr: 0x7651C, symSize: 0x74 }
  - { offset: 0x1214DB, size: 0x8, addend: 0x0, symName: '__ZN77_$LT$pyo3..instance..Borrowed$LT$T$GT$$u20$as$u20$core..ops..deref..Deref$GT$5deref17h49e384a461c99326E', symObjAddr: 0xB780, symBinAddr: 0x76590, symSize: 0x74 }
  - { offset: 0x121512, size: 0x8, addend: 0x0, symName: '__ZN77_$LT$pyo3..instance..Borrowed$LT$T$GT$$u20$as$u20$core..ops..deref..Deref$GT$5deref17h54b603038c291510E', symObjAddr: 0xB7F4, symBinAddr: 0x76604, symSize: 0x74 }
  - { offset: 0x121549, size: 0x8, addend: 0x0, symName: '__ZN77_$LT$pyo3..instance..Borrowed$LT$T$GT$$u20$as$u20$core..ops..deref..Deref$GT$5deref17he870aff5eb64aaf7E', symObjAddr: 0xB868, symBinAddr: 0x76678, symSize: 0x74 }
  - { offset: 0x121586, size: 0x8, addend: 0x0, symName: '__ZN79_$LT$pyo3..instance..Bound$LT$T$GT$$u20$as$u20$pyo3..conversion..ToPyObject$GT$9to_object17hda7be504d82a1e48E', symObjAddr: 0xB9C8, symBinAddr: 0x766EC, symSize: 0x28 }
  - { offset: 0x1215D8, size: 0x8, addend: 0x0, symName: '__ZN79_$LT$pyo3..instance..Bound$LT$T$GT$$u20$as$u20$pyo3..conversion..ToPyObject$GT$9to_object17hf16a773fb56aaf19E', symObjAddr: 0xB9F0, symBinAddr: 0x76714, symSize: 0x28 }
  - { offset: 0x121630, size: 0x8, addend: 0x0, symName: '__ZN80_$LT$pyo3..instance..Bound$LT$T$GT$$u20$as$u20$pyo3..conversion..AsPyPointer$GT$6as_ptr17hf009317942767bd5E', symObjAddr: 0xBA18, symBinAddr: 0x7673C, symSize: 0x2C }
  - { offset: 0x121678, size: 0x8, addend: 0x0, symName: '__ZN196_$LT$$RF$pyo3..instance..Bound$LT$pyo3..types..module..PyModule$GT$$u20$as$u20$pyo3..impl_..pyfunction..WrapPyFunctionArg$LT$pyo3..instance..Bound$LT$pyo3..types..function..PyCFunction$GT$$GT$$GT$15wrap_pyfunction17h4c6282d7c4bb5338E', symObjAddr: 0x5AAC, symBinAddr: 0x739B8, symSize: 0x44 }
  - { offset: 0x121775, size: 0x8, addend: 0x0, symName: '__ZN54_$LT$$RF$T$u20$as$u20$pyo3..conversion..ToPyObject$GT$9to_object17h12425513934e0822E', symObjAddr: 0xA8A4, symBinAddr: 0x75CCC, symSize: 0x28 }
  - { offset: 0x1217C7, size: 0x8, addend: 0x0, symName: '__ZN54_$LT$$RF$T$u20$as$u20$pyo3..conversion..ToPyObject$GT$9to_object17h6631249ab77bc2feE', symObjAddr: 0xA8CC, symBinAddr: 0x75CF4, symSize: 0x28 }
  - { offset: 0x121972, size: 0x8, addend: 0x0, symName: '__ZN58_$LT$T$u20$as$u20$pyo3..err..err_state..PyErrArguments$GT$9arguments17h0f437f6f632e0babE', symObjAddr: 0xA928, symBinAddr: 0x75D1C, symSize: 0x24 }
  - { offset: 0x121BCC, size: 0x8, addend: 0x0, symName: '__ZN4pyo35types4dict75_$LT$impl$u20$pyo3..instance..Borrowed$LT$pyo3..types..dict..PyDict$GT$$GT$13iter_borrowed17h178527c5a6cd4ad9E', symObjAddr: 0x635C, symBinAddr: 0x73B08, symSize: 0x24 }
  - { offset: 0x121C23, size: 0x8, addend: 0x0, symName: '__ZN4pyo35types5bytes77_$LT$impl$u20$pyo3..instance..Borrowed$LT$pyo3..types..bytes..PyBytes$GT$$GT$8as_bytes17ha93841c51605a86bE', symObjAddr: 0x63F0, symBinAddr: 0x73B2C, symSize: 0x9C }
  - { offset: 0x121C7C, size: 0x8, addend: 0x0, symName: '__ZN4pyo35types5tuple77_$LT$impl$u20$pyo3..instance..Borrowed$LT$pyo3..types..tuple..PyTuple$GT$$GT$13iter_borrowed17habc9574b062a4604E', symObjAddr: 0x6CE4, symBinAddr: 0x73BC8, symSize: 0x24 }
  - { offset: 0x121CAC, size: 0x8, addend: 0x0, symName: '__ZN4pyo35types5tuple77_$LT$impl$u20$pyo3..instance..Borrowed$LT$pyo3..types..tuple..PyTuple$GT$$GT$17get_borrowed_item17hc3db54c787d36a35E', symObjAddr: 0x6D08, symBinAddr: 0x73BEC, symSize: 0x64 }
  - { offset: 0x121D09, size: 0x8, addend: 0x0, symName: '__ZN4pyo35types6string79_$LT$impl$u20$pyo3..instance..Borrowed$LT$pyo3..types..string..PyString$GT$$GT$15to_string_lossy17h75ca2185d017d997E', symObjAddr: 0x6ED8, symBinAddr: 0x73C9C, symSize: 0x124 }
  - { offset: 0x121D7E, size: 0x8, addend: 0x0, symName: '__ZN4pyo35types6string79_$LT$impl$u20$pyo3..instance..Borrowed$LT$pyo3..types..string..PyString$GT$$GT$6to_cow17h1743e685ceb32d0eE', symObjAddr: 0x6FFC, symBinAddr: 0x73DC0, symSize: 0x12C }
  - { offset: 0x121E39, size: 0x8, addend: 0x0, symName: '__ZN4pyo38instance11Py$LT$T$GT$10into_bound17h718204e049cda5d2E', symObjAddr: 0x760C, symBinAddr: 0x73EEC, symSize: 0x1C }
  - { offset: 0x121E80, size: 0x8, addend: 0x0, symName: '__ZN4pyo38instance11Py$LT$T$GT$10into_bound17h7ffbb7da1b74e730E', symObjAddr: 0x7628, symBinAddr: 0x73F08, symSize: 0x1C }
  - { offset: 0x121EDA, size: 0x8, addend: 0x0, symName: '__ZN4pyo38instance11Py$LT$T$GT$13from_non_null17h04d433919090d672E', symObjAddr: 0x7748, symBinAddr: 0x73F24, symSize: 0x14 }
  - { offset: 0x121F06, size: 0x8, addend: 0x0, symName: '__ZN4pyo38instance11Py$LT$T$GT$13from_non_null17h2ffce5b3ab238f44E', symObjAddr: 0x7770, symBinAddr: 0x73F38, symSize: 0x14 }
  - { offset: 0x121F32, size: 0x8, addend: 0x0, symName: '__ZN4pyo38instance11Py$LT$T$GT$13from_non_null17h529c5b7a11f845d5E', symObjAddr: 0x7798, symBinAddr: 0x73F4C, symSize: 0x14 }
  - { offset: 0x121F5E, size: 0x8, addend: 0x0, symName: '__ZN4pyo38instance11Py$LT$T$GT$13from_non_null17h6574d7a8bd4cc707E', symObjAddr: 0x77C0, symBinAddr: 0x73F60, symSize: 0x14 }
  - { offset: 0x121F8A, size: 0x8, addend: 0x0, symName: '__ZN4pyo38instance11Py$LT$T$GT$13from_non_null17h71ec4f34dc87be49E', symObjAddr: 0x77D4, symBinAddr: 0x73F74, symSize: 0x14 }
  - { offset: 0x121FB6, size: 0x8, addend: 0x0, symName: '__ZN4pyo38instance11Py$LT$T$GT$13from_non_null17h88b8dcd8e595dcaeE', symObjAddr: 0x77E8, symBinAddr: 0x73F88, symSize: 0x14 }
  - { offset: 0x121FE2, size: 0x8, addend: 0x0, symName: '__ZN4pyo38instance11Py$LT$T$GT$13from_non_null17hac7417aa3d816ac1E', symObjAddr: 0x7810, symBinAddr: 0x73F9C, symSize: 0x14 }
  - { offset: 0x12200E, size: 0x8, addend: 0x0, symName: '__ZN4pyo38instance11Py$LT$T$GT$13from_non_null17hbf6111b82c1f31afE', symObjAddr: 0x7824, symBinAddr: 0x73FB0, symSize: 0x14 }
  - { offset: 0x12203A, size: 0x8, addend: 0x0, symName: '__ZN4pyo38instance11Py$LT$T$GT$13from_non_null17hc44bf26e3d94ff66E', symObjAddr: 0x7838, symBinAddr: 0x73FC4, symSize: 0x14 }
  - { offset: 0x122066, size: 0x8, addend: 0x0, symName: '__ZN4pyo38instance11Py$LT$T$GT$13from_non_null17hf81007bab44b1bcfE', symObjAddr: 0x7888, symBinAddr: 0x73FD8, symSize: 0x14 }
  - { offset: 0x1220CA, size: 0x8, addend: 0x0, symName: '__ZN4pyo38instance11Py$LT$T$GT$14from_owned_ptr17h5537b91536f06cb9E', symObjAddr: 0x78B0, symBinAddr: 0x73FEC, symSize: 0x50 }
  - { offset: 0x122111, size: 0x8, addend: 0x0, symName: '__ZN4pyo38instance11Py$LT$T$GT$14from_owned_ptr17h9510aff82f69b833E', symObjAddr: 0x7900, symBinAddr: 0x7403C, symSize: 0x50 }
  - { offset: 0x122158, size: 0x8, addend: 0x0, symName: '__ZN4pyo38instance11Py$LT$T$GT$21from_owned_ptr_or_err17h359844c35006526dE', symObjAddr: 0x79A0, symBinAddr: 0x7408C, symSize: 0x88 }
